GAS LISTING /tmp/ccDAIzsG.s 			page 1


   1              		.file	"_sem.cpp"
   2              		.option pic
   3              		.option norelax
   4              		.text
   5              	.Ltext0:
   6              		.align	2
   7              		.globl	_ZN4_sem7semOpenEj
   9              	_ZN4_sem7semOpenEj:
  10              	.LFB46:
  11              		.file 1 "src/_sem.cpp"
   1:src/_sem.cpp  **** //
   2:src/_sem.cpp  **** // Created by os on 6/25/22.
   3:src/_sem.cpp  **** //
   4:src/_sem.cpp  **** 
   5:src/_sem.cpp  **** #include "../h/_sem.h"
   6:src/_sem.cpp  **** 
   7:src/_sem.cpp  **** 
   8:src/_sem.cpp  **** sem_t _sem::semOpen(unsigned init) {
  12              		.loc 1 8 36
  13              		.cfi_startproc
  14              	.LVL0:
  15 0000 130101FE 		addi	sp,sp,-32
  16              		.cfi_def_cfa_offset 32
  17 0004 233C1100 		sd	ra,24(sp)
  18 0008 23388100 		sd	s0,16(sp)
  19 000c 23349100 		sd	s1,8(sp)
  20 0010 23302101 		sd	s2,0(sp)
  21              		.cfi_offset 1, -8
  22              		.cfi_offset 8, -16
  23              		.cfi_offset 9, -24
  24              		.cfi_offset 18, -32
  25 0014 13040102 		addi	s0,sp,32
  26              		.cfi_def_cfa 8, 0
  27 0018 13090500 		mv	s2,a0
   9:src/_sem.cpp  ****     _sem* ret = (_sem*)MemoryAllocator::getInstance()->mem_alloc((sizeof(_sem) + MEM_BLOCK_SIZE-1 +
  28              		.loc 1 9 5
  29              		.loc 1 9 52 is_stmt 0
  30 001c 97000000 		call	_ZN15MemoryAllocator11getInstanceEv@plt
  30      E7800000 
  31              	.LVL1:
  32              		.loc 1 9 149
  33 0024 13051000 		li	a0,1
  34 0028 97000000 		call	_ZN15MemoryAllocator9mem_allocEm@plt
  34      E7800000 
  35              	.LVL2:
  36 0030 93040500 		mv	s1,a0
  37              	.LVL3:
  10:src/_sem.cpp  ****     if (ret == nullptr) return ret;
  38              		.loc 1 10 5 is_stmt 1
  39 0034 63000502 		beqz	a0,.L1
  11:src/_sem.cpp  **** 
  12:src/_sem.cpp  ****     ret->init = init;
  40              		.loc 1 12 5
  41              		.loc 1 12 15 is_stmt 0
  42 0038 23202501 		sw	s2,0(a0)
  13:src/_sem.cpp  ****     ret->blockedThreads = new Blocked();
  43              		.loc 1 13 5 is_stmt 1
GAS LISTING /tmp/ccDAIzsG.s 			page 2


  44              		.loc 1 13 39 is_stmt 0
  45 003c 13050001 		li	a0,16
  46 0040 97000000 		call	_Znwm@plt
  46      E7800000 
  47              	.LVL4:
  48              	.LBB9:
  49              	.LBB10:
  50              		.file 2 "src/../h/Blocked.h"
   1:src/../h/Blocked.h **** //
   2:src/../h/Blocked.h **** // Created by os on 6/26/22.
   3:src/../h/Blocked.h **** //
   4:src/../h/Blocked.h **** 
   5:src/../h/Blocked.h **** #ifndef OS_PROJEKAT_BLOCKED_H
   6:src/../h/Blocked.h **** #define OS_PROJEKAT_BLOCKED_H
   7:src/../h/Blocked.h **** 
   8:src/../h/Blocked.h **** #include "../h/_thread.h"
   9:src/../h/Blocked.h **** 
  10:src/../h/Blocked.h **** class Blocked
  11:src/../h/Blocked.h **** {
  12:src/../h/Blocked.h **** public:
  13:src/../h/Blocked.h ****     _thread *get();
  14:src/../h/Blocked.h **** 
  15:src/../h/Blocked.h ****     void put(_thread *ccb);
  16:src/../h/Blocked.h **** 
  17:src/../h/Blocked.h ****     struct Elem{
  18:src/../h/Blocked.h ****         _thread* data;
  19:src/../h/Blocked.h ****         Elem* next;
  20:src/../h/Blocked.h ****     };
  21:src/../h/Blocked.h ****     Elem* head;
  22:src/../h/Blocked.h ****     Elem* tail;
  23:src/../h/Blocked.h **** 
  24:src/../h/Blocked.h ****     Blocked(){
  25:src/../h/Blocked.h ****         head = tail = 0;
  51              		.loc 2 25 9 is_stmt 1
  52              		.loc 2 25 21 is_stmt 0
  53 0048 23340500 		sd	zero,8(a0)
  54              		.loc 2 25 14
  55 004c 23300500 		sd	zero,0(a0)
  56              	.LVL5:
  57              	.LBE10:
  58              	.LBE9:
  59              		.loc 1 13 25
  60 0050 23B4A400 		sd	a0,8(s1)
  14:src/_sem.cpp  ****     return ret;
  61              		.loc 1 14 5 is_stmt 1
  62              	.L1:
  15:src/_sem.cpp  **** }
  63              		.loc 1 15 1 is_stmt 0
  64 0054 13850400 		mv	a0,s1
  65 0058 83308101 		ld	ra,24(sp)
  66              		.cfi_restore 1
  67 005c 03340101 		ld	s0,16(sp)
  68              		.cfi_restore 8
  69              		.cfi_def_cfa 2, 32
  70 0060 83348100 		ld	s1,8(sp)
  71              		.cfi_restore 9
  72              	.LVL6:
GAS LISTING /tmp/ccDAIzsG.s 			page 3


  73 0064 03390100 		ld	s2,0(sp)
  74              		.cfi_restore 18
  75 0068 13010102 		addi	sp,sp,32
  76              		.cfi_def_cfa_offset 0
  77 006c 67800000 		jr	ra
  78              		.cfi_endproc
  79              	.LFE46:
  81              		.align	2
  82              		.globl	_ZN4_sem5blockEv
  84              	_ZN4_sem5blockEv:
  85              	.LFB50:
  16:src/_sem.cpp  **** 
  17:src/_sem.cpp  **** int _sem::semClose(sem_t handle){
  18:src/_sem.cpp  ****     // deblock all threads and call MemoryAllocator to dealloc
  19:src/_sem.cpp  ****     if (handle == nullptr) return -1;
  20:src/_sem.cpp  ****     while (handle->blockedThreads->head != nullptr) handle->deblock();
  21:src/_sem.cpp  ****     MemoryAllocator::mem_free(handle);
  22:src/_sem.cpp  ****     return 0;
  23:src/_sem.cpp  **** }
  24:src/_sem.cpp  **** 
  25:src/_sem.cpp  **** int _sem::semWait(sem_t id){
  26:src/_sem.cpp  ****     if (id == nullptr) return -1;
  27:src/_sem.cpp  ****     if (--id->init < 0) id->block();
  28:src/_sem.cpp  ****     return 0;
  29:src/_sem.cpp  **** }
  30:src/_sem.cpp  **** 
  31:src/_sem.cpp  **** int _sem::semSignal(sem_t id){
  32:src/_sem.cpp  ****     if (id == nullptr) return -1;
  33:src/_sem.cpp  ****     if (++id->init <= 0) id->deblock();
  34:src/_sem.cpp  ****     return 0;
  35:src/_sem.cpp  **** }
  36:src/_sem.cpp  **** 
  37:src/_sem.cpp  **** void _sem::block(){
  86              		.loc 1 37 19 is_stmt 1
  87              		.cfi_startproc
  88              	.LVL7:
  89 0070 130101FE 		addi	sp,sp,-32
  90              		.cfi_def_cfa_offset 32
  91 0074 233C1100 		sd	ra,24(sp)
  92 0078 23388100 		sd	s0,16(sp)
  93 007c 23349100 		sd	s1,8(sp)
  94 0080 23302101 		sd	s2,0(sp)
  95              		.cfi_offset 1, -8
  96              		.cfi_offset 8, -16
  97              		.cfi_offset 9, -24
  98              		.cfi_offset 18, -32
  99 0084 13040102 		addi	s0,sp,32
 100              		.cfi_def_cfa 8, 0
  38:src/_sem.cpp  **** 
  39:src/_sem.cpp  ****     _thread *old = _thread::running;
 101              		.loc 1 39 5
 102              		.loc 1 39 14 is_stmt 0
 103 0088 17090000 		la	s2,_ZN7_thread7runningE
 103      03390900 
 104 0090 83340900 		ld	s1,0(s2)
 105              	.LVL8:
  40:src/_sem.cpp  ****     old->setBlocked(true);
GAS LISTING /tmp/ccDAIzsG.s 			page 4


 106              		.loc 1 40 5 is_stmt 1
 107              	.LBB11:
 108              	.LBB12:
 109              		.file 3 "src/../h/../h/_thread.h"
   1:src/../h/../h/_thread.h **** //
   2:src/../h/../h/_thread.h **** // Created by os on 6/21/22.
   3:src/../h/../h/_thread.h **** //
   4:src/../h/../h/_thread.h **** 
   5:src/../h/../h/_thread.h **** #ifndef OS_PROJEKAT__THREAD_H
   6:src/../h/../h/_thread.h **** #define OS_PROJEKAT__THREAD_H
   7:src/../h/../h/_thread.h **** 
   8:src/../h/../h/_thread.h **** //
   9:src/../h/../h/_thread.h **** // Created by os on 6/17/22.
  10:src/../h/../h/_thread.h **** //
  11:src/../h/../h/_thread.h **** 
  12:src/../h/../h/_thread.h **** #include "../lib/hw.h"
  13:src/../h/../h/_thread.h **** #include "Scheduler.h"
  14:src/../h/../h/_thread.h **** #include "riscv.h"
  15:src/../h/../h/_thread.h **** #include "../h/syscall_cpp.h"
  16:src/../h/../h/_thread.h **** 
  17:src/../h/../h/_thread.h **** class _thread {
  18:src/../h/../h/_thread.h **** public:
  19:src/../h/../h/_thread.h ****     friend class _sem;
  20:src/../h/../h/_thread.h ****     using Body = void (*)(void*);
  21:src/../h/../h/_thread.h **** private:
  22:src/../h/../h/_thread.h ****     _thread(Body body, uint64 timeSlice, void* arg) :
  23:src/../h/../h/_thread.h ****             body(body),
  24:src/../h/../h/_thread.h ****             stack(body != nullptr ? new uint64[STACK_SIZE] : nullptr),
  25:src/../h/../h/_thread.h ****             timeSlice(timeSlice),
  26:src/../h/../h/_thread.h ****             finished(false),
  27:src/../h/../h/_thread.h ****             blocked(false),
  28:src/../h/../h/_thread.h ****             arg(arg),
  29:src/../h/../h/_thread.h ****             context({(uint64) &threadWrapper,
  30:src/../h/../h/_thread.h ****                      stack != nullptr ? (uint64) &stack[STACK_SIZE] : 0
  31:src/../h/../h/_thread.h ****                     })
  32:src/../h/../h/_thread.h **** 
  33:src/../h/../h/_thread.h ****     {
  34:src/../h/../h/_thread.h ****         if (body != nullptr) { Scheduler::put(this); }
  35:src/../h/../h/_thread.h ****     }
  36:src/../h/../h/_thread.h **** 
  37:src/../h/../h/_thread.h ****     struct Context
  38:src/../h/../h/_thread.h ****     {
  39:src/../h/../h/_thread.h ****         uint64 ra;
  40:src/../h/../h/_thread.h ****         uint64 sp;
  41:src/../h/../h/_thread.h ****     };
  42:src/../h/../h/_thread.h **** 
  43:src/../h/../h/_thread.h ****     Body body;
  44:src/../h/../h/_thread.h ****     uint64 *stack;
  45:src/../h/../h/_thread.h ****     uint64 timeSlice;
  46:src/../h/../h/_thread.h ****     bool finished;
  47:src/../h/../h/_thread.h ****     bool blocked;
  48:src/../h/../h/_thread.h ****     void* arg;
  49:src/../h/../h/_thread.h ****     Context context;
  50:src/../h/../h/_thread.h **** 
  51:src/../h/../h/_thread.h ****     friend class Riscv;
  52:src/../h/../h/_thread.h **** 
  53:src/../h/../h/_thread.h ****     static void threadWrapper();
GAS LISTING /tmp/ccDAIzsG.s 			page 5


  54:src/../h/../h/_thread.h **** 
  55:src/../h/../h/_thread.h **** 
  56:src/../h/../h/_thread.h ****     static uint64 timeSliceCounter;
  57:src/../h/../h/_thread.h **** 
  58:src/../h/../h/_thread.h ****     static uint64 constexpr STACK_SIZE = DEFAULT_STACK_SIZE;
  59:src/../h/../h/_thread.h ****     static uint64 constexpr TIME_SLICE = DEFAULT_TIME_SLICE;
  60:src/../h/../h/_thread.h **** 
  61:src/../h/../h/_thread.h **** 
  62:src/../h/../h/_thread.h **** public:
  63:src/../h/../h/_thread.h ****     ~_thread() { MemoryAllocator::mem_free((char*)stack-STACK_SIZE); }
  64:src/../h/../h/_thread.h **** 
  65:src/../h/../h/_thread.h ****     bool isFinished() const { return finished; }
  66:src/../h/../h/_thread.h **** 
  67:src/../h/../h/_thread.h ****     void setFinished(bool value) { finished = value; }
  68:src/../h/../h/_thread.h **** 
  69:src/../h/../h/_thread.h ****     bool isBlocked() const { return blocked; }
  70:src/../h/../h/_thread.h **** 
  71:src/../h/../h/_thread.h ****     void setBlocked(bool value) { blocked = value; }
 110              		.loc 3 71 35
 111              		.loc 3 71 43 is_stmt 0
 112 0094 93071000 		li	a5,1
 113 0098 A38CF400 		sb	a5,25(s1)
 114              	.LVL9:
 115              	.LBE12:
 116              	.LBE11:
  41:src/_sem.cpp  ****     this->blockedThreads->put(old);
 117              		.loc 1 41 5 is_stmt 1
 118              		.loc 1 41 30 is_stmt 0
 119 009c 93850400 		mv	a1,s1
 120 00a0 03358500 		ld	a0,8(a0)
 121              	.LVL10:
 122 00a4 97000000 		call	_ZN7Blocked3putEP7_thread@plt
 122      E7800000 
 123              	.LVL11:
  42:src/_sem.cpp  ****     _thread::running = Scheduler::get();
 124              		.loc 1 42 5 is_stmt 1
 125              		.loc 1 42 38 is_stmt 0
 126 00ac 97000000 		call	_ZN9Scheduler3getEv@plt
 126      E7800000 
 127              	.LVL12:
 128              		.loc 1 42 22
 129 00b4 2330A900 		sd	a0,0(s2)
  43:src/_sem.cpp  ****     _thread::contextSwitch(&old->context, &_thread::running->context);
 130              		.loc 1 43 5 is_stmt 1
 131              		.loc 1 43 27 is_stmt 0
 132 00b8 93058502 		addi	a1,a0,40
 133 00bc 13858402 		addi	a0,s1,40
 134 00c0 97000000 		call	_ZN7_thread13contextSwitchEPNS_7ContextES1_@plt
 134      E7800000 
 135              	.LVL13:
  44:src/_sem.cpp  **** 
  45:src/_sem.cpp  **** }
 136              		.loc 1 45 1
 137 00c8 83308101 		ld	ra,24(sp)
 138              		.cfi_restore 1
 139 00cc 03340101 		ld	s0,16(sp)
 140              		.cfi_restore 8
GAS LISTING /tmp/ccDAIzsG.s 			page 6


 141              		.cfi_def_cfa 2, 32
 142 00d0 83348100 		ld	s1,8(sp)
 143              		.cfi_restore 9
 144              	.LVL14:
 145 00d4 03390100 		ld	s2,0(sp)
 146              		.cfi_restore 18
 147 00d8 13010102 		addi	sp,sp,32
 148              		.cfi_def_cfa_offset 0
 149 00dc 67800000 		jr	ra
 150              		.cfi_endproc
 151              	.LFE50:
 153              		.align	2
 154              		.globl	_ZN4_sem7semWaitEPS_
 156              	_ZN4_sem7semWaitEPS_:
 157              	.LFB48:
  25:src/_sem.cpp  ****     if (id == nullptr) return -1;
 158              		.loc 1 25 28 is_stmt 1
 159              		.cfi_startproc
 160              	.LVL15:
  26:src/_sem.cpp  ****     if (--id->init < 0) id->block();
 161              		.loc 1 26 5
 162 00e0 63060504 		beqz	a0,.L8
  27:src/_sem.cpp  ****     return 0;
 163              		.loc 1 27 5
  27:src/_sem.cpp  ****     return 0;
 164              		.loc 1 27 15 is_stmt 0
 165 00e4 83270500 		lw	a5,0(a0)
  27:src/_sem.cpp  ****     return 0;
 166              		.loc 1 27 9
 167 00e8 9B87F7FF 		addiw	a5,a5,-1
  27:src/_sem.cpp  ****     return 0;
 168              		.loc 1 27 20
 169 00ec 2320F500 		sw	a5,0(a0)
  27:src/_sem.cpp  ****     return 0;
 170              		.loc 1 27 5
 171 00f0 13970702 		slli	a4,a5,32
 172 00f4 63460700 		bltz	a4,.L14
  28:src/_sem.cpp  **** }
 173              		.loc 1 28 12
 174 00f8 13050000 		li	a0,0
 175              	.LVL16:
  29:src/_sem.cpp  **** 
 176              		.loc 1 29 1
 177 00fc 67800000 		ret
 178              	.LVL17:
 179              	.L14:
  25:src/_sem.cpp  ****     if (id == nullptr) return -1;
 180              		.loc 1 25 28 discriminator 1
 181 0100 130101FF 		addi	sp,sp,-16
 182              		.cfi_def_cfa_offset 16
 183 0104 23341100 		sd	ra,8(sp)
 184 0108 23308100 		sd	s0,0(sp)
 185              		.cfi_offset 1, -8
 186              		.cfi_offset 8, -16
 187 010c 13040101 		addi	s0,sp,16
 188              		.cfi_def_cfa 8, 0
  27:src/_sem.cpp  ****     return 0;
GAS LISTING /tmp/ccDAIzsG.s 			page 7


 189              		.loc 1 27 25 is_stmt 1 discriminator 1
  27:src/_sem.cpp  ****     return 0;
 190              		.loc 1 27 34 is_stmt 0 discriminator 1
 191 0110 97000000 		call	_ZN4_sem5blockEv
 191      E7800000 
 192              	.LVL18:
  28:src/_sem.cpp  **** }
 193              		.loc 1 28 12 discriminator 1
 194 0118 13050000 		li	a0,0
  29:src/_sem.cpp  **** 
 195              		.loc 1 29 1 discriminator 1
 196 011c 83308100 		ld	ra,8(sp)
 197              		.cfi_restore 1
 198 0120 03340100 		ld	s0,0(sp)
 199              		.cfi_restore 8
 200              		.cfi_def_cfa 2, 16
 201 0124 13010101 		addi	sp,sp,16
 202              		.cfi_def_cfa_offset 0
 203 0128 67800000 		jr	ra
 204              	.LVL19:
 205              	.L8:
  26:src/_sem.cpp  ****     if (--id->init < 0) id->block();
 206              		.loc 1 26 32
 207 012c 1305F0FF 		li	a0,-1
 208              	.LVL20:
 209 0130 67800000 		ret
 210              		.cfi_endproc
 211              	.LFE48:
 213              		.align	2
 214              		.globl	_ZN4_sem7deblockEv
 216              	_ZN4_sem7deblockEv:
 217              	.LFB51:
  46:src/_sem.cpp  **** 
  47:src/_sem.cpp  **** void _sem::deblock(){
 218              		.loc 1 47 21 is_stmt 1
 219              		.cfi_startproc
 220              	.LVL21:
 221 0134 130101FF 		addi	sp,sp,-16
 222              		.cfi_def_cfa_offset 16
 223 0138 23341100 		sd	ra,8(sp)
 224 013c 23308100 		sd	s0,0(sp)
 225              		.cfi_offset 1, -8
 226              		.cfi_offset 8, -16
 227 0140 13040101 		addi	s0,sp,16
 228              		.cfi_def_cfa 8, 0
  48:src/_sem.cpp  ****     _thread* t = this->blockedThreads->get();
 229              		.loc 1 48 5
 230              		.loc 1 48 43 is_stmt 0
 231 0144 03358500 		ld	a0,8(a0)
 232              	.LVL22:
 233 0148 97000000 		call	_ZN7Blocked3getEv@plt
 233      E7800000 
 234              	.LVL23:
  49:src/_sem.cpp  ****     t->setBlocked(false);
 235              		.loc 1 49 5 is_stmt 1
 236              	.LBB13:
 237              	.LBB14:
GAS LISTING /tmp/ccDAIzsG.s 			page 8


 238              		.loc 3 71 35
 239              		.loc 3 71 43 is_stmt 0
 240 0150 A30C0500 		sb	zero,25(a0)
 241              	.LVL24:
 242              	.LBE14:
 243              	.LBE13:
  50:src/_sem.cpp  ****     Scheduler::put(t);
 244              		.loc 1 50 5 is_stmt 1
 245              		.loc 1 50 19 is_stmt 0
 246 0154 97000000 		call	_ZN9Scheduler3putEP7_thread@plt
 246      E7800000 
 247              	.LVL25:
  51:src/_sem.cpp  **** }...
 248              		.loc 1 51 1
 249 015c 83308100 		ld	ra,8(sp)
 250              		.cfi_restore 1
 251 0160 03340100 		ld	s0,0(sp)
 252              		.cfi_restore 8
 253              		.cfi_def_cfa 2, 16
 254 0164 13010101 		addi	sp,sp,16
 255              		.cfi_def_cfa_offset 0
 256 0168 67800000 		jr	ra
 257              		.cfi_endproc
 258              	.LFE51:
 260              		.align	2
 261              		.globl	_ZN4_sem8semCloseEPS_
 263              	_ZN4_sem8semCloseEPS_:
 264              	.LFB47:
  17:src/_sem.cpp  **** int _sem::semClose(sem_t handle){
 265              		.loc 1 17 33 is_stmt 1
 266              		.cfi_startproc
 267              	.LVL26:
 268 016c 130101FE 		addi	sp,sp,-32
 269              		.cfi_def_cfa_offset 32
 270 0170 233C1100 		sd	ra,24(sp)
 271 0174 23388100 		sd	s0,16(sp)
 272 0178 23349100 		sd	s1,8(sp)
 273              		.cfi_offset 1, -8
 274              		.cfi_offset 8, -16
 275              		.cfi_offset 9, -24
 276 017c 13040102 		addi	s0,sp,32
 277              		.cfi_def_cfa 8, 0
 278 0180 93040500 		mv	s1,a0
  19:src/_sem.cpp  ****     if (handle == nullptr) return -1;
 279              		.loc 1 19 5
 280 0184 63020504 		beqz	a0,.L21
 281              	.LVL27:
 282              	.L20:
  20:src/_sem.cpp  ****     while (handle->blockedThreads->head != nullptr) handle->deblock();
 283              		.loc 1 20 5 discriminator 2
  20:src/_sem.cpp  ****     while (handle->blockedThreads->head != nullptr) handle->deblock();
 284              		.loc 1 20 41 discriminator 2
  20:src/_sem.cpp  ****     while (handle->blockedThreads->head != nullptr) handle->deblock();
 285              		.loc 1 20 20 is_stmt 0 discriminator 2
 286 0188 83B78400 		ld	a5,8(s1)
  20:src/_sem.cpp  ****     while (handle->blockedThreads->head != nullptr) handle->deblock();
 287              		.loc 1 20 36 discriminator 2
GAS LISTING /tmp/ccDAIzsG.s 			page 9


 288 018c 83B70700 		ld	a5,0(a5)
  20:src/_sem.cpp  ****     while (handle->blockedThreads->head != nullptr) handle->deblock();
 289              		.loc 1 20 41 discriminator 2
 290 0190 638A0700 		beqz	a5,.L19
  20:src/_sem.cpp  ****     while (handle->blockedThreads->head != nullptr) handle->deblock();
 291              		.loc 1 20 53 is_stmt 1 discriminator 1
  20:src/_sem.cpp  ****     while (handle->blockedThreads->head != nullptr) handle->deblock();
 292              		.loc 1 20 68 is_stmt 0 discriminator 1
 293 0194 13850400 		mv	a0,s1
 294 0198 97000000 		call	_ZN4_sem7deblockEv
 294      E7800000 
 295              	.LVL28:
  20:src/_sem.cpp  ****     while (handle->blockedThreads->head != nullptr) handle->deblock();
 296              		.loc 1 20 5 discriminator 1
 297 01a0 6FF09FFE 		j	.L20
 298              	.L19:
  21:src/_sem.cpp  ****     MemoryAllocator::mem_free(handle);
 299              		.loc 1 21 5 is_stmt 1
  21:src/_sem.cpp  ****     MemoryAllocator::mem_free(handle);
 300              		.loc 1 21 30 is_stmt 0
 301 01a4 13850400 		mv	a0,s1
 302 01a8 97000000 		call	_ZN15MemoryAllocator8mem_freeEPv@plt
 302      E7800000 
 303              	.LVL29:
  22:src/_sem.cpp  ****     return 0;
 304              		.loc 1 22 5 is_stmt 1
  22:src/_sem.cpp  ****     return 0;
 305              		.loc 1 22 12 is_stmt 0
 306 01b0 13050000 		li	a0,0
 307              	.L18:
  23:src/_sem.cpp  **** }
 308              		.loc 1 23 1
 309 01b4 83308101 		ld	ra,24(sp)
 310              		.cfi_remember_state
 311              		.cfi_restore 1
 312 01b8 03340101 		ld	s0,16(sp)
 313              		.cfi_restore 8
 314              		.cfi_def_cfa 2, 32
 315 01bc 83348100 		ld	s1,8(sp)
 316              		.cfi_restore 9
 317              	.LVL30:
 318 01c0 13010102 		addi	sp,sp,32
 319              		.cfi_def_cfa_offset 0
 320 01c4 67800000 		jr	ra
 321              	.LVL31:
 322              	.L21:
 323              		.cfi_restore_state
  19:src/_sem.cpp  ****     if (handle == nullptr) return -1;
 324              		.loc 1 19 36
 325 01c8 1305F0FF 		li	a0,-1
 326 01cc 6FF09FFE 		j	.L18
 327              		.cfi_endproc
 328              	.LFE47:
 330              		.align	2
 331              		.globl	_ZN4_sem9semSignalEPS_
 333              	_ZN4_sem9semSignalEPS_:
 334              	.LFB49:
GAS LISTING /tmp/ccDAIzsG.s 			page 10


  31:src/_sem.cpp  **** int _sem::semSignal(sem_t id){
 335              		.loc 1 31 30 is_stmt 1
 336              		.cfi_startproc
 337              	.LVL32:
  32:src/_sem.cpp  ****     if (id == nullptr) return -1;
 338              		.loc 1 32 5
 339 01d0 63060504 		beqz	a0,.L25
  33:src/_sem.cpp  ****     if (++id->init <= 0) id->deblock();
 340              		.loc 1 33 5
  33:src/_sem.cpp  ****     if (++id->init <= 0) id->deblock();
 341              		.loc 1 33 15 is_stmt 0
 342 01d4 83270500 		lw	a5,0(a0)
  33:src/_sem.cpp  ****     if (++id->init <= 0) id->deblock();
 343              		.loc 1 33 9
 344 01d8 9B871700 		addiw	a5,a5,1
 345 01dc 1B870700 		sext.w	a4,a5
  33:src/_sem.cpp  ****     if (++id->init <= 0) id->deblock();
 346              		.loc 1 33 20
 347 01e0 2320F500 		sw	a5,0(a0)
  33:src/_sem.cpp  ****     if (++id->init <= 0) id->deblock();
 348              		.loc 1 33 5
 349 01e4 6356E000 		blez	a4,.L31
  34:src/_sem.cpp  ****     return 0;
 350              		.loc 1 34 12
 351 01e8 13050000 		li	a0,0
 352              	.LVL33:
  35:src/_sem.cpp  **** }
 353              		.loc 1 35 1
 354 01ec 67800000 		ret
 355              	.LVL34:
 356              	.L31:
  31:src/_sem.cpp  **** int _sem::semSignal(sem_t id){
 357              		.loc 1 31 30 discriminator 1
 358 01f0 130101FF 		addi	sp,sp,-16
 359              		.cfi_def_cfa_offset 16
 360 01f4 23341100 		sd	ra,8(sp)
 361 01f8 23308100 		sd	s0,0(sp)
 362              		.cfi_offset 1, -8
 363              		.cfi_offset 8, -16
 364 01fc 13040101 		addi	s0,sp,16
 365              		.cfi_def_cfa 8, 0
  33:src/_sem.cpp  ****     if (++id->init <= 0) id->deblock();
 366              		.loc 1 33 26 is_stmt 1 discriminator 1
  33:src/_sem.cpp  ****     if (++id->init <= 0) id->deblock();
 367              		.loc 1 33 37 is_stmt 0 discriminator 1
 368 0200 97000000 		call	_ZN4_sem7deblockEv
 368      E7800000 
 369              	.LVL35:
  34:src/_sem.cpp  ****     return 0;
 370              		.loc 1 34 12 discriminator 1
 371 0208 13050000 		li	a0,0
  35:src/_sem.cpp  **** }
 372              		.loc 1 35 1 discriminator 1
 373 020c 83308100 		ld	ra,8(sp)
 374              		.cfi_restore 1
 375 0210 03340100 		ld	s0,0(sp)
 376              		.cfi_restore 8
GAS LISTING /tmp/ccDAIzsG.s 			page 11


 377              		.cfi_def_cfa 2, 16
 378 0214 13010101 		addi	sp,sp,16
 379              		.cfi_def_cfa_offset 0
 380 0218 67800000 		jr	ra
 381              	.LVL36:
 382              	.L25:
  32:src/_sem.cpp  ****     if (id == nullptr) return -1;
 383              		.loc 1 32 32
 384 021c 1305F0FF 		li	a0,-1
 385              	.LVL37:
 386 0220 67800000 		ret
 387              		.cfi_endproc
 388              	.LFE49:
 390              	.Letext0:
 391              		.file 4 "src/../h/../lib/hw.h"
 392              		.file 5 "src/../h/MemoryAllocator.h"
 393              		.file 6 "src/../h/Scheduler.h"
 394              		.file 7 "src/../h/syscall_c.h"
 395              		.file 8 "src/../h/_sem.h"
 396              		.file 9 "src/../h/../h/../h/syscall_cpp.h"
GAS LISTING /tmp/ccDAIzsG.s 			page 12


DEFINED SYMBOLS
                            *ABS*:0000000000000000 _sem.cpp
     /tmp/ccDAIzsG.s:9      .text:0000000000000000 _ZN4_sem7semOpenEj
     /tmp/ccDAIzsG.s:13     .text:0000000000000000 .L0 
     /tmp/ccDAIzsG.s:15     .text:0000000000000000 .L0 
     /tmp/ccDAIzsG.s:16     .text:0000000000000004 .L0 
     /tmp/ccDAIzsG.s:21     .text:0000000000000014 .L0 
     /tmp/ccDAIzsG.s:22     .text:0000000000000014 .L0 
     /tmp/ccDAIzsG.s:23     .text:0000000000000014 .L0 
     /tmp/ccDAIzsG.s:24     .text:0000000000000014 .L0 
     /tmp/ccDAIzsG.s:26     .text:0000000000000018 .L0 
     /tmp/ccDAIzsG.s:29     .text:000000000000001c .L0 
     /tmp/ccDAIzsG.s:30     .text:000000000000001c .L0 
     /tmp/ccDAIzsG.s:33     .text:0000000000000024 .L0 
     /tmp/ccDAIzsG.s:39     .text:0000000000000034 .L0 
     /tmp/ccDAIzsG.s:41     .text:0000000000000038 .L0 
     /tmp/ccDAIzsG.s:42     .text:0000000000000038 .L0 
     /tmp/ccDAIzsG.s:44     .text:000000000000003c .L0 
     /tmp/ccDAIzsG.s:45     .text:000000000000003c .L0 
     /tmp/ccDAIzsG.s:52     .text:0000000000000048 .L0 
     /tmp/ccDAIzsG.s:53     .text:0000000000000048 .L0 
     /tmp/ccDAIzsG.s:55     .text:000000000000004c .L0 
     /tmp/ccDAIzsG.s:60     .text:0000000000000050 .L0 
     /tmp/ccDAIzsG.s:63     .text:0000000000000054 .L0 
     /tmp/ccDAIzsG.s:64     .text:0000000000000054 .L0 
     /tmp/ccDAIzsG.s:66     .text:000000000000005c .L0 
     /tmp/ccDAIzsG.s:68     .text:0000000000000060 .L0 
     /tmp/ccDAIzsG.s:69     .text:0000000000000060 .L0 
     /tmp/ccDAIzsG.s:71     .text:0000000000000064 .L0 
     /tmp/ccDAIzsG.s:74     .text:0000000000000068 .L0 
     /tmp/ccDAIzsG.s:76     .text:000000000000006c .L0 
     /tmp/ccDAIzsG.s:78     .text:0000000000000070 .L0 
     /tmp/ccDAIzsG.s:84     .text:0000000000000070 _ZN4_sem5blockEv
     /tmp/ccDAIzsG.s:87     .text:0000000000000070 .L0 
     /tmp/ccDAIzsG.s:89     .text:0000000000000070 .L0 
     /tmp/ccDAIzsG.s:90     .text:0000000000000074 .L0 
     /tmp/ccDAIzsG.s:95     .text:0000000000000084 .L0 
     /tmp/ccDAIzsG.s:96     .text:0000000000000084 .L0 
     /tmp/ccDAIzsG.s:97     .text:0000000000000084 .L0 
     /tmp/ccDAIzsG.s:98     .text:0000000000000084 .L0 
     /tmp/ccDAIzsG.s:100    .text:0000000000000088 .L0 
     /tmp/ccDAIzsG.s:102    .text:0000000000000088 .L0 
     /tmp/ccDAIzsG.s:103    .text:0000000000000088 .L0 
     /tmp/ccDAIzsG.s:110    .text:0000000000000094 .L0 
     /tmp/ccDAIzsG.s:111    .text:0000000000000094 .L0 
     /tmp/ccDAIzsG.s:112    .text:0000000000000094 .L0 
     /tmp/ccDAIzsG.s:118    .text:000000000000009c .L0 
     /tmp/ccDAIzsG.s:119    .text:000000000000009c .L0 
     /tmp/ccDAIzsG.s:125    .text:00000000000000ac .L0 
     /tmp/ccDAIzsG.s:126    .text:00000000000000ac .L0 
     /tmp/ccDAIzsG.s:129    .text:00000000000000b4 .L0 
     /tmp/ccDAIzsG.s:131    .text:00000000000000b8 .L0 
     /tmp/ccDAIzsG.s:132    .text:00000000000000b8 .L0 
     /tmp/ccDAIzsG.s:137    .text:00000000000000c8 .L0 
     /tmp/ccDAIzsG.s:138    .text:00000000000000cc .L0 
     /tmp/ccDAIzsG.s:140    .text:00000000000000d0 .L0 
     /tmp/ccDAIzsG.s:141    .text:00000000000000d0 .L0 
GAS LISTING /tmp/ccDAIzsG.s 			page 13


     /tmp/ccDAIzsG.s:143    .text:00000000000000d4 .L0 
     /tmp/ccDAIzsG.s:146    .text:00000000000000d8 .L0 
     /tmp/ccDAIzsG.s:148    .text:00000000000000dc .L0 
     /tmp/ccDAIzsG.s:150    .text:00000000000000e0 .L0 
     /tmp/ccDAIzsG.s:156    .text:00000000000000e0 _ZN4_sem7semWaitEPS_
     /tmp/ccDAIzsG.s:159    .text:00000000000000e0 .L0 
     /tmp/ccDAIzsG.s:161    .text:00000000000000e0 .L0 
     /tmp/ccDAIzsG.s:162    .text:00000000000000e0 .L0 
     /tmp/ccDAIzsG.s:164    .text:00000000000000e4 .L0 
     /tmp/ccDAIzsG.s:165    .text:00000000000000e4 .L0 
     /tmp/ccDAIzsG.s:167    .text:00000000000000e8 .L0 
     /tmp/ccDAIzsG.s:169    .text:00000000000000ec .L0 
     /tmp/ccDAIzsG.s:171    .text:00000000000000f0 .L0 
     /tmp/ccDAIzsG.s:174    .text:00000000000000f8 .L0 
     /tmp/ccDAIzsG.s:177    .text:00000000000000fc .L0 
     /tmp/ccDAIzsG.s:181    .text:0000000000000100 .L0 
     /tmp/ccDAIzsG.s:182    .text:0000000000000104 .L0 
     /tmp/ccDAIzsG.s:185    .text:000000000000010c .L0 
     /tmp/ccDAIzsG.s:186    .text:000000000000010c .L0 
     /tmp/ccDAIzsG.s:188    .text:0000000000000110 .L0 
     /tmp/ccDAIzsG.s:190    .text:0000000000000110 .L0 
     /tmp/ccDAIzsG.s:191    .text:0000000000000110 .L0 
     /tmp/ccDAIzsG.s:194    .text:0000000000000118 .L0 
     /tmp/ccDAIzsG.s:196    .text:000000000000011c .L0 
     /tmp/ccDAIzsG.s:197    .text:0000000000000120 .L0 
     /tmp/ccDAIzsG.s:199    .text:0000000000000124 .L0 
     /tmp/ccDAIzsG.s:200    .text:0000000000000124 .L0 
     /tmp/ccDAIzsG.s:202    .text:0000000000000128 .L0 
     /tmp/ccDAIzsG.s:207    .text:000000000000012c .L0 
     /tmp/ccDAIzsG.s:210    .text:0000000000000134 .L0 
     /tmp/ccDAIzsG.s:216    .text:0000000000000134 _ZN4_sem7deblockEv
     /tmp/ccDAIzsG.s:219    .text:0000000000000134 .L0 
     /tmp/ccDAIzsG.s:221    .text:0000000000000134 .L0 
     /tmp/ccDAIzsG.s:222    .text:0000000000000138 .L0 
     /tmp/ccDAIzsG.s:225    .text:0000000000000140 .L0 
     /tmp/ccDAIzsG.s:226    .text:0000000000000140 .L0 
     /tmp/ccDAIzsG.s:228    .text:0000000000000144 .L0 
     /tmp/ccDAIzsG.s:230    .text:0000000000000144 .L0 
     /tmp/ccDAIzsG.s:231    .text:0000000000000144 .L0 
     /tmp/ccDAIzsG.s:238    .text:0000000000000150 .L0 
     /tmp/ccDAIzsG.s:239    .text:0000000000000150 .L0 
     /tmp/ccDAIzsG.s:240    .text:0000000000000150 .L0 
     /tmp/ccDAIzsG.s:245    .text:0000000000000154 .L0 
     /tmp/ccDAIzsG.s:246    .text:0000000000000154 .L0 
     /tmp/ccDAIzsG.s:249    .text:000000000000015c .L0 
     /tmp/ccDAIzsG.s:250    .text:0000000000000160 .L0 
     /tmp/ccDAIzsG.s:252    .text:0000000000000164 .L0 
     /tmp/ccDAIzsG.s:253    .text:0000000000000164 .L0 
     /tmp/ccDAIzsG.s:255    .text:0000000000000168 .L0 
     /tmp/ccDAIzsG.s:257    .text:000000000000016c .L0 
     /tmp/ccDAIzsG.s:263    .text:000000000000016c _ZN4_sem8semCloseEPS_
     /tmp/ccDAIzsG.s:266    .text:000000000000016c .L0 
     /tmp/ccDAIzsG.s:268    .text:000000000000016c .L0 
     /tmp/ccDAIzsG.s:269    .text:0000000000000170 .L0 
     /tmp/ccDAIzsG.s:273    .text:000000000000017c .L0 
     /tmp/ccDAIzsG.s:274    .text:000000000000017c .L0 
     /tmp/ccDAIzsG.s:275    .text:000000000000017c .L0 
GAS LISTING /tmp/ccDAIzsG.s 			page 14


     /tmp/ccDAIzsG.s:277    .text:0000000000000180 .L0 
     /tmp/ccDAIzsG.s:280    .text:0000000000000184 .L0 
     /tmp/ccDAIzsG.s:284    .text:0000000000000188 .L0 
     /tmp/ccDAIzsG.s:285    .text:0000000000000188 .L0 
     /tmp/ccDAIzsG.s:286    .text:0000000000000188 .L0 
     /tmp/ccDAIzsG.s:288    .text:000000000000018c .L0 
     /tmp/ccDAIzsG.s:290    .text:0000000000000190 .L0 
     /tmp/ccDAIzsG.s:292    .text:0000000000000194 .L0 
     /tmp/ccDAIzsG.s:293    .text:0000000000000194 .L0 
     /tmp/ccDAIzsG.s:297    .text:00000000000001a0 .L0 
     /tmp/ccDAIzsG.s:300    .text:00000000000001a4 .L0 
     /tmp/ccDAIzsG.s:301    .text:00000000000001a4 .L0 
     /tmp/ccDAIzsG.s:305    .text:00000000000001b0 .L0 
     /tmp/ccDAIzsG.s:306    .text:00000000000001b0 .L0 
     /tmp/ccDAIzsG.s:309    .text:00000000000001b4 .L0 
     /tmp/ccDAIzsG.s:310    .text:00000000000001b8 .L0 
     /tmp/ccDAIzsG.s:311    .text:00000000000001b8 .L0 
     /tmp/ccDAIzsG.s:313    .text:00000000000001bc .L0 
     /tmp/ccDAIzsG.s:314    .text:00000000000001bc .L0 
     /tmp/ccDAIzsG.s:316    .text:00000000000001c0 .L0 
     /tmp/ccDAIzsG.s:319    .text:00000000000001c4 .L0 
     /tmp/ccDAIzsG.s:323    .text:00000000000001c8 .L0 
     /tmp/ccDAIzsG.s:325    .text:00000000000001c8 .L0 
     /tmp/ccDAIzsG.s:327    .text:00000000000001d0 .L0 
     /tmp/ccDAIzsG.s:333    .text:00000000000001d0 _ZN4_sem9semSignalEPS_
     /tmp/ccDAIzsG.s:336    .text:00000000000001d0 .L0 
     /tmp/ccDAIzsG.s:338    .text:00000000000001d0 .L0 
     /tmp/ccDAIzsG.s:339    .text:00000000000001d0 .L0 
     /tmp/ccDAIzsG.s:341    .text:00000000000001d4 .L0 
     /tmp/ccDAIzsG.s:342    .text:00000000000001d4 .L0 
     /tmp/ccDAIzsG.s:344    .text:00000000000001d8 .L0 
     /tmp/ccDAIzsG.s:347    .text:00000000000001e0 .L0 
     /tmp/ccDAIzsG.s:349    .text:00000000000001e4 .L0 
     /tmp/ccDAIzsG.s:351    .text:00000000000001e8 .L0 
     /tmp/ccDAIzsG.s:354    .text:00000000000001ec .L0 
     /tmp/ccDAIzsG.s:358    .text:00000000000001f0 .L0 
     /tmp/ccDAIzsG.s:359    .text:00000000000001f4 .L0 
     /tmp/ccDAIzsG.s:362    .text:00000000000001fc .L0 
     /tmp/ccDAIzsG.s:363    .text:00000000000001fc .L0 
     /tmp/ccDAIzsG.s:365    .text:0000000000000200 .L0 
     /tmp/ccDAIzsG.s:367    .text:0000000000000200 .L0 
     /tmp/ccDAIzsG.s:368    .text:0000000000000200 .L0 
     /tmp/ccDAIzsG.s:371    .text:0000000000000208 .L0 
     /tmp/ccDAIzsG.s:373    .text:000000000000020c .L0 
     /tmp/ccDAIzsG.s:374    .text:0000000000000210 .L0 
     /tmp/ccDAIzsG.s:376    .text:0000000000000214 .L0 
     /tmp/ccDAIzsG.s:377    .text:0000000000000214 .L0 
     /tmp/ccDAIzsG.s:379    .text:0000000000000218 .L0 
     /tmp/ccDAIzsG.s:384    .text:000000000000021c .L0 
     /tmp/ccDAIzsG.s:387    .text:0000000000000224 .L0 
     /tmp/ccDAIzsG.s:397    .text:0000000000000224 .L0 
     /tmp/ccDAIzsG.s:103    .text:0000000000000088 .L0 
     /tmp/ccDAIzsG.s:62     .text:0000000000000054 .L1
     /tmp/ccDAIzsG.s:205    .text:000000000000012c .L8
     /tmp/ccDAIzsG.s:179    .text:0000000000000100 .L14
     /tmp/ccDAIzsG.s:322    .text:00000000000001c8 .L21
     /tmp/ccDAIzsG.s:298    .text:00000000000001a4 .L19
GAS LISTING /tmp/ccDAIzsG.s 			page 15


     /tmp/ccDAIzsG.s:282    .text:0000000000000188 .L20
     /tmp/ccDAIzsG.s:307    .text:00000000000001b4 .L18
     /tmp/ccDAIzsG.s:382    .text:000000000000021c .L25
     /tmp/ccDAIzsG.s:356    .text:00000000000001f0 .L31
     /tmp/ccDAIzsG.s:1633   .debug_abbrev:0000000000000000 .Ldebug_abbrev0
     /tmp/ccDAIzsG.s:3100   .debug_str:00000000000005e0 .LASF108
     /tmp/ccDAIzsG.s:2908   .debug_str:000000000000003a .LASF109
     /tmp/ccDAIzsG.s:2944   .debug_str:000000000000013a .LASF110
     /tmp/ccDAIzsG.s:5      .text:0000000000000000 .Ltext0
     /tmp/ccDAIzsG.s:390    .text:0000000000000224 .Letext0
     /tmp/ccDAIzsG.s:2898   .debug_line:0000000000000000 .Ldebug_line0
     /tmp/ccDAIzsG.s:2986   .debug_str:000000000000029b .LASF0
     /tmp/ccDAIzsG.s:3006   .debug_str:0000000000000348 .LASF1
     /tmp/ccDAIzsG.s:3054   .debug_str:00000000000004b6 .LASF2
     /tmp/ccDAIzsG.s:3062   .debug_str:00000000000004f3 .LASF4
     /tmp/ccDAIzsG.s:2988   .debug_str:00000000000002a8 .LASF3
     /tmp/ccDAIzsG.s:2910   .debug_str:0000000000000047 .LASF5
     /tmp/ccDAIzsG.s:3040   .debug_str:0000000000000431 .LASF6
     /tmp/ccDAIzsG.s:2996   .debug_str:000000000000030b .LASF7
     /tmp/ccDAIzsG.s:2976   .debug_str:0000000000000261 .LASF8
     /tmp/ccDAIzsG.s:2980   .debug_str:0000000000000281 .LASF9
     /tmp/ccDAIzsG.s:2940   .debug_str:0000000000000126 .LASF10
     /tmp/ccDAIzsG.s:2968   .debug_str:000000000000023b .LASF11
     /tmp/ccDAIzsG.s:2946   .debug_str:0000000000000157 .LASF12
     /tmp/ccDAIzsG.s:2938   .debug_str:0000000000000116 .LASF13
     /tmp/ccDAIzsG.s:3080   .debug_str:0000000000000586 .LASF14
     /tmp/ccDAIzsG.s:2962   .debug_str:00000000000001f3 .LASF15
     /tmp/ccDAIzsG.s:3072   .debug_str:0000000000000543 .LASF16
     /tmp/ccDAIzsG.s:3036   .debug_str:0000000000000419 .LASF25
     /tmp/ccDAIzsG.s:3096   .debug_str:00000000000005cd .LASF20
     /tmp/ccDAIzsG.s:2942   .debug_str:0000000000000135 .LASF17
     /tmp/ccDAIzsG.s:2916   .debug_str:0000000000000088 .LASF18
     /tmp/ccDAIzsG.s:3004   .debug_str:0000000000000343 .LASF19
     /tmp/ccDAIzsG.s:2924   .debug_str:00000000000000a4 .LASF21
     /tmp/ccDAIzsG.s:2914   .debug_str:000000000000006f .LASF30
     /tmp/ccDAIzsG.s:3002   .debug_str:0000000000000333 .LASF22
     /tmp/ccDAIzsG.s:3068   .debug_str:000000000000051e .LASF23
     /tmp/ccDAIzsG.s:2920   .debug_str:0000000000000095 .LASF24
     /tmp/ccDAIzsG.s:3070   .debug_str:0000000000000528 .LASF27
     /tmp/ccDAIzsG.s:3056   .debug_str:00000000000004c4 .LASF26
     /tmp/ccDAIzsG.s:3114   .debug_str:00000000000006f6 .LASF28
     /tmp/ccDAIzsG.s:3124   .debug_str:000000000000075a .LASF35
     /tmp/ccDAIzsG.s:3022   .debug_str:00000000000003b8 .LASF64
     /tmp/ccDAIzsG.s:3020   .debug_str:00000000000003ae .LASF49
     /tmp/ccDAIzsG.s:2912   .debug_str:000000000000004e .LASF51
     /tmp/ccDAIzsG.s:3086   .debug_str:00000000000005a4 .LASF29
     /tmp/ccDAIzsG.s:2966   .debug_str:000000000000021a .LASF31
     /tmp/ccDAIzsG.s:2974   .debug_str:0000000000000257 .LASF32
     /tmp/ccDAIzsG.s:3112   .debug_str:00000000000006f1 .LASF33
     /tmp/ccDAIzsG.s:3000   .debug_str:000000000000032e .LASF34
     /tmp/ccDAIzsG.s:3134   .debug_str:0000000000000793 .LASF111
     /tmp/ccDAIzsG.s:2994   .debug_str:00000000000002ef .LASF112
     /tmp/ccDAIzsG.s:3074   .debug_str:0000000000000559 .LASF36
     /tmp/ccDAIzsG.s:3024   .debug_str:00000000000003dc .LASF37
     /tmp/ccDAIzsG.s:2918   .debug_str:000000000000008d .LASF38
     /tmp/ccDAIzsG.s:3026   .debug_str:00000000000003e1 .LASF113
     /tmp/ccDAIzsG.s:2934   .debug_str:00000000000000e0 .LASF39
GAS LISTING /tmp/ccDAIzsG.s 			page 16


     /tmp/ccDAIzsG.s:3032   .debug_str:0000000000000407 .LASF114
     /tmp/ccDAIzsG.s:2904   .debug_str:0000000000000025 .LASF40
     /tmp/ccDAIzsG.s:3138   .debug_str:00000000000007af .LASF41
     /tmp/ccDAIzsG.s:3104   .debug_str:00000000000006b5 .LASF42
     /tmp/ccDAIzsG.s:3084   .debug_str:000000000000059b .LASF43
     /tmp/ccDAIzsG.s:3030   .debug_str:00000000000003ff .LASF44
     /tmp/ccDAIzsG.s:3106   .debug_str:00000000000006bf .LASF45
     /tmp/ccDAIzsG.s:2930   .debug_str:00000000000000c2 .LASF115
     /tmp/ccDAIzsG.s:3048   .debug_str:0000000000000477 .LASF116
     /tmp/ccDAIzsG.s:3064   .debug_str:00000000000004fa .LASF46
     /tmp/ccDAIzsG.s:3060   .debug_str:00000000000004e8 .LASF47
     /tmp/ccDAIzsG.s:3128   .debug_str:000000000000077c .LASF48
     /tmp/ccDAIzsG.s:3082   .debug_str:0000000000000592 .LASF50
     /tmp/ccDAIzsG.s:2998   .debug_str:000000000000031e .LASF52
     /tmp/ccDAIzsG.s:3088   .debug_str:00000000000005ad .LASF53
     /tmp/ccDAIzsG.s:3076   .debug_str:000000000000055e .LASF54
     /tmp/ccDAIzsG.s:2926   .debug_str:00000000000000ac .LASF55
     /tmp/ccDAIzsG.s:3116   .debug_str:0000000000000712 .LASF56
     /tmp/ccDAIzsG.s:3122   .debug_str:0000000000000750 .LASF57
     /tmp/ccDAIzsG.s:3012   .debug_str:000000000000036e .LASF58
     /tmp/ccDAIzsG.s:3090   .debug_str:00000000000005b8 .LASF59
     /tmp/ccDAIzsG.s:3058   .debug_str:00000000000004ce .LASF60
     /tmp/ccDAIzsG.s:3010   .debug_str:0000000000000361 .LASF61
     /tmp/ccDAIzsG.s:2936   .debug_str:00000000000000f9 .LASF62
     /tmp/ccDAIzsG.s:3028   .debug_str:00000000000003e9 .LASF68
     /tmp/ccDAIzsG.s:2960   .debug_str:00000000000001ce .LASF70
     /tmp/ccDAIzsG.s:3098   .debug_str:00000000000005d5 .LASF63
     /tmp/ccDAIzsG.s:3016   .debug_str:000000000000038c .LASF65
     /tmp/ccDAIzsG.s:3078   .debug_str:0000000000000579 .LASF66
     /tmp/ccDAIzsG.s:3108   .debug_str:00000000000006c7 .LASF67
     /tmp/ccDAIzsG.s:3008   .debug_str:000000000000035b .LASF69
     /tmp/ccDAIzsG.s:2902   .debug_str:0000000000000011 .LASF71
     /tmp/ccDAIzsG.s:2956   .debug_str:00000000000001ab .LASF72
     /tmp/ccDAIzsG.s:2952   .debug_str:000000000000018c .LASF73
     /tmp/ccDAIzsG.s:2950   .debug_str:000000000000017e .LASF74
     /tmp/ccDAIzsG.s:2990   .debug_str:00000000000002ba .LASF75
     /tmp/ccDAIzsG.s:3132   .debug_str:000000000000078d .LASF76
     /tmp/ccDAIzsG.s:3044   .debug_str:0000000000000453 .LASF77
     /tmp/ccDAIzsG.s:2972   .debug_str:000000000000024f .LASF78
     /tmp/ccDAIzsG.s:3142   .debug_str:00000000000007c8 .LASF79
     /tmp/ccDAIzsG.s:3052   .debug_str:00000000000004a6 .LASF80
     /tmp/ccDAIzsG.s:2932   .debug_str:00000000000000d0 .LASF81
     /tmp/ccDAIzsG.s:3046   .debug_str:0000000000000467 .LASF82
     /tmp/ccDAIzsG.s:2906   .debug_str:000000000000002a .LASF83
     /tmp/ccDAIzsG.s:3102   .debug_str:00000000000006a4 .LASF84
     /tmp/ccDAIzsG.s:3140   .debug_str:00000000000007b5 .LASF117
     /tmp/ccDAIzsG.s:2900   .debug_str:0000000000000000 .LASF118
     /tmp/ccDAIzsG.s:3130   .debug_str:0000000000000787 .LASF85
     /tmp/ccDAIzsG.s:3092   .debug_str:00000000000005c3 .LASF86
     /tmp/ccDAIzsG.s:2954   .debug_str:00000000000001a3 .LASF87
     /tmp/ccDAIzsG.s:3066   .debug_str:000000000000050b .LASF88
     /tmp/ccDAIzsG.s:2992   .debug_str:00000000000002e6 .LASF89
     /tmp/ccDAIzsG.s:3126   .debug_str:0000000000000766 .LASF90
     /tmp/ccDAIzsG.s:3038   .debug_str:0000000000000429 .LASF91
     /tmp/ccDAIzsG.s:3144   .debug_str:00000000000007d5 .LASF92
     /tmp/ccDAIzsG.s:2928   .debug_str:00000000000000b8 .LASF93
     /tmp/ccDAIzsG.s:2948   .debug_str:0000000000000167 .LASF94
GAS LISTING /tmp/ccDAIzsG.s 			page 17


     /tmp/ccDAIzsG.s:2984   .debug_str:0000000000000295 .LASF95
     /tmp/ccDAIzsG.s:2964   .debug_str:0000000000000209 .LASF96
     /tmp/ccDAIzsG.s:3136   .debug_str:00000000000007a7 .LASF97
     /tmp/ccDAIzsG.s:3118   .debug_str:000000000000072d .LASF98
     /tmp/ccDAIzsG.s:3034   .debug_str:000000000000040c .LASF99
     /tmp/ccDAIzsG.s:2922   .debug_str:000000000000009f .LASF100
     /tmp/ccDAIzsG.s:3042   .debug_str:0000000000000444 .LASF101
     /tmp/ccDAIzsG.s:3094   .debug_str:00000000000005c8 .LASF102
     /tmp/ccDAIzsG.s:3014   .debug_str:0000000000000387 .LASF103
     /tmp/ccDAIzsG.s:3018   .debug_str:00000000000003a6 .LASF104
     /tmp/ccDAIzsG.s:3050   .debug_str:0000000000000494 .LASF119
     /tmp/ccDAIzsG.s:2958   .debug_str:00000000000001b4 .LASF120
     /tmp/ccDAIzsG.s:3120   .debug_str:0000000000000740 .LASF105
     /tmp/ccDAIzsG.s:217    .text:0000000000000134 .LFB51
     /tmp/ccDAIzsG.s:258    .text:000000000000016c .LFE51
     /tmp/ccDAIzsG.s:2970   .debug_str:000000000000024a .LASF106
     /tmp/ccDAIzsG.s:2687   .debug_loc:0000000000000000 .LLST8
     /tmp/ccDAIzsG.s:2701   .debug_loc:0000000000000039 .LLST9
     /tmp/ccDAIzsG.s:236    .text:0000000000000150 .LBB13
     /tmp/ccDAIzsG.s:243    .text:0000000000000154 .LBE13
     /tmp/ccDAIzsG.s:2708   .debug_loc:000000000000005c .LLST10
     /tmp/ccDAIzsG.s:2716   .debug_loc:0000000000000080 .LLST11
     /tmp/ccDAIzsG.s:234    .text:0000000000000150 .LVL23
     /tmp/ccDAIzsG.s:247    .text:000000000000015c .LVL25
     /tmp/ccDAIzsG.s:85     .text:0000000000000070 .LFB50
     /tmp/ccDAIzsG.s:151    .text:00000000000000e0 .LFE50
     /tmp/ccDAIzsG.s:2723   .debug_loc:00000000000000a3 .LLST3
     /tmp/ccDAIzsG.s:2737   .debug_loc:00000000000000dc .LLST4
     /tmp/ccDAIzsG.s:107    .text:0000000000000094 .LBB11
     /tmp/ccDAIzsG.s:116    .text:000000000000009c .LBE11
     /tmp/ccDAIzsG.s:2744   .debug_loc:00000000000000ff .LLST5
     /tmp/ccDAIzsG.s:2752   .debug_loc:0000000000000123 .LLST6
     /tmp/ccDAIzsG.s:123    .text:00000000000000ac .LVL11
     /tmp/ccDAIzsG.s:127    .text:00000000000000b4 .LVL12
     /tmp/ccDAIzsG.s:135    .text:00000000000000c8 .LVL13
     /tmp/ccDAIzsG.s:334    .text:00000000000001d0 .LFB49
     /tmp/ccDAIzsG.s:388    .text:0000000000000224 .LFE49
     /tmp/ccDAIzsG.s:2759   .debug_loc:0000000000000146 .LLST13
     /tmp/ccDAIzsG.s:369    .text:0000000000000208 .LVL35
     /tmp/ccDAIzsG.s:157    .text:00000000000000e0 .LFB48
     /tmp/ccDAIzsG.s:211    .text:0000000000000134 .LFE48
     /tmp/ccDAIzsG.s:2795   .debug_loc:00000000000001d1 .LLST7
     /tmp/ccDAIzsG.s:192    .text:0000000000000118 .LVL18
     /tmp/ccDAIzsG.s:264    .text:000000000000016c .LFB47
     /tmp/ccDAIzsG.s:328    .text:00000000000001d0 .LFE47
     /tmp/ccDAIzsG.s:3146   .debug_str:00000000000007ea .LASF107
     /tmp/ccDAIzsG.s:2831   .debug_loc:000000000000025c .LLST12
     /tmp/ccDAIzsG.s:295    .text:00000000000001a0 .LVL28
     /tmp/ccDAIzsG.s:303    .text:00000000000001b0 .LVL29
     /tmp/ccDAIzsG.s:10     .text:0000000000000000 .LFB46
     /tmp/ccDAIzsG.s:79     .text:0000000000000070 .LFE46
     /tmp/ccDAIzsG.s:2853   .debug_loc:00000000000002bb .LLST0
     /tmp/ccDAIzsG.s:2867   .debug_loc:00000000000002f4 .LLST1
     /tmp/ccDAIzsG.s:48     .text:0000000000000048 .LBB9
     /tmp/ccDAIzsG.s:58     .text:0000000000000050 .LBE9
     /tmp/ccDAIzsG.s:2878   .debug_loc:000000000000032a .LLST2
     /tmp/ccDAIzsG.s:31     .text:0000000000000024 .LVL1
GAS LISTING /tmp/ccDAIzsG.s 			page 18


     /tmp/ccDAIzsG.s:35     .text:0000000000000030 .LVL2
     /tmp/ccDAIzsG.s:47     .text:0000000000000048 .LVL4
     /tmp/ccDAIzsG.s:2978   .debug_str:0000000000000271 .LASF121
     /tmp/ccDAIzsG.s:2982   .debug_str:000000000000028f .LASF122
     /tmp/ccDAIzsG.s:3110   .debug_str:00000000000006eb .LASF123
     /tmp/ccDAIzsG.s:220    .text:0000000000000134 .LVL21
     /tmp/ccDAIzsG.s:232    .text:0000000000000148 .LVL22
     /tmp/ccDAIzsG.s:241    .text:0000000000000154 .LVL24
     /tmp/ccDAIzsG.s:88     .text:0000000000000070 .LVL7
     /tmp/ccDAIzsG.s:121    .text:00000000000000a4 .LVL10
     /tmp/ccDAIzsG.s:105    .text:0000000000000094 .LVL8
     /tmp/ccDAIzsG.s:144    .text:00000000000000d4 .LVL14
     /tmp/ccDAIzsG.s:114    .text:000000000000009c .LVL9
     /tmp/ccDAIzsG.s:337    .text:00000000000001d0 .LVL32
     /tmp/ccDAIzsG.s:352    .text:00000000000001ec .LVL33
     /tmp/ccDAIzsG.s:355    .text:00000000000001f0 .LVL34
     /tmp/ccDAIzsG.s:381    .text:000000000000021c .LVL36
     /tmp/ccDAIzsG.s:385    .text:0000000000000220 .LVL37
     /tmp/ccDAIzsG.s:160    .text:00000000000000e0 .LVL15
     /tmp/ccDAIzsG.s:175    .text:00000000000000fc .LVL16
     /tmp/ccDAIzsG.s:178    .text:0000000000000100 .LVL17
     /tmp/ccDAIzsG.s:204    .text:000000000000012c .LVL19
     /tmp/ccDAIzsG.s:208    .text:0000000000000130 .LVL20
     /tmp/ccDAIzsG.s:267    .text:000000000000016c .LVL26
     /tmp/ccDAIzsG.s:281    .text:0000000000000188 .LVL27
     /tmp/ccDAIzsG.s:317    .text:00000000000001c0 .LVL30
     /tmp/ccDAIzsG.s:321    .text:00000000000001c8 .LVL31
     /tmp/ccDAIzsG.s:14     .text:0000000000000000 .LVL0
     /tmp/ccDAIzsG.s:37     .text:0000000000000034 .LVL3
     /tmp/ccDAIzsG.s:72     .text:0000000000000064 .LVL6
     /tmp/ccDAIzsG.s:56     .text:0000000000000050 .LVL5
     /tmp/ccDAIzsG.s:398    .debug_info:0000000000000000 .Ldebug_info0

UNDEFINED SYMBOLS
_ZN15MemoryAllocator11getInstanceEv
_ZN15MemoryAllocator9mem_allocEm
_Znwm
_ZN7_thread7runningE
_ZN7Blocked3putEP7_thread
_ZN9Scheduler3getEv
_ZN7_thread13contextSwitchEPNS_7ContextES1_
_ZN7Blocked3getEv
_ZN9Scheduler3putEP7_thread
_ZN15MemoryAllocator8mem_freeEPv
