GAS LISTING /tmp/cc34eXE9.s 			page 1


   1              		.file	"_thread.cpp"
   2              		.option pic
   3              		.option norelax
   4              		.text
   5              	.Ltext0:
   6              		.align	2
   7              		.globl	_ZN7_thread10threadExitEv
   9              	_ZN7_thread10threadExitEv:
  10              	.LFB40:
  11              		.file 1 "src/_thread.cpp"
   1:src/_thread.cpp **** //
   2:src/_thread.cpp **** // Created by os on 6/21/22.
   3:src/_thread.cpp **** 
   4:src/_thread.cpp **** #include "../h/_thread.h"
   5:src/_thread.cpp **** 
   6:src/_thread.cpp **** 
   7:src/_thread.cpp **** _thread *_thread::running = nullptr;
   8:src/_thread.cpp **** 
   9:src/_thread.cpp **** uint64 _thread::timeSliceCounter = 0;
  10:src/_thread.cpp **** 
  11:src/_thread.cpp **** int _thread::threadExit(){
  12              		.loc 1 11 26
  13              		.cfi_startproc
  14 0000 130101FF 		addi	sp,sp,-16
  15              		.cfi_def_cfa_offset 16
  16 0004 23348100 		sd	s0,8(sp)
  17              		.cfi_offset 8, -8
  18 0008 13040101 		addi	s0,sp,16
  19              		.cfi_def_cfa 8, 0
  12:src/_thread.cpp ****     if (_thread::running == nullptr ) return -1;
  20              		.loc 1 12 5
  21              		.loc 1 12 26 is_stmt 0
  22 000c 97070000 		ld	a5,.LANCHOR0
  22      83B70700 
  23              		.loc 1 12 5
  24 0014 638E0700 		beqz	a5,.L3
  13:src/_thread.cpp ****     _thread::running->setFinished(true);
  25              		.loc 1 13 5 is_stmt 1
  26              	.LVL0:
  27              	.LBB10:
  28              	.LBB11:
  29              		.file 2 "src/../h/_thread.h"
   1:src/../h/_thread.h **** //
   2:src/../h/_thread.h **** // Created by os on 6/21/22.
   3:src/../h/_thread.h **** //
   4:src/../h/_thread.h **** 
   5:src/../h/_thread.h **** #ifndef OS_PROJEKAT__THREAD_H
   6:src/../h/_thread.h **** #define OS_PROJEKAT__THREAD_H
   7:src/../h/_thread.h **** 
   8:src/../h/_thread.h **** //
   9:src/../h/_thread.h **** // Created by os on 6/17/22.
  10:src/../h/_thread.h **** //
  11:src/../h/_thread.h **** 
  12:src/../h/_thread.h **** #include "../lib/hw.h"
  13:src/../h/_thread.h **** #include "Scheduler.h"
  14:src/../h/_thread.h **** #include "riscv.h"
  15:src/../h/_thread.h **** #include "../h/syscall_cpp.h"
GAS LISTING /tmp/cc34eXE9.s 			page 2


  16:src/../h/_thread.h **** 
  17:src/../h/_thread.h **** class _thread {
  18:src/../h/_thread.h **** public:
  19:src/../h/_thread.h ****     friend class _sem;
  20:src/../h/_thread.h ****     using Body = void (*)(void*);
  21:src/../h/_thread.h **** private:
  22:src/../h/_thread.h ****     _thread(Body body, uint64 timeSlice, void* arg) :
  23:src/../h/_thread.h ****             body(body),
  24:src/../h/_thread.h ****             stack(body != nullptr ? new uint64[STACK_SIZE] : nullptr),
  25:src/../h/_thread.h ****             timeSlice(timeSlice),
  26:src/../h/_thread.h ****             finished(false),
  27:src/../h/_thread.h ****             blocked(false),
  28:src/../h/_thread.h ****             arg(arg),
  29:src/../h/_thread.h ****             context({(uint64) &threadWrapper,
  30:src/../h/_thread.h ****                      stack != nullptr ? (uint64) &stack[STACK_SIZE] : 0
  31:src/../h/_thread.h ****                     })
  32:src/../h/_thread.h **** 
  33:src/../h/_thread.h ****     {
  34:src/../h/_thread.h ****         if (body != nullptr) { Scheduler::put(this); }
  35:src/../h/_thread.h ****     }
  36:src/../h/_thread.h **** 
  37:src/../h/_thread.h ****     struct Context
  38:src/../h/_thread.h ****     {
  39:src/../h/_thread.h ****         uint64 ra;
  40:src/../h/_thread.h ****         uint64 sp;
  41:src/../h/_thread.h ****     };
  42:src/../h/_thread.h **** 
  43:src/../h/_thread.h ****     Body body;
  44:src/../h/_thread.h ****     uint64 *stack;
  45:src/../h/_thread.h ****     uint64 timeSlice;
  46:src/../h/_thread.h ****     bool finished;
  47:src/../h/_thread.h ****     bool blocked;
  48:src/../h/_thread.h ****     void* arg;
  49:src/../h/_thread.h ****     Context context;
  50:src/../h/_thread.h **** 
  51:src/../h/_thread.h ****     friend class Riscv;
  52:src/../h/_thread.h **** 
  53:src/../h/_thread.h ****     static void threadWrapper();
  54:src/../h/_thread.h **** 
  55:src/../h/_thread.h **** 
  56:src/../h/_thread.h ****     static uint64 timeSliceCounter;
  57:src/../h/_thread.h **** 
  58:src/../h/_thread.h ****     static uint64 constexpr STACK_SIZE = DEFAULT_STACK_SIZE;
  59:src/../h/_thread.h ****     static uint64 constexpr TIME_SLICE = DEFAULT_TIME_SLICE;
  60:src/../h/_thread.h **** 
  61:src/../h/_thread.h **** 
  62:src/../h/_thread.h **** public:
  63:src/../h/_thread.h ****     ~_thread() { MemoryAllocator::mem_free((char*)stack-STACK_SIZE); }
  64:src/../h/_thread.h **** 
  65:src/../h/_thread.h ****     bool isFinished() const { return finished; }
  66:src/../h/_thread.h **** 
  67:src/../h/_thread.h ****     void setFinished(bool value) { finished = value; }
  30              		.loc 2 67 36
  31              		.loc 2 67 45 is_stmt 0
  32 0018 13071000 		li	a4,1
  33 001c 238CE700 		sb	a4,24(a5)
  34              	.LVL1:
GAS LISTING /tmp/cc34eXE9.s 			page 3


  35              	.LBE11:
  36              	.LBE10:
  14:src/_thread.cpp ****     return 0;
  37              		.loc 1 14 5 is_stmt 1
  38              		.loc 1 14 12 is_stmt 0
  39 0020 13050000 		li	a0,0
  40              	.L2:
  15:src/_thread.cpp **** }
  41              		.loc 1 15 1
  42 0024 03348100 		ld	s0,8(sp)
  43              		.cfi_remember_state
  44              		.cfi_restore 8
  45              		.cfi_def_cfa 2, 16
  46 0028 13010101 		addi	sp,sp,16
  47              		.cfi_def_cfa_offset 0
  48 002c 67800000 		jr	ra
  49              	.L3:
  50              		.cfi_restore_state
  12:src/_thread.cpp ****     _thread::running->setFinished(true);
  51              		.loc 1 12 47
  52 0030 1305F0FF 		li	a0,-1
  53 0034 6FF01FFF 		j	.L2
  54              		.cfi_endproc
  55              	.LFE40:
  57              		.align	2
  58              		.globl	_ZN7_thread8dispatchEv
  60              	_ZN7_thread8dispatchEv:
  61              	.LFB43:
  16:src/_thread.cpp **** 
  17:src/_thread.cpp **** _thread *_thread::createThread(Body body, void* arg){
  18:src/_thread.cpp **** 
  19:src/_thread.cpp ****     _thread* ret = (_thread*)MemoryAllocator::getInstance()->mem_alloc((sizeof(_thread) + MEM_BLOCK
  20:src/_thread.cpp ****     if (ret == nullptr) return ret;
  21:src/_thread.cpp **** 
  22:src/_thread.cpp ****     ret->body = body;
  23:src/_thread.cpp ****     ret->stack = static_cast<uint64 *>(body != nullptr ? _thread::operator new[](STACK_SIZE * sizeo
  24:src/_thread.cpp ****     ret->timeSlice = TIME_SLICE;
  25:src/_thread.cpp ****     ret->finished = false;
  26:src/_thread.cpp ****     ret->blocked = false;
  27:src/_thread.cpp ****     ret->arg = arg;
  28:src/_thread.cpp ****     ret->context = {
  29:src/_thread.cpp ****             (uint64) &threadWrapper,
  30:src/_thread.cpp ****             ret->stack != nullptr ? (uint64) &(ret->stack[STACK_SIZE]): 0
  31:src/_thread.cpp ****     };
  32:src/_thread.cpp **** 
  33:src/_thread.cpp ****     return ret;
  34:src/_thread.cpp **** }
  35:src/_thread.cpp **** 
  36:src/_thread.cpp **** void _thread::yield()
  37:src/_thread.cpp **** {
  38:src/_thread.cpp **** 
  39:src/_thread.cpp ****     Riscv::pushRegisters();
  40:src/_thread.cpp **** 
  41:src/_thread.cpp ****     _thread::dispatch();
  42:src/_thread.cpp **** 
  43:src/_thread.cpp ****     Riscv::popRegisters();
  44:src/_thread.cpp ****     //thread_dispatch();
GAS LISTING /tmp/cc34eXE9.s 			page 4


  45:src/_thread.cpp **** 
  46:src/_thread.cpp **** }
  47:src/_thread.cpp **** 
  48:src/_thread.cpp **** void _thread::dispatch()
  49:src/_thread.cpp **** {
  62              		.loc 1 49 1 is_stmt 1
  63              		.cfi_startproc
  64 0038 130101FE 		addi	sp,sp,-32
  65              		.cfi_def_cfa_offset 32
  66 003c 233C1100 		sd	ra,24(sp)
  67 0040 23388100 		sd	s0,16(sp)
  68 0044 23349100 		sd	s1,8(sp)
  69              		.cfi_offset 1, -8
  70              		.cfi_offset 8, -16
  71              		.cfi_offset 9, -24
  72 0048 13040102 		addi	s0,sp,32
  73              		.cfi_def_cfa 8, 0
  50:src/_thread.cpp ****     _thread *old = running;
  74              		.loc 1 50 5
  75              		.loc 1 50 14 is_stmt 0
  76 004c 97040000 		ld	s1,.LANCHOR0
  76      83B40400 
  77              	.LVL2:
  51:src/_thread.cpp ****     if (!old->isFinished() && !old->isBlocked()) { Scheduler::put(old); }
  78              		.loc 1 51 5 is_stmt 1
  79              	.LBB12:
  80              	.LBB13:
  65:src/../h/_thread.h **** 
  81              		.loc 2 65 31
  65:src/../h/_thread.h **** 
  82              		.loc 2 65 38 is_stmt 0
  83 0054 83C78401 		lbu	a5,24(s1)
  84              	.LVL3:
  85              	.LBE13:
  86              	.LBE12:
  87              		.loc 1 51 28
  88 0058 63960700 		bnez	a5,.L6
  89              	.LVL4:
  90              	.LBB14:
  91              	.LBB15:
  68:src/../h/_thread.h **** 
  69:src/../h/_thread.h ****     bool isBlocked() const { return blocked; }
  92              		.loc 2 69 30 is_stmt 1
  93              		.loc 2 69 37 is_stmt 0
  94 005c 83C79401 		lbu	a5,25(s1)
  95              	.LVL5:
  96              	.LBE15:
  97              	.LBE14:
  98              		.loc 1 51 28
  99 0060 638C0702 		beqz	a5,.L8
 100              	.L6:
  52:src/_thread.cpp ****     running = Scheduler::get();
 101              		.loc 1 52 5 is_stmt 1
 102              		.loc 1 52 29 is_stmt 0
 103 0064 97000000 		call	_ZN9Scheduler3getEv@plt
 103      E7800000 
 104              	.LVL6:
GAS LISTING /tmp/cc34eXE9.s 			page 5


 105              		.loc 1 52 13
 106 006c 97070000 		sd	a0,.LANCHOR0,a5
 106      23B0A700 
  53:src/_thread.cpp ****     /*if (running->body == nullptr && Scheduler::head != nullptr){
  54:src/_thread.cpp ****         _thread* tmp = running;
  55:src/_thread.cpp ****         running = Scheduler::get();
  56:src/_thread.cpp ****         Scheduler::put(tmp);
  57:src/_thread.cpp ****     }*/
  58:src/_thread.cpp **** 
  59:src/_thread.cpp ****     _thread::contextSwitch(&old->context, &running->context);
 107              		.loc 1 59 5 is_stmt 1
 108              		.loc 1 59 27 is_stmt 0
 109 0074 93058502 		addi	a1,a0,40
 110 0078 13858402 		addi	a0,s1,40
 111 007c 97000000 		call	_ZN7_thread13contextSwitchEPNS_7ContextES1_@plt
 111      E7800000 
 112              	.LVL7:
  60:src/_thread.cpp **** }
 113              		.loc 1 60 1
 114 0084 83308101 		ld	ra,24(sp)
 115              		.cfi_remember_state
 116              		.cfi_restore 1
 117 0088 03340101 		ld	s0,16(sp)
 118              		.cfi_restore 8
 119              		.cfi_def_cfa 2, 32
 120 008c 83348100 		ld	s1,8(sp)
 121              		.cfi_restore 9
 122              	.LVL8:
 123 0090 13010102 		addi	sp,sp,32
 124              		.cfi_def_cfa_offset 0
 125 0094 67800000 		jr	ra
 126              	.LVL9:
 127              	.L8:
 128              		.cfi_restore_state
  51:src/_thread.cpp ****     running = Scheduler::get();
 129              		.loc 1 51 52 is_stmt 1
  51:src/_thread.cpp ****     running = Scheduler::get();
 130              		.loc 1 51 66 is_stmt 0
 131 0098 13850400 		mv	a0,s1
 132 009c 97000000 		call	_ZN9Scheduler3putEP7_thread@plt
 132      E7800000 
 133              	.LVL10:
 134 00a4 6FF01FFC 		j	.L6
 135              		.cfi_endproc
 136              	.LFE43:
 138              		.align	2
 139              		.globl	_ZN7_thread5yieldEv
 141              	_ZN7_thread5yieldEv:
 142              	.LFB42:
  37:src/_thread.cpp **** 
 143              		.loc 1 37 1 is_stmt 1
 144              		.cfi_startproc
 145 00a8 130101FF 		addi	sp,sp,-16
 146              		.cfi_def_cfa_offset 16
 147 00ac 23341100 		sd	ra,8(sp)
 148 00b0 23308100 		sd	s0,0(sp)
 149              		.cfi_offset 1, -8
GAS LISTING /tmp/cc34eXE9.s 			page 6


 150              		.cfi_offset 8, -16
 151 00b4 13040101 		addi	s0,sp,16
 152              		.cfi_def_cfa 8, 0
  39:src/_thread.cpp **** 
 153              		.loc 1 39 5
  39:src/_thread.cpp **** 
 154              		.loc 1 39 25 is_stmt 0
 155 00b8 97000000 		call	_ZN5Riscv13pushRegistersEv@plt
 155      E7800000 
 156              	.LVL11:
  41:src/_thread.cpp **** 
 157              		.loc 1 41 5 is_stmt 1
  41:src/_thread.cpp **** 
 158              		.loc 1 41 22 is_stmt 0
 159 00c0 97000000 		call	_ZN7_thread8dispatchEv
 159      E7800000 
 160              	.LVL12:
  43:src/_thread.cpp ****     //thread_dispatch();
 161              		.loc 1 43 5 is_stmt 1
  43:src/_thread.cpp ****     //thread_dispatch();
 162              		.loc 1 43 24 is_stmt 0
 163 00c8 97000000 		call	_ZN5Riscv12popRegistersEv@plt
 163      E7800000 
 164              	.LVL13:
  46:src/_thread.cpp **** 
 165              		.loc 1 46 1
 166 00d0 83308100 		ld	ra,8(sp)
 167              		.cfi_restore 1
 168 00d4 03340100 		ld	s0,0(sp)
 169              		.cfi_restore 8
 170              		.cfi_def_cfa 2, 16
 171 00d8 13010101 		addi	sp,sp,16
 172              		.cfi_def_cfa_offset 0
 173 00dc 67800000 		jr	ra
 174              		.cfi_endproc
 175              	.LFE42:
 177              		.align	2
 178              		.globl	_ZN7_thread13threadWrapperEv
 180              	_ZN7_thread13threadWrapperEv:
 181              	.LFB45:
  61:src/_thread.cpp **** 
  62:src/_thread.cpp **** void _thread::start() {
  63:src/_thread.cpp ****     if (running == nullptr) running = this;
  64:src/_thread.cpp ****     if ( this->body != nullptr) {Scheduler::put(this);}
  65:src/_thread.cpp **** }
  66:src/_thread.cpp **** 
  67:src/_thread.cpp **** void _thread::threadWrapper()
  68:src/_thread.cpp **** {
 182              		.loc 1 68 1 is_stmt 1
 183              		.cfi_startproc
 184 00e0 130101FE 		addi	sp,sp,-32
 185              		.cfi_def_cfa_offset 32
 186 00e4 233C1100 		sd	ra,24(sp)
 187 00e8 23388100 		sd	s0,16(sp)
 188 00ec 23349100 		sd	s1,8(sp)
 189              		.cfi_offset 1, -8
 190              		.cfi_offset 8, -16
GAS LISTING /tmp/cc34eXE9.s 			page 7


 191              		.cfi_offset 9, -24
 192 00f0 13040102 		addi	s0,sp,32
 193              		.cfi_def_cfa 8, 0
  69:src/_thread.cpp ****     Riscv::popSppSpie();
 194              		.loc 1 69 5
 195              		.loc 1 69 22 is_stmt 0
 196 00f4 97000000 		call	_ZN5Riscv10popSppSpieEv@plt
 196      E7800000 
 197              	.LVL14:
  70:src/_thread.cpp ****     running->body(running->arg);
 198              		.loc 1 70 5 is_stmt 1
 199              		.loc 1 70 14 is_stmt 0
 200 00fc 97040000 		lla	s1,.LANCHOR0
 200      93840400 
 201 0104 83B70400 		ld	a5,0(s1)
 202 0108 03B70700 		ld	a4,0(a5)
 203              		.loc 1 70 18
 204 010c 03B50702 		ld	a0,32(a5)
 205 0110 E7000700 		jalr	a4
 206              	.LVL15:
  71:src/_thread.cpp ****     running->setFinished(true);
 207              		.loc 1 71 5 is_stmt 1
 208              		.loc 1 71 25 is_stmt 0
 209 0114 83B70400 		ld	a5,0(s1)
 210              	.LVL16:
 211              	.LBB16:
 212              	.LBB17:
  67:src/../h/_thread.h **** 
 213              		.loc 2 67 36 is_stmt 1
  67:src/../h/_thread.h **** 
 214              		.loc 2 67 45 is_stmt 0
 215 0118 13071000 		li	a4,1
 216 011c 238CE700 		sb	a4,24(a5)
 217              	.LVL17:
 218              	.LBE17:
 219              	.LBE16:
  72:src/_thread.cpp ****     _thread::yield();
 220              		.loc 1 72 5 is_stmt 1
 221              		.loc 1 72 19 is_stmt 0
 222 0120 97000000 		call	_ZN7_thread5yieldEv
 222      E7800000 
 223              	.LVL18:
  73:src/_thread.cpp **** }
 224              		.loc 1 73 1
 225 0128 83308101 		ld	ra,24(sp)
 226              		.cfi_restore 1
 227 012c 03340101 		ld	s0,16(sp)
 228              		.cfi_restore 8
 229              		.cfi_def_cfa 2, 32
 230 0130 83348100 		ld	s1,8(sp)
 231              		.cfi_restore 9
 232 0134 13010102 		addi	sp,sp,32
 233              		.cfi_def_cfa_offset 0
 234 0138 67800000 		jr	ra
 235              		.cfi_endproc
 236              	.LFE45:
 238              		.align	2
GAS LISTING /tmp/cc34eXE9.s 			page 8


 239              		.globl	_ZN7_thread5startEv
 241              	_ZN7_thread5startEv:
 242              	.LFB44:
  62:src/_thread.cpp ****     if (running == nullptr) running = this;
 243              		.loc 1 62 23 is_stmt 1
 244              		.cfi_startproc
 245              	.LVL19:
  63:src/_thread.cpp ****     if ( this->body != nullptr) {Scheduler::put(this);}
 246              		.loc 1 63 5
  63:src/_thread.cpp ****     if ( this->body != nullptr) {Scheduler::put(this);}
 247              		.loc 1 63 17 is_stmt 0
 248 013c 97070000 		ld	a5,.LANCHOR0
 248      83B70700 
  63:src/_thread.cpp ****     if ( this->body != nullptr) {Scheduler::put(this);}
 249              		.loc 1 63 5
 250 0144 638A0702 		beqz	a5,.L20
 251              	.L14:
  64:src/_thread.cpp **** }
 252              		.loc 1 64 5 is_stmt 1
  64:src/_thread.cpp **** }
 253              		.loc 1 64 16 is_stmt 0
 254 0148 83370500 		ld	a5,0(a0)
  64:src/_thread.cpp **** }
 255              		.loc 1 64 5
 256 014c 638C0702 		beqz	a5,.L17
  62:src/_thread.cpp ****     if (running == nullptr) running = this;
 257              		.loc 1 62 23 discriminator 1
 258 0150 130101FF 		addi	sp,sp,-16
 259              		.cfi_def_cfa_offset 16
 260 0154 23341100 		sd	ra,8(sp)
 261 0158 23308100 		sd	s0,0(sp)
 262              		.cfi_offset 1, -8
 263              		.cfi_offset 8, -16
 264 015c 13040101 		addi	s0,sp,16
 265              		.cfi_def_cfa 8, 0
  64:src/_thread.cpp **** }
 266              		.loc 1 64 34 is_stmt 1 discriminator 1
  64:src/_thread.cpp **** }
 267              		.loc 1 64 48 is_stmt 0 discriminator 1
 268 0160 97000000 		call	_ZN9Scheduler3putEP7_thread@plt
 268      E7800000 
 269              	.LVL20:
  65:src/_thread.cpp **** 
 270              		.loc 1 65 1 discriminator 1
 271 0168 83308100 		ld	ra,8(sp)
 272              		.cfi_restore 1
 273 016c 03340100 		ld	s0,0(sp)
 274              		.cfi_restore 8
 275              		.cfi_def_cfa 2, 16
 276 0170 13010101 		addi	sp,sp,16
 277              		.cfi_def_cfa_offset 0
 278 0174 67800000 		jr	ra
 279              	.LVL21:
 280              	.L20:
  63:src/_thread.cpp ****     if ( this->body != nullptr) {Scheduler::put(this);}
 281              		.loc 1 63 29 is_stmt 1 discriminator 1
  63:src/_thread.cpp ****     if ( this->body != nullptr) {Scheduler::put(this);}
GAS LISTING /tmp/cc34eXE9.s 			page 9


 282              		.loc 1 63 37 is_stmt 0 discriminator 1
 283 0178 97070000 		sd	a0,.LANCHOR0,a5
 283      23B0A700 
 284 0180 6FF09FFC 		j	.L14
 285              	.L17:
 286 0184 67800000 		ret
 287              		.cfi_endproc
 288              	.LFE44:
 290              		.align	2
 291              		.globl	_ZN7_threadnwEm
 293              	_ZN7_threadnwEm:
 294              	.LFB46:
  74:src/_thread.cpp **** 
  75:src/_thread.cpp **** void* _thread::operator new(size_t sz){
 295              		.loc 1 75 39 is_stmt 1
 296              		.cfi_startproc
 297              	.LVL22:
 298 0188 130101FE 		addi	sp,sp,-32
 299              		.cfi_def_cfa_offset 32
 300 018c 233C1100 		sd	ra,24(sp)
 301 0190 23388100 		sd	s0,16(sp)
 302 0194 23349100 		sd	s1,8(sp)
 303              		.cfi_offset 1, -8
 304              		.cfi_offset 8, -16
 305              		.cfi_offset 9, -24
 306 0198 13040102 		addi	s0,sp,32
 307              		.cfi_def_cfa 8, 0
 308 019c 93040500 		mv	s1,a0
  76:src/_thread.cpp ****     return MemoryAllocator::getInstance()->mem_alloc((sz+
 309              		.loc 1 76 5
 310              		.loc 1 76 40 is_stmt 0
 311 01a0 97000000 		call	_ZN15MemoryAllocator11getInstanceEv@plt
 311      E7800000 
 312              	.LVL23:
  77:src/_thread.cpp ****     sizeof(MemoryAllocator::FullMem)+ MEM_BLOCK_SIZE - 1) /MEM_BLOCK_SIZE);
 313              		.loc 1 77 54
 314 01a8 13857405 		addi	a0,s1,87
 315              		.loc 1 77 74
 316 01ac 13556500 		srli	a0,a0,6
 317 01b0 97000000 		call	_ZN15MemoryAllocator9mem_allocEm@plt
 317      E7800000 
 318              	.LVL24:
  78:src/_thread.cpp **** }
 319              		.loc 1 78 1
 320 01b8 83308101 		ld	ra,24(sp)
 321              		.cfi_restore 1
 322 01bc 03340101 		ld	s0,16(sp)
 323              		.cfi_restore 8
 324              		.cfi_def_cfa 2, 32
 325 01c0 83348100 		ld	s1,8(sp)
 326              		.cfi_restore 9
 327              	.LVL25:
 328 01c4 13010102 		addi	sp,sp,32
 329              		.cfi_def_cfa_offset 0
 330 01c8 67800000 		jr	ra
 331              		.cfi_endproc
 332              	.LFE46:
GAS LISTING /tmp/cc34eXE9.s 			page 10


 334              		.align	2
 335              		.globl	_ZN7_threadnaEm
 337              	_ZN7_threadnaEm:
 338              	.LFB47:
  79:src/_thread.cpp **** 
  80:src/_thread.cpp **** void* _thread::operator new[](size_t sz){
 339              		.loc 1 80 41 is_stmt 1
 340              		.cfi_startproc
 341              	.LVL26:
 342 01cc 130101FE 		addi	sp,sp,-32
 343              		.cfi_def_cfa_offset 32
 344 01d0 233C1100 		sd	ra,24(sp)
 345 01d4 23388100 		sd	s0,16(sp)
 346 01d8 23349100 		sd	s1,8(sp)
 347              		.cfi_offset 1, -8
 348              		.cfi_offset 8, -16
 349              		.cfi_offset 9, -24
 350 01dc 13040102 		addi	s0,sp,32
 351              		.cfi_def_cfa 8, 0
 352 01e0 93040500 		mv	s1,a0
  81:src/_thread.cpp ****     return MemoryAllocator::getInstance()->mem_alloc((sz+
 353              		.loc 1 81 5
 354              		.loc 1 81 40 is_stmt 0
 355 01e4 97000000 		call	_ZN15MemoryAllocator11getInstanceEv@plt
 355      E7800000 
 356              	.LVL27:
  82:src/_thread.cpp ****                                                sizeof(MemoryAllocator::FullMem)+ MEM_BLOCK_SIZE - 1
 357              		.loc 1 82 97
 358 01ec 13857405 		addi	a0,s1,87
 359              		.loc 1 82 117
 360 01f0 13556500 		srli	a0,a0,6
 361 01f4 97000000 		call	_ZN15MemoryAllocator9mem_allocEm@plt
 361      E7800000 
 362              	.LVL28:
  83:src/_thread.cpp **** }
 363              		.loc 1 83 1
 364 01fc 83308101 		ld	ra,24(sp)
 365              		.cfi_restore 1
 366 0200 03340101 		ld	s0,16(sp)
 367              		.cfi_restore 8
 368              		.cfi_def_cfa 2, 32
 369 0204 83348100 		ld	s1,8(sp)
 370              		.cfi_restore 9
 371              	.LVL29:
 372 0208 13010102 		addi	sp,sp,32
 373              		.cfi_def_cfa_offset 0
 374 020c 67800000 		jr	ra
 375              		.cfi_endproc
 376              	.LFE47:
 378              		.align	2
 379              		.globl	_ZN7_thread12createThreadEPFvPvES0_
 381              	_ZN7_thread12createThreadEPFvPvES0_:
 382              	.LFB41:
  17:src/_thread.cpp **** 
 383              		.loc 1 17 53 is_stmt 1
 384              		.cfi_startproc
 385              	.LVL30:
GAS LISTING /tmp/cc34eXE9.s 			page 11


 386 0210 130101FD 		addi	sp,sp,-48
 387              		.cfi_def_cfa_offset 48
 388 0214 23341102 		sd	ra,40(sp)
 389 0218 23308102 		sd	s0,32(sp)
 390 021c 233C9100 		sd	s1,24(sp)
 391 0220 23382101 		sd	s2,16(sp)
 392 0224 23343101 		sd	s3,8(sp)
 393              		.cfi_offset 1, -8
 394              		.cfi_offset 8, -16
 395              		.cfi_offset 9, -24
 396              		.cfi_offset 18, -32
 397              		.cfi_offset 19, -40
 398 0228 13040103 		addi	s0,sp,48
 399              		.cfi_def_cfa 8, 0
 400 022c 13090500 		mv	s2,a0
 401 0230 93890500 		mv	s3,a1
  19:src/_thread.cpp ****     if (ret == nullptr) return ret;
 402              		.loc 1 19 5
  19:src/_thread.cpp ****     if (ret == nullptr) return ret;
 403              		.loc 1 19 58 is_stmt 0
 404 0234 97000000 		call	_ZN15MemoryAllocator11getInstanceEv@plt
 404      E7800000 
 405              	.LVL31:
  19:src/_thread.cpp ****     if (ret == nullptr) return ret;
 406              		.loc 1 19 158
 407 023c 13052000 		li	a0,2
 408 0240 97000000 		call	_ZN15MemoryAllocator9mem_allocEm@plt
 408      E7800000 
 409              	.LVL32:
 410 0248 93040500 		mv	s1,a0
 411              	.LVL33:
  20:src/_thread.cpp **** 
 412              		.loc 1 20 5 is_stmt 1
 413 024c 63060504 		beqz	a0,.L25
  22:src/_thread.cpp ****     ret->stack = static_cast<uint64 *>(body != nullptr ? _thread::operator new[](STACK_SIZE * sizeo
 414              		.loc 1 22 5
  22:src/_thread.cpp ****     ret->stack = static_cast<uint64 *>(body != nullptr ? _thread::operator new[](STACK_SIZE * sizeo
 415              		.loc 1 22 15 is_stmt 0
 416 0250 23302501 		sd	s2,0(a0)
  23:src/_thread.cpp ****     ret->timeSlice = TIME_SLICE;
 417              		.loc 1 23 5 is_stmt 1
  23:src/_thread.cpp ****     ret->timeSlice = TIME_SLICE;
 418              		.loc 1 23 18 is_stmt 0
 419 0254 63020906 		beqz	s2,.L29
  23:src/_thread.cpp ****     ret->timeSlice = TIME_SLICE;
 420              		.loc 1 23 81 discriminator 1
 421 0258 37850000 		li	a0,32768
 422 025c 97000000 		call	_ZN7_threadnaEm
 422      E7800000 
 423              	.LVL34:
 424              	.L27:
  23:src/_thread.cpp ****     ret->timeSlice = TIME_SLICE;
 425              		.loc 1 23 16 discriminator 4
 426 0264 23B4A400 		sd	a0,8(s1)
  24:src/_thread.cpp ****     ret->finished = false;
 427              		.loc 1 24 20 discriminator 4
 428 0268 93072000 		li	a5,2
GAS LISTING /tmp/cc34eXE9.s 			page 12


 429 026c 23B8F400 		sd	a5,16(s1)
  25:src/_thread.cpp ****     ret->blocked = false;
 430              		.loc 1 25 5 is_stmt 1 discriminator 4
  25:src/_thread.cpp ****     ret->blocked = false;
 431              		.loc 1 25 19 is_stmt 0 discriminator 4
 432 0270 238C0400 		sb	zero,24(s1)
  26:src/_thread.cpp ****     ret->arg = arg;
 433              		.loc 1 26 5 is_stmt 1 discriminator 4
  26:src/_thread.cpp ****     ret->arg = arg;
 434              		.loc 1 26 18 is_stmt 0 discriminator 4
 435 0274 A38C0400 		sb	zero,25(s1)
  27:src/_thread.cpp ****     ret->context = {
 436              		.loc 1 27 5 is_stmt 1 discriminator 4
  27:src/_thread.cpp ****     ret->context = {
 437              		.loc 1 27 14 is_stmt 0 discriminator 4
 438 0278 23B03403 		sd	s3,32(s1)
  28:src/_thread.cpp ****             (uint64) &threadWrapper,
 439              		.loc 1 28 5 is_stmt 1 discriminator 4
  30:src/_thread.cpp ****     };
 440              		.loc 1 30 35 is_stmt 0 discriminator 4
 441 027c 63020504 		beqz	a0,.L30
  30:src/_thread.cpp ****     };
 442              		.loc 1 30 46 discriminator 1
 443 0280 B7870000 		li	a5,32768
 444 0284 3305F500 		add	a0,a0,a5
 445              	.L28:
  28:src/_thread.cpp ****             (uint64) &threadWrapper,
 446              		.loc 1 28 18
 447 0288 97070000 		lla	a5,_ZN7_thread13threadWrapperEv
 447      93870700 
 448 0290 23B4F402 		sd	a5,40(s1)
 449 0294 23B8A402 		sd	a0,48(s1)
  33:src/_thread.cpp **** }
 450              		.loc 1 33 5 is_stmt 1
 451              	.L25:
  34:src/_thread.cpp **** 
 452              		.loc 1 34 1 is_stmt 0
 453 0298 13850400 		mv	a0,s1
 454 029c 83308102 		ld	ra,40(sp)
 455              		.cfi_remember_state
 456              		.cfi_restore 1
 457 02a0 03340102 		ld	s0,32(sp)
 458              		.cfi_restore 8
 459              		.cfi_def_cfa 2, 48
 460 02a4 83348101 		ld	s1,24(sp)
 461              		.cfi_restore 9
 462              	.LVL35:
 463 02a8 03390101 		ld	s2,16(sp)
 464              		.cfi_restore 18
 465              	.LVL36:
 466 02ac 83398100 		ld	s3,8(sp)
 467              		.cfi_restore 19
 468              	.LVL37:
 469 02b0 13010103 		addi	sp,sp,48
 470              		.cfi_def_cfa_offset 0
 471 02b4 67800000 		jr	ra
 472              	.LVL38:
GAS LISTING /tmp/cc34eXE9.s 			page 13


 473              	.L29:
 474              		.cfi_restore_state
  23:src/_thread.cpp ****     ret->timeSlice = TIME_SLICE;
 475              		.loc 1 23 18
 476 02b8 13050000 		li	a0,0
 477 02bc 6FF09FFA 		j	.L27
 478              	.L30:
  30:src/_thread.cpp ****     };
 479              		.loc 1 30 35
 480 02c0 13050000 		li	a0,0
 481 02c4 6FF05FFC 		j	.L28
 482              		.cfi_endproc
 483              	.LFE41:
 485              		.align	2
 486              		.globl	_ZN7_threaddlEPv
 488              	_ZN7_threaddlEPv:
 489              	.LFB48:
  84:src/_thread.cpp **** void _thread::operator delete(void* p){
 490              		.loc 1 84 39 is_stmt 1
 491              		.cfi_startproc
 492              	.LVL39:
 493 02c8 130101FE 		addi	sp,sp,-32
 494              		.cfi_def_cfa_offset 32
 495 02cc 233C1100 		sd	ra,24(sp)
 496 02d0 23388100 		sd	s0,16(sp)
 497 02d4 23349100 		sd	s1,8(sp)
 498              		.cfi_offset 1, -8
 499              		.cfi_offset 8, -16
 500              		.cfi_offset 9, -24
 501 02d8 13040102 		addi	s0,sp,32
 502              		.cfi_def_cfa 8, 0
 503 02dc 93040500 		mv	s1,a0
  85:src/_thread.cpp ****     MemoryAllocator::getInstance()->mem_free(p);
 504              		.loc 1 85 5
 505              		.loc 1 85 33 is_stmt 0
 506 02e0 97000000 		call	_ZN15MemoryAllocator11getInstanceEv@plt
 506      E7800000 
 507              	.LVL40:
 508              		.loc 1 85 47
 509 02e8 13850400 		mv	a0,s1
 510 02ec 97000000 		call	_ZN15MemoryAllocator8mem_freeEPv@plt
 510      E7800000 
 511              	.LVL41:
  86:src/_thread.cpp **** }
 512              		.loc 1 86 1
 513 02f4 83308101 		ld	ra,24(sp)
 514              		.cfi_restore 1
 515 02f8 03340101 		ld	s0,16(sp)
 516              		.cfi_restore 8
 517              		.cfi_def_cfa 2, 32
 518 02fc 83348100 		ld	s1,8(sp)
 519              		.cfi_restore 9
 520              	.LVL42:
 521 0300 13010102 		addi	sp,sp,32
 522              		.cfi_def_cfa_offset 0
 523 0304 67800000 		jr	ra
 524              		.cfi_endproc
GAS LISTING /tmp/cc34eXE9.s 			page 14


 525              	.LFE48:
 527              		.align	2
 528              		.globl	_ZN7_threaddaEPv
 530              	_ZN7_threaddaEPv:
 531              	.LFB49:
  87:src/_thread.cpp **** 
  88:src/_thread.cpp **** void _thread::operator delete[](void* p){
 532              		.loc 1 88 41 is_stmt 1
 533              		.cfi_startproc
 534              	.LVL43:
 535 0308 130101FE 		addi	sp,sp,-32
 536              		.cfi_def_cfa_offset 32
 537 030c 233C1100 		sd	ra,24(sp)
 538 0310 23388100 		sd	s0,16(sp)
 539 0314 23349100 		sd	s1,8(sp)
 540              		.cfi_offset 1, -8
 541              		.cfi_offset 8, -16
 542              		.cfi_offset 9, -24
 543 0318 13040102 		addi	s0,sp,32
 544              		.cfi_def_cfa 8, 0
 545 031c 93040500 		mv	s1,a0
  89:src/_thread.cpp ****     MemoryAllocator::getInstance()->mem_free(p);
 546              		.loc 1 89 5
 547              		.loc 1 89 33 is_stmt 0
 548 0320 97000000 		call	_ZN15MemoryAllocator11getInstanceEv@plt
 548      E7800000 
 549              	.LVL44:
 550              		.loc 1 89 47
 551 0328 13850400 		mv	a0,s1
 552 032c 97000000 		call	_ZN15MemoryAllocator8mem_freeEPv@plt
 552      E7800000 
 553              	.LVL45:
  90:src/_thread.cpp **** }
 554              		.loc 1 90 1
 555 0334 83308101 		ld	ra,24(sp)
 556              		.cfi_restore 1
 557 0338 03340101 		ld	s0,16(sp)
 558              		.cfi_restore 8
 559              		.cfi_def_cfa 2, 32
 560 033c 83348100 		ld	s1,8(sp)
 561              		.cfi_restore 9
 562              	.LVL46:
 563 0340 13010102 		addi	sp,sp,32
 564              		.cfi_def_cfa_offset 0
 565 0344 67800000 		jr	ra
 566              		.cfi_endproc
 567              	.LFE49:
 569              		.globl	_ZN7_thread16timeSliceCounterE
 570              		.globl	_ZN7_thread7runningE
 571              		.bss
 572              		.align	3
 573              		.set	.LANCHOR0,. + 0
 576              	_ZN7_thread7runningE:
 577 0000 00000000 		.zero	8
 577      00000000 
 580              	_ZN7_thread16timeSliceCounterE:
 581 0008 00000000 		.zero	8
GAS LISTING /tmp/cc34eXE9.s 			page 15


 581      00000000 
 582              		.text
 583              	.Letext0:
 584              		.file 3 "src/../h/../lib/hw.h"
 585              		.file 4 "src/../h/MemoryAllocator.h"
 586              		.file 5 "src/../h/Scheduler.h"
 587              		.file 6 "src/../h/riscv.h"
 588              		.file 7 "src/../h/../h/syscall_c.h"
GAS LISTING /tmp/cc34eXE9.s 			page 16


DEFINED SYMBOLS
                            *ABS*:0000000000000000 _thread.cpp
     /tmp/cc34eXE9.s:9      .text:0000000000000000 _ZN7_thread10threadExitEv
     /tmp/cc34eXE9.s:13     .text:0000000000000000 .L0 
     /tmp/cc34eXE9.s:14     .text:0000000000000000 .L0 
     /tmp/cc34eXE9.s:15     .text:0000000000000004 .L0 
     /tmp/cc34eXE9.s:17     .text:0000000000000008 .L0 
     /tmp/cc34eXE9.s:19     .text:000000000000000c .L0 
     /tmp/cc34eXE9.s:21     .text:000000000000000c .L0 
     /tmp/cc34eXE9.s:22     .text:000000000000000c .L0 
     /tmp/cc34eXE9.s:24     .text:0000000000000014 .L0 
     /tmp/cc34eXE9.s:30     .text:0000000000000018 .L0 
     /tmp/cc34eXE9.s:31     .text:0000000000000018 .L0 
     /tmp/cc34eXE9.s:32     .text:0000000000000018 .L0 
     /tmp/cc34eXE9.s:38     .text:0000000000000020 .L0 
     /tmp/cc34eXE9.s:39     .text:0000000000000020 .L0 
     /tmp/cc34eXE9.s:42     .text:0000000000000024 .L0 
     /tmp/cc34eXE9.s:43     .text:0000000000000028 .L0 
     /tmp/cc34eXE9.s:44     .text:0000000000000028 .L0 
     /tmp/cc34eXE9.s:45     .text:0000000000000028 .L0 
     /tmp/cc34eXE9.s:47     .text:000000000000002c .L0 
     /tmp/cc34eXE9.s:50     .text:0000000000000030 .L0 
     /tmp/cc34eXE9.s:52     .text:0000000000000030 .L0 
     /tmp/cc34eXE9.s:54     .text:0000000000000038 .L0 
     /tmp/cc34eXE9.s:60     .text:0000000000000038 _ZN7_thread8dispatchEv
     /tmp/cc34eXE9.s:63     .text:0000000000000038 .L0 
     /tmp/cc34eXE9.s:64     .text:0000000000000038 .L0 
     /tmp/cc34eXE9.s:65     .text:000000000000003c .L0 
     /tmp/cc34eXE9.s:69     .text:0000000000000048 .L0 
     /tmp/cc34eXE9.s:70     .text:0000000000000048 .L0 
     /tmp/cc34eXE9.s:71     .text:0000000000000048 .L0 
     /tmp/cc34eXE9.s:73     .text:000000000000004c .L0 
     /tmp/cc34eXE9.s:75     .text:000000000000004c .L0 
     /tmp/cc34eXE9.s:76     .text:000000000000004c .L0 
     /tmp/cc34eXE9.s:81     .text:0000000000000054 .L0 
     /tmp/cc34eXE9.s:82     .text:0000000000000054 .L0 
     /tmp/cc34eXE9.s:83     .text:0000000000000054 .L0 
     /tmp/cc34eXE9.s:88     .text:0000000000000058 .L0 
     /tmp/cc34eXE9.s:93     .text:000000000000005c .L0 
     /tmp/cc34eXE9.s:94     .text:000000000000005c .L0 
     /tmp/cc34eXE9.s:99     .text:0000000000000060 .L0 
     /tmp/cc34eXE9.s:102    .text:0000000000000064 .L0 
     /tmp/cc34eXE9.s:103    .text:0000000000000064 .L0 
     /tmp/cc34eXE9.s:106    .text:000000000000006c .L0 
     /tmp/cc34eXE9.s:108    .text:0000000000000074 .L0 
     /tmp/cc34eXE9.s:109    .text:0000000000000074 .L0 
     /tmp/cc34eXE9.s:114    .text:0000000000000084 .L0 
     /tmp/cc34eXE9.s:115    .text:0000000000000088 .L0 
     /tmp/cc34eXE9.s:116    .text:0000000000000088 .L0 
     /tmp/cc34eXE9.s:118    .text:000000000000008c .L0 
     /tmp/cc34eXE9.s:119    .text:000000000000008c .L0 
     /tmp/cc34eXE9.s:121    .text:0000000000000090 .L0 
     /tmp/cc34eXE9.s:124    .text:0000000000000094 .L0 
     /tmp/cc34eXE9.s:128    .text:0000000000000098 .L0 
     /tmp/cc34eXE9.s:130    .text:0000000000000098 .L0 
     /tmp/cc34eXE9.s:131    .text:0000000000000098 .L0 
     /tmp/cc34eXE9.s:135    .text:00000000000000a8 .L0 
GAS LISTING /tmp/cc34eXE9.s 			page 17


     /tmp/cc34eXE9.s:141    .text:00000000000000a8 _ZN7_thread5yieldEv
     /tmp/cc34eXE9.s:144    .text:00000000000000a8 .L0 
     /tmp/cc34eXE9.s:145    .text:00000000000000a8 .L0 
     /tmp/cc34eXE9.s:146    .text:00000000000000ac .L0 
     /tmp/cc34eXE9.s:149    .text:00000000000000b4 .L0 
     /tmp/cc34eXE9.s:150    .text:00000000000000b4 .L0 
     /tmp/cc34eXE9.s:152    .text:00000000000000b8 .L0 
     /tmp/cc34eXE9.s:154    .text:00000000000000b8 .L0 
     /tmp/cc34eXE9.s:155    .text:00000000000000b8 .L0 
     /tmp/cc34eXE9.s:158    .text:00000000000000c0 .L0 
     /tmp/cc34eXE9.s:159    .text:00000000000000c0 .L0 
     /tmp/cc34eXE9.s:162    .text:00000000000000c8 .L0 
     /tmp/cc34eXE9.s:163    .text:00000000000000c8 .L0 
     /tmp/cc34eXE9.s:166    .text:00000000000000d0 .L0 
     /tmp/cc34eXE9.s:167    .text:00000000000000d4 .L0 
     /tmp/cc34eXE9.s:169    .text:00000000000000d8 .L0 
     /tmp/cc34eXE9.s:170    .text:00000000000000d8 .L0 
     /tmp/cc34eXE9.s:172    .text:00000000000000dc .L0 
     /tmp/cc34eXE9.s:174    .text:00000000000000e0 .L0 
     /tmp/cc34eXE9.s:180    .text:00000000000000e0 _ZN7_thread13threadWrapperEv
     /tmp/cc34eXE9.s:183    .text:00000000000000e0 .L0 
     /tmp/cc34eXE9.s:184    .text:00000000000000e0 .L0 
     /tmp/cc34eXE9.s:185    .text:00000000000000e4 .L0 
     /tmp/cc34eXE9.s:189    .text:00000000000000f0 .L0 
     /tmp/cc34eXE9.s:190    .text:00000000000000f0 .L0 
     /tmp/cc34eXE9.s:191    .text:00000000000000f0 .L0 
     /tmp/cc34eXE9.s:193    .text:00000000000000f4 .L0 
     /tmp/cc34eXE9.s:195    .text:00000000000000f4 .L0 
     /tmp/cc34eXE9.s:196    .text:00000000000000f4 .L0 
     /tmp/cc34eXE9.s:199    .text:00000000000000fc .L0 
     /tmp/cc34eXE9.s:200    .text:00000000000000fc .L0 
     /tmp/cc34eXE9.s:204    .text:000000000000010c .L0 
     /tmp/cc34eXE9.s:208    .text:0000000000000114 .L0 
     /tmp/cc34eXE9.s:209    .text:0000000000000114 .L0 
     /tmp/cc34eXE9.s:214    .text:0000000000000118 .L0 
     /tmp/cc34eXE9.s:215    .text:0000000000000118 .L0 
     /tmp/cc34eXE9.s:221    .text:0000000000000120 .L0 
     /tmp/cc34eXE9.s:222    .text:0000000000000120 .L0 
     /tmp/cc34eXE9.s:225    .text:0000000000000128 .L0 
     /tmp/cc34eXE9.s:226    .text:000000000000012c .L0 
     /tmp/cc34eXE9.s:228    .text:0000000000000130 .L0 
     /tmp/cc34eXE9.s:229    .text:0000000000000130 .L0 
     /tmp/cc34eXE9.s:231    .text:0000000000000134 .L0 
     /tmp/cc34eXE9.s:233    .text:0000000000000138 .L0 
     /tmp/cc34eXE9.s:235    .text:000000000000013c .L0 
     /tmp/cc34eXE9.s:241    .text:000000000000013c _ZN7_thread5startEv
     /tmp/cc34eXE9.s:244    .text:000000000000013c .L0 
     /tmp/cc34eXE9.s:246    .text:000000000000013c .L0 
     /tmp/cc34eXE9.s:247    .text:000000000000013c .L0 
     /tmp/cc34eXE9.s:248    .text:000000000000013c .L0 
     /tmp/cc34eXE9.s:250    .text:0000000000000144 .L0 
     /tmp/cc34eXE9.s:253    .text:0000000000000148 .L0 
     /tmp/cc34eXE9.s:254    .text:0000000000000148 .L0 
     /tmp/cc34eXE9.s:256    .text:000000000000014c .L0 
     /tmp/cc34eXE9.s:258    .text:0000000000000150 .L0 
     /tmp/cc34eXE9.s:259    .text:0000000000000154 .L0 
     /tmp/cc34eXE9.s:262    .text:000000000000015c .L0 
GAS LISTING /tmp/cc34eXE9.s 			page 18


     /tmp/cc34eXE9.s:263    .text:000000000000015c .L0 
     /tmp/cc34eXE9.s:265    .text:0000000000000160 .L0 
     /tmp/cc34eXE9.s:267    .text:0000000000000160 .L0 
     /tmp/cc34eXE9.s:268    .text:0000000000000160 .L0 
     /tmp/cc34eXE9.s:271    .text:0000000000000168 .L0 
     /tmp/cc34eXE9.s:272    .text:000000000000016c .L0 
     /tmp/cc34eXE9.s:274    .text:0000000000000170 .L0 
     /tmp/cc34eXE9.s:275    .text:0000000000000170 .L0 
     /tmp/cc34eXE9.s:277    .text:0000000000000174 .L0 
     /tmp/cc34eXE9.s:282    .text:0000000000000178 .L0 
     /tmp/cc34eXE9.s:283    .text:0000000000000178 .L0 
     /tmp/cc34eXE9.s:287    .text:0000000000000188 .L0 
     /tmp/cc34eXE9.s:293    .text:0000000000000188 _ZN7_threadnwEm
     /tmp/cc34eXE9.s:296    .text:0000000000000188 .L0 
     /tmp/cc34eXE9.s:298    .text:0000000000000188 .L0 
     /tmp/cc34eXE9.s:299    .text:000000000000018c .L0 
     /tmp/cc34eXE9.s:303    .text:0000000000000198 .L0 
     /tmp/cc34eXE9.s:304    .text:0000000000000198 .L0 
     /tmp/cc34eXE9.s:305    .text:0000000000000198 .L0 
     /tmp/cc34eXE9.s:307    .text:000000000000019c .L0 
     /tmp/cc34eXE9.s:310    .text:00000000000001a0 .L0 
     /tmp/cc34eXE9.s:311    .text:00000000000001a0 .L0 
     /tmp/cc34eXE9.s:314    .text:00000000000001a8 .L0 
     /tmp/cc34eXE9.s:316    .text:00000000000001ac .L0 
     /tmp/cc34eXE9.s:320    .text:00000000000001b8 .L0 
     /tmp/cc34eXE9.s:321    .text:00000000000001bc .L0 
     /tmp/cc34eXE9.s:323    .text:00000000000001c0 .L0 
     /tmp/cc34eXE9.s:324    .text:00000000000001c0 .L0 
     /tmp/cc34eXE9.s:326    .text:00000000000001c4 .L0 
     /tmp/cc34eXE9.s:329    .text:00000000000001c8 .L0 
     /tmp/cc34eXE9.s:331    .text:00000000000001cc .L0 
     /tmp/cc34eXE9.s:337    .text:00000000000001cc _ZN7_threadnaEm
     /tmp/cc34eXE9.s:340    .text:00000000000001cc .L0 
     /tmp/cc34eXE9.s:342    .text:00000000000001cc .L0 
     /tmp/cc34eXE9.s:343    .text:00000000000001d0 .L0 
     /tmp/cc34eXE9.s:347    .text:00000000000001dc .L0 
     /tmp/cc34eXE9.s:348    .text:00000000000001dc .L0 
     /tmp/cc34eXE9.s:349    .text:00000000000001dc .L0 
     /tmp/cc34eXE9.s:351    .text:00000000000001e0 .L0 
     /tmp/cc34eXE9.s:354    .text:00000000000001e4 .L0 
     /tmp/cc34eXE9.s:355    .text:00000000000001e4 .L0 
     /tmp/cc34eXE9.s:358    .text:00000000000001ec .L0 
     /tmp/cc34eXE9.s:360    .text:00000000000001f0 .L0 
     /tmp/cc34eXE9.s:364    .text:00000000000001fc .L0 
     /tmp/cc34eXE9.s:365    .text:0000000000000200 .L0 
     /tmp/cc34eXE9.s:367    .text:0000000000000204 .L0 
     /tmp/cc34eXE9.s:368    .text:0000000000000204 .L0 
     /tmp/cc34eXE9.s:370    .text:0000000000000208 .L0 
     /tmp/cc34eXE9.s:373    .text:000000000000020c .L0 
     /tmp/cc34eXE9.s:375    .text:0000000000000210 .L0 
     /tmp/cc34eXE9.s:381    .text:0000000000000210 _ZN7_thread12createThreadEPFvPvES0_
     /tmp/cc34eXE9.s:384    .text:0000000000000210 .L0 
     /tmp/cc34eXE9.s:386    .text:0000000000000210 .L0 
     /tmp/cc34eXE9.s:387    .text:0000000000000214 .L0 
     /tmp/cc34eXE9.s:393    .text:0000000000000228 .L0 
     /tmp/cc34eXE9.s:394    .text:0000000000000228 .L0 
     /tmp/cc34eXE9.s:395    .text:0000000000000228 .L0 
GAS LISTING /tmp/cc34eXE9.s 			page 19


     /tmp/cc34eXE9.s:396    .text:0000000000000228 .L0 
     /tmp/cc34eXE9.s:397    .text:0000000000000228 .L0 
     /tmp/cc34eXE9.s:399    .text:000000000000022c .L0 
     /tmp/cc34eXE9.s:403    .text:0000000000000234 .L0 
     /tmp/cc34eXE9.s:404    .text:0000000000000234 .L0 
     /tmp/cc34eXE9.s:407    .text:000000000000023c .L0 
     /tmp/cc34eXE9.s:413    .text:000000000000024c .L0 
     /tmp/cc34eXE9.s:415    .text:0000000000000250 .L0 
     /tmp/cc34eXE9.s:416    .text:0000000000000250 .L0 
     /tmp/cc34eXE9.s:418    .text:0000000000000254 .L0 
     /tmp/cc34eXE9.s:419    .text:0000000000000254 .L0 
     /tmp/cc34eXE9.s:421    .text:0000000000000258 .L0 
     /tmp/cc34eXE9.s:426    .text:0000000000000264 .L0 
     /tmp/cc34eXE9.s:428    .text:0000000000000268 .L0 
     /tmp/cc34eXE9.s:431    .text:0000000000000270 .L0 
     /tmp/cc34eXE9.s:432    .text:0000000000000270 .L0 
     /tmp/cc34eXE9.s:434    .text:0000000000000274 .L0 
     /tmp/cc34eXE9.s:435    .text:0000000000000274 .L0 
     /tmp/cc34eXE9.s:437    .text:0000000000000278 .L0 
     /tmp/cc34eXE9.s:438    .text:0000000000000278 .L0 
     /tmp/cc34eXE9.s:440    .text:000000000000027c .L0 
     /tmp/cc34eXE9.s:441    .text:000000000000027c .L0 
     /tmp/cc34eXE9.s:443    .text:0000000000000280 .L0 
     /tmp/cc34eXE9.s:447    .text:0000000000000288 .L0 
     /tmp/cc34eXE9.s:452    .text:0000000000000298 .L0 
     /tmp/cc34eXE9.s:453    .text:0000000000000298 .L0 
     /tmp/cc34eXE9.s:455    .text:00000000000002a0 .L0 
     /tmp/cc34eXE9.s:456    .text:00000000000002a0 .L0 
     /tmp/cc34eXE9.s:458    .text:00000000000002a4 .L0 
     /tmp/cc34eXE9.s:459    .text:00000000000002a4 .L0 
     /tmp/cc34eXE9.s:461    .text:00000000000002a8 .L0 
     /tmp/cc34eXE9.s:464    .text:00000000000002ac .L0 
     /tmp/cc34eXE9.s:467    .text:00000000000002b0 .L0 
     /tmp/cc34eXE9.s:470    .text:00000000000002b4 .L0 
     /tmp/cc34eXE9.s:474    .text:00000000000002b8 .L0 
     /tmp/cc34eXE9.s:476    .text:00000000000002b8 .L0 
     /tmp/cc34eXE9.s:480    .text:00000000000002c0 .L0 
     /tmp/cc34eXE9.s:482    .text:00000000000002c8 .L0 
     /tmp/cc34eXE9.s:488    .text:00000000000002c8 _ZN7_threaddlEPv
     /tmp/cc34eXE9.s:491    .text:00000000000002c8 .L0 
     /tmp/cc34eXE9.s:493    .text:00000000000002c8 .L0 
     /tmp/cc34eXE9.s:494    .text:00000000000002cc .L0 
     /tmp/cc34eXE9.s:498    .text:00000000000002d8 .L0 
     /tmp/cc34eXE9.s:499    .text:00000000000002d8 .L0 
     /tmp/cc34eXE9.s:500    .text:00000000000002d8 .L0 
     /tmp/cc34eXE9.s:502    .text:00000000000002dc .L0 
     /tmp/cc34eXE9.s:505    .text:00000000000002e0 .L0 
     /tmp/cc34eXE9.s:506    .text:00000000000002e0 .L0 
     /tmp/cc34eXE9.s:509    .text:00000000000002e8 .L0 
     /tmp/cc34eXE9.s:513    .text:00000000000002f4 .L0 
     /tmp/cc34eXE9.s:514    .text:00000000000002f8 .L0 
     /tmp/cc34eXE9.s:516    .text:00000000000002fc .L0 
     /tmp/cc34eXE9.s:517    .text:00000000000002fc .L0 
     /tmp/cc34eXE9.s:519    .text:0000000000000300 .L0 
     /tmp/cc34eXE9.s:522    .text:0000000000000304 .L0 
     /tmp/cc34eXE9.s:524    .text:0000000000000308 .L0 
     /tmp/cc34eXE9.s:530    .text:0000000000000308 _ZN7_threaddaEPv
GAS LISTING /tmp/cc34eXE9.s 			page 20


     /tmp/cc34eXE9.s:533    .text:0000000000000308 .L0 
     /tmp/cc34eXE9.s:535    .text:0000000000000308 .L0 
     /tmp/cc34eXE9.s:536    .text:000000000000030c .L0 
     /tmp/cc34eXE9.s:540    .text:0000000000000318 .L0 
     /tmp/cc34eXE9.s:541    .text:0000000000000318 .L0 
     /tmp/cc34eXE9.s:542    .text:0000000000000318 .L0 
     /tmp/cc34eXE9.s:544    .text:000000000000031c .L0 
     /tmp/cc34eXE9.s:547    .text:0000000000000320 .L0 
     /tmp/cc34eXE9.s:548    .text:0000000000000320 .L0 
     /tmp/cc34eXE9.s:551    .text:0000000000000328 .L0 
     /tmp/cc34eXE9.s:555    .text:0000000000000334 .L0 
     /tmp/cc34eXE9.s:556    .text:0000000000000338 .L0 
     /tmp/cc34eXE9.s:558    .text:000000000000033c .L0 
     /tmp/cc34eXE9.s:559    .text:000000000000033c .L0 
     /tmp/cc34eXE9.s:561    .text:0000000000000340 .L0 
     /tmp/cc34eXE9.s:564    .text:0000000000000344 .L0 
     /tmp/cc34eXE9.s:566    .text:0000000000000348 .L0 
     /tmp/cc34eXE9.s:580    .bss:0000000000000008 _ZN7_thread16timeSliceCounterE
     /tmp/cc34eXE9.s:576    .bss:0000000000000000 _ZN7_thread7runningE
     /tmp/cc34eXE9.s:573    .bss:0000000000000000 .LANCHOR0
     /tmp/cc34eXE9.s:589    .text:0000000000000348 .L0 
     /tmp/cc34eXE9.s:22     .text:000000000000000c .L0 
     /tmp/cc34eXE9.s:76     .text:000000000000004c .L0 
     /tmp/cc34eXE9.s:106    .text:000000000000006c .L0 
     /tmp/cc34eXE9.s:200    .text:00000000000000fc .L0 
     /tmp/cc34eXE9.s:248    .text:000000000000013c .L0 
     /tmp/cc34eXE9.s:283    .text:0000000000000178 .L0 
     /tmp/cc34eXE9.s:447    .text:0000000000000288 .L0 
     /tmp/cc34eXE9.s:49     .text:0000000000000030 .L3
     /tmp/cc34eXE9.s:40     .text:0000000000000024 .L2
     /tmp/cc34eXE9.s:100    .text:0000000000000064 .L6
     /tmp/cc34eXE9.s:127    .text:0000000000000098 .L8
     /tmp/cc34eXE9.s:280    .text:0000000000000178 .L20
     /tmp/cc34eXE9.s:285    .text:0000000000000184 .L17
     /tmp/cc34eXE9.s:251    .text:0000000000000148 .L14
     /tmp/cc34eXE9.s:451    .text:0000000000000298 .L25
     /tmp/cc34eXE9.s:473    .text:00000000000002b8 .L29
     /tmp/cc34eXE9.s:478    .text:00000000000002c0 .L30
     /tmp/cc34eXE9.s:424    .text:0000000000000264 .L27
     /tmp/cc34eXE9.s:445    .text:0000000000000288 .L28
     /tmp/cc34eXE9.s:1923   .debug_abbrev:0000000000000000 .Ldebug_abbrev0
     /tmp/cc34eXE9.s:3371   .debug_str:00000000000006cf .LASF131
     /tmp/cc34eXE9.s:3391   .debug_str:0000000000000855 .LASF132
     /tmp/cc34eXE9.s:3409   .debug_str:00000000000008e5 .LASF133
     /tmp/cc34eXE9.s:5      .text:0000000000000000 .Ltext0
     /tmp/cc34eXE9.s:583    .text:0000000000000348 .Letext0
     /tmp/cc34eXE9.s:3133   .debug_line:0000000000000000 .Ldebug_line0
     /tmp/cc34eXE9.s:3291   .debug_str:0000000000000478 .LASF0
     /tmp/cc34eXE9.s:3305   .debug_str:00000000000004c6 .LASF1
     /tmp/cc34eXE9.s:3269   .debug_str:00000000000003e6 .LASF2
     /tmp/cc34eXE9.s:3233   .debug_str:00000000000002ee .LASF4
     /tmp/cc34eXE9.s:3345   .debug_str:00000000000005e0 .LASF3
     /tmp/cc34eXE9.s:3163   .debug_str:00000000000000d8 .LASF5
     /tmp/cc34eXE9.s:3307   .debug_str:00000000000004d9 .LASF6
     /tmp/cc34eXE9.s:3289   .debug_str:0000000000000465 .LASF7
     /tmp/cc34eXE9.s:3387   .debug_str:000000000000082b .LASF8
     /tmp/cc34eXE9.s:3217   .debug_str:000000000000026d .LASF9
GAS LISTING /tmp/cc34eXE9.s 			page 21


     /tmp/cc34eXE9.s:3319   .debug_str:0000000000000531 .LASF10
     /tmp/cc34eXE9.s:3377   .debug_str:00000000000007b8 .LASF11
     /tmp/cc34eXE9.s:3167   .debug_str:00000000000000f1 .LASF12
     /tmp/cc34eXE9.s:3141   .debug_str:000000000000003d .LASF13
     /tmp/cc34eXE9.s:3173   .debug_str:000000000000011b .LASF14
     /tmp/cc34eXE9.s:3335   .debug_str:0000000000000594 .LASF15
     /tmp/cc34eXE9.s:3177   .debug_str:000000000000012d .LASF16
     /tmp/cc34eXE9.s:3263   .debug_str:00000000000003a6 .LASF25
     /tmp/cc34eXE9.s:3203   .debug_str:00000000000001f6 .LASF20
     /tmp/cc34eXE9.s:3411   .debug_str:0000000000000902 .LASF17
     /tmp/cc34eXE9.s:3401   .debug_str:00000000000008b8 .LASF18
     /tmp/cc34eXE9.s:3361   .debug_str:0000000000000686 .LASF19
     /tmp/cc34eXE9.s:3283   .debug_str:0000000000000441 .LASF21
     /tmp/cc34eXE9.s:3185   .debug_str:0000000000000166 .LASF30
     /tmp/cc34eXE9.s:3169   .debug_str:0000000000000101 .LASF22
     /tmp/cc34eXE9.s:3317   .debug_str:0000000000000527 .LASF23
     /tmp/cc34eXE9.s:3181   .debug_str:0000000000000157 .LASF24
     /tmp/cc34eXE9.s:3297   .debug_str:0000000000000495 .LASF27
     /tmp/cc34eXE9.s:3281   .debug_str:0000000000000437 .LASF26
     /tmp/cc34eXE9.s:3251   .debug_str:0000000000000347 .LASF28
     /tmp/cc34eXE9.s:3373   .debug_str:0000000000000793 .LASF35
     /tmp/cc34eXE9.s:3161   .debug_str:00000000000000b4 .LASF64
     /tmp/cc34eXE9.s:3349   .debug_str:0000000000000603 .LASF49
     /tmp/cc34eXE9.s:3359   .debug_str:0000000000000665 .LASF51
     /tmp/cc34eXE9.s:3325   .debug_str:0000000000000563 .LASF29
     /tmp/cc34eXE9.s:3215   .debug_str:000000000000024c .LASF31
     /tmp/cc34eXE9.s:3315   .debug_str:000000000000051d .LASF32
     /tmp/cc34eXE9.s:3259   .debug_str:0000000000000394 .LASF33
     /tmp/cc34eXE9.s:3331   .debug_str:0000000000000584 .LASF34
     /tmp/cc34eXE9.s:3229   .debug_str:00000000000002d2 .LASF134
     /tmp/cc34eXE9.s:3385   .debug_str:000000000000080f .LASF135
     /tmp/cc34eXE9.s:3183   .debug_str:0000000000000161 .LASF36
     /tmp/cc34eXE9.s:3273   .debug_str:0000000000000400 .LASF37
     /tmp/cc34eXE9.s:3231   .debug_str:00000000000002e6 .LASF38
     /tmp/cc34eXE9.s:3149   .debug_str:0000000000000079 .LASF136
     /tmp/cc34eXE9.s:3375   .debug_str:000000000000079f .LASF39
     /tmp/cc34eXE9.s:3329   .debug_str:000000000000057f .LASF137
     /tmp/cc34eXE9.s:3241   .debug_str:000000000000031a .LASF40
     /tmp/cc34eXE9.s:3299   .debug_str:00000000000004b0 .LASF41
     /tmp/cc34eXE9.s:3301   .debug_str:00000000000004b6 .LASF42
     /tmp/cc34eXE9.s:3239   .debug_str:0000000000000311 .LASF43
     /tmp/cc34eXE9.s:3135   .debug_str:0000000000000000 .LASF44
     /tmp/cc34eXE9.s:3245   .debug_str:000000000000032a .LASF45
     /tmp/cc34eXE9.s:3255   .debug_str:000000000000036e .LASF138
     /tmp/cc34eXE9.s:3221   .debug_str:0000000000000291 .LASF139
     /tmp/cc34eXE9.s:3347   .debug_str:00000000000005f2 .LASF46
     /tmp/cc34eXE9.s:3253   .debug_str:0000000000000363 .LASF47
     /tmp/cc34eXE9.s:3227   .debug_str:00000000000002c7 .LASF48
     /tmp/cc34eXE9.s:3381   .debug_str:00000000000007f3 .LASF50
     /tmp/cc34eXE9.s:3311   .debug_str:00000000000004f7 .LASF52
     /tmp/cc34eXE9.s:3309   .debug_str:00000000000004ec .LASF53
     /tmp/cc34eXE9.s:3265   .debug_str:00000000000003b6 .LASF54
     /tmp/cc34eXE9.s:3271   .debug_str:00000000000003f4 .LASF55
     /tmp/cc34eXE9.s:3137   .debug_str:0000000000000008 .LASF56
     /tmp/cc34eXE9.s:3147   .debug_str:000000000000006f .LASF57
     /tmp/cc34eXE9.s:3145   .debug_str:0000000000000056 .LASF58
     /tmp/cc34eXE9.s:3237   .debug_str:0000000000000306 .LASF59
GAS LISTING /tmp/cc34eXE9.s 			page 22


     /tmp/cc34eXE9.s:3415   .debug_str:000000000000091a .LASF60
     /tmp/cc34eXE9.s:3261   .debug_str:0000000000000399 .LASF61
     /tmp/cc34eXE9.s:3323   .debug_str:0000000000000546 .LASF62
     /tmp/cc34eXE9.s:3211   .debug_str:0000000000000226 .LASF68
     /tmp/cc34eXE9.s:3277   .debug_str:000000000000040c .LASF70
     /tmp/cc34eXE9.s:3403   .debug_str:00000000000008bd .LASF63
     /tmp/cc34eXE9.s:3389   .debug_str:000000000000083b .LASF65
     /tmp/cc34eXE9.s:3247   .debug_str:0000000000000332 .LASF66
     /tmp/cc34eXE9.s:3399   .debug_str:0000000000000894 .LASF67
     /tmp/cc34eXE9.s:3337   .debug_str:00000000000005aa .LASF69
     /tmp/cc34eXE9.s:3365   .debug_str:00000000000006a2 .LASF71
     /tmp/cc34eXE9.s:3295   .debug_str:000000000000048c .LASF72
     /tmp/cc34eXE9.s:3363   .debug_str:000000000000068b .LASF73
     /tmp/cc34eXE9.s:3393   .debug_str:0000000000000865 .LASF74
     /tmp/cc34eXE9.s:3379   .debug_str:00000000000007c7 .LASF75
     /tmp/cc34eXE9.s:3303   .debug_str:00000000000004c0 .LASF76
     /tmp/cc34eXE9.s:3355   .debug_str:000000000000063c .LASF77
     /tmp/cc34eXE9.s:3193   .debug_str:00000000000001b8 .LASF78
     /tmp/cc34eXE9.s:3397   .debug_str:0000000000000887 .LASF79
     /tmp/cc34eXE9.s:3339   .debug_str:00000000000005b0 .LASF80
     /tmp/cc34eXE9.s:3213   .debug_str:000000000000023c .LASF81
     /tmp/cc34eXE9.s:3199   .debug_str:00000000000001dc .LASF82
     /tmp/cc34eXE9.s:3353   .debug_str:000000000000062c .LASF83
     /tmp/cc34eXE9.s:3235   .debug_str:00000000000002f5 .LASF84
     /tmp/cc34eXE9.s:3413   .debug_str:0000000000000907 .LASF122
     /tmp/cc34eXE9.s:3285   .debug_str:0000000000000449 .LASF124
     /tmp/cc34eXE9.s:3175   .debug_str:0000000000000127 .LASF85
     /tmp/cc34eXE9.s:3333   .debug_str:0000000000000589 .LASF86
     /tmp/cc34eXE9.s:3407   .debug_str:00000000000008cd .LASF87
     /tmp/cc34eXE9.s:3159   .debug_str:00000000000000a6 .LASF88
     /tmp/cc34eXE9.s:3191   .debug_str:000000000000019d .LASF89
     /tmp/cc34eXE9.s:3205   .debug_str:00000000000001fe .LASF90
     /tmp/cc34eXE9.s:3139   .debug_str:0000000000000023 .LASF91
     /tmp/cc34eXE9.s:3143   .debug_str:000000000000004d .LASF92
     /tmp/cc34eXE9.s:3357   .debug_str:0000000000000650 .LASF93
     /tmp/cc34eXE9.s:3189   .debug_str:0000000000000194 .LASF94
     /tmp/cc34eXE9.s:3187   .debug_str:000000000000017f .LASF95
     /tmp/cc34eXE9.s:3275   .debug_str:0000000000000405 .LASF96
     /tmp/cc34eXE9.s:3327   .debug_str:000000000000056c .LASF97
     /tmp/cc34eXE9.s:3369   .debug_str:00000000000006c8 .LASF98
     /tmp/cc34eXE9.s:3383   .debug_str:00000000000007fc .LASF99
     /tmp/cc34eXE9.s:3209   .debug_str:000000000000021e .LASF100
     /tmp/cc34eXE9.s:3179   .debug_str:0000000000000143 .LASF101
     /tmp/cc34eXE9.s:3341   .debug_str:00000000000005c0 .LASF102
     /tmp/cc34eXE9.s:3223   .debug_str:00000000000002ae .LASF103
     /tmp/cc34eXE9.s:3195   .debug_str:00000000000001c0 .LASF104
     /tmp/cc34eXE9.s:3395   .debug_str:0000000000000873 .LASF105
     /tmp/cc34eXE9.s:3249   .debug_str:000000000000033f .LASF106
     /tmp/cc34eXE9.s:3197   .debug_str:00000000000001c8 .LASF107
     /tmp/cc34eXE9.s:3293   .debug_str:0000000000000485 .LASF108
     /tmp/cc34eXE9.s:3157   .debug_str:0000000000000093 .LASF109
     /tmp/cc34eXE9.s:3155   .debug_str:000000000000008c .LASF110
     /tmp/cc34eXE9.s:3207   .debug_str:000000000000020b .LASF111
     /tmp/cc34eXE9.s:3279   .debug_str:0000000000000431 .LASF112
     /tmp/cc34eXE9.s:3367   .debug_str:00000000000006b6 .LASF113
     /tmp/cc34eXE9.s:3153   .debug_str:0000000000000086 .LASF114
     /tmp/cc34eXE9.s:3165   .debug_str:00000000000000df .LASF115
GAS LISTING /tmp/cc34eXE9.s 			page 23


     /tmp/cc34eXE9.s:3287   .debug_str:000000000000045a .LASF116
     /tmp/cc34eXE9.s:3343   .debug_str:00000000000005c8 .LASF117
     /tmp/cc34eXE9.s:3243   .debug_str:000000000000031f .LASF118
     /tmp/cc34eXE9.s:3257   .debug_str:000000000000037c .LASF119
     /tmp/cc34eXE9.s:3171   .debug_str:0000000000000111 .LASF120
     /tmp/cc34eXE9.s:3313   .debug_str:0000000000000507 .LASF121
     /tmp/cc34eXE9.s:3201   .debug_str:00000000000001ec .LASF123
     /tmp/cc34eXE9.s:3219   .debug_str:000000000000027b .LASF125
     /tmp/cc34eXE9.s:3225   .debug_str:00000000000002c2 .LASF126
     /tmp/cc34eXE9.s:3151   .debug_str:0000000000000081 .LASF127
     /tmp/cc34eXE9.s:3267   .debug_str:00000000000003d1 .LASF128
     /tmp/cc34eXE9.s:3351   .debug_str:000000000000060d .LASF129
     /tmp/cc34eXE9.s:531    .text:0000000000000308 .LFB49
     /tmp/cc34eXE9.s:567    .text:0000000000000348 .LFE49
     /tmp/cc34eXE9.s:2916   .debug_loc:0000000000000000 .LLST14
     /tmp/cc34eXE9.s:549    .text:0000000000000328 .LVL44
     /tmp/cc34eXE9.s:553    .text:0000000000000334 .LVL45
     /tmp/cc34eXE9.s:489    .text:00000000000002c8 .LFB48
     /tmp/cc34eXE9.s:525    .text:0000000000000308 .LFE48
     /tmp/cc34eXE9.s:2934   .debug_loc:000000000000004c .LLST13
     /tmp/cc34eXE9.s:507    .text:00000000000002e8 .LVL40
     /tmp/cc34eXE9.s:511    .text:00000000000002f4 .LVL41
     /tmp/cc34eXE9.s:338    .text:00000000000001cc .LFB47
     /tmp/cc34eXE9.s:376    .text:0000000000000210 .LFE47
     /tmp/cc34eXE9.s:2952   .debug_loc:0000000000000098 .LLST9
     /tmp/cc34eXE9.s:356    .text:00000000000001ec .LVL27
     /tmp/cc34eXE9.s:362    .text:00000000000001fc .LVL28
     /tmp/cc34eXE9.s:294    .text:0000000000000188 .LFB46
     /tmp/cc34eXE9.s:332    .text:00000000000001cc .LFE46
     /tmp/cc34eXE9.s:2970   .debug_loc:00000000000000e4 .LLST8
     /tmp/cc34eXE9.s:312    .text:00000000000001a8 .LVL23
     /tmp/cc34eXE9.s:318    .text:00000000000001b8 .LVL24
     /tmp/cc34eXE9.s:181    .text:00000000000000e0 .LFB45
     /tmp/cc34eXE9.s:236    .text:000000000000013c .LFE45
     /tmp/cc34eXE9.s:211    .text:0000000000000118 .LBB16
     /tmp/cc34eXE9.s:219    .text:0000000000000120 .LBE16
     /tmp/cc34eXE9.s:2988   .debug_loc:0000000000000130 .LLST5
     /tmp/cc34eXE9.s:2996   .debug_loc:0000000000000154 .LLST6
     /tmp/cc34eXE9.s:197    .text:00000000000000fc .LVL14
     /tmp/cc34eXE9.s:223    .text:0000000000000128 .LVL18
     /tmp/cc34eXE9.s:242    .text:000000000000013c .LFB44
     /tmp/cc34eXE9.s:288    .text:0000000000000188 .LFE44
     /tmp/cc34eXE9.s:3405   .debug_str:00000000000008c8 .LASF130
     /tmp/cc34eXE9.s:3003   .debug_loc:0000000000000177 .LLST7
     /tmp/cc34eXE9.s:269    .text:0000000000000168 .LVL20
     /tmp/cc34eXE9.s:61     .text:0000000000000038 .LFB43
     /tmp/cc34eXE9.s:136    .text:00000000000000a8 .LFE43
     /tmp/cc34eXE9.s:3021   .debug_loc:00000000000001c3 .LLST2
     /tmp/cc34eXE9.s:79     .text:0000000000000054 .LBB12
     /tmp/cc34eXE9.s:86     .text:0000000000000058 .LBE12
     /tmp/cc34eXE9.s:3032   .debug_loc:00000000000001f9 .LLST3
     /tmp/cc34eXE9.s:90     .text:000000000000005c .LBB14
     /tmp/cc34eXE9.s:97     .text:0000000000000060 .LBE14
     /tmp/cc34eXE9.s:3039   .debug_loc:000000000000021c .LLST4
     /tmp/cc34eXE9.s:104    .text:000000000000006c .LVL6
     /tmp/cc34eXE9.s:112    .text:0000000000000084 .LVL7
     /tmp/cc34eXE9.s:133    .text:00000000000000a4 .LVL10
GAS LISTING /tmp/cc34eXE9.s 			page 24


     /tmp/cc34eXE9.s:142    .text:00000000000000a8 .LFB42
     /tmp/cc34eXE9.s:175    .text:00000000000000e0 .LFE42
     /tmp/cc34eXE9.s:156    .text:00000000000000c0 .LVL11
     /tmp/cc34eXE9.s:160    .text:00000000000000c8 .LVL12
     /tmp/cc34eXE9.s:164    .text:00000000000000d0 .LVL13
     /tmp/cc34eXE9.s:382    .text:0000000000000210 .LFB41
     /tmp/cc34eXE9.s:483    .text:00000000000002c8 .LFE41
     /tmp/cc34eXE9.s:3046   .debug_loc:000000000000023f .LLST10
     /tmp/cc34eXE9.s:3068   .debug_loc:000000000000029e .LLST11
     /tmp/cc34eXE9.s:3090   .debug_loc:00000000000002fd .LLST12
     /tmp/cc34eXE9.s:405    .text:000000000000023c .LVL31
     /tmp/cc34eXE9.s:409    .text:0000000000000248 .LVL32
     /tmp/cc34eXE9.s:423    .text:0000000000000264 .LVL34
     /tmp/cc34eXE9.s:10     .text:0000000000000000 .LFB40
     /tmp/cc34eXE9.s:55     .text:0000000000000038 .LFE40
     /tmp/cc34eXE9.s:27     .text:0000000000000018 .LBB10
     /tmp/cc34eXE9.s:36     .text:0000000000000020 .LBE10
     /tmp/cc34eXE9.s:3105   .debug_loc:0000000000000346 .LLST0
     /tmp/cc34eXE9.s:3113   .debug_loc:000000000000036a .LLST1
     /tmp/cc34eXE9.s:3321   .debug_str:0000000000000540 .LASF140
     /tmp/cc34eXE9.s:534    .text:0000000000000308 .LVL43
     /tmp/cc34eXE9.s:562    .text:0000000000000340 .LVL46
     /tmp/cc34eXE9.s:492    .text:00000000000002c8 .LVL39
     /tmp/cc34eXE9.s:520    .text:0000000000000300 .LVL42
     /tmp/cc34eXE9.s:341    .text:00000000000001cc .LVL26
     /tmp/cc34eXE9.s:371    .text:0000000000000208 .LVL29
     /tmp/cc34eXE9.s:297    .text:0000000000000188 .LVL22
     /tmp/cc34eXE9.s:327    .text:00000000000001c4 .LVL25
     /tmp/cc34eXE9.s:210    .text:0000000000000118 .LVL16
     /tmp/cc34eXE9.s:217    .text:0000000000000120 .LVL17
     /tmp/cc34eXE9.s:245    .text:000000000000013c .LVL19
     /tmp/cc34eXE9.s:279    .text:0000000000000178 .LVL21
     /tmp/cc34eXE9.s:77     .text:0000000000000054 .LVL2
     /tmp/cc34eXE9.s:122    .text:0000000000000090 .LVL8
     /tmp/cc34eXE9.s:126    .text:0000000000000098 .LVL9
     /tmp/cc34eXE9.s:84     .text:0000000000000058 .LVL3
     /tmp/cc34eXE9.s:89     .text:000000000000005c .LVL4
     /tmp/cc34eXE9.s:95     .text:0000000000000060 .LVL5
     /tmp/cc34eXE9.s:385    .text:0000000000000210 .LVL30
     /tmp/cc34eXE9.s:465    .text:00000000000002ac .LVL36
     /tmp/cc34eXE9.s:472    .text:00000000000002b8 .LVL38
     /tmp/cc34eXE9.s:468    .text:00000000000002b0 .LVL37
     /tmp/cc34eXE9.s:411    .text:000000000000024c .LVL33
     /tmp/cc34eXE9.s:462    .text:00000000000002a8 .LVL35
     /tmp/cc34eXE9.s:26     .text:0000000000000018 .LVL0
     /tmp/cc34eXE9.s:34     .text:0000000000000020 .LVL1
     /tmp/cc34eXE9.s:590    .debug_info:0000000000000000 .Ldebug_info0

UNDEFINED SYMBOLS
_ZN9Scheduler3getEv
_ZN7_thread13contextSwitchEPNS_7ContextES1_
_ZN9Scheduler3putEP7_thread
_ZN5Riscv13pushRegistersEv
_ZN5Riscv12popRegistersEv
_ZN5Riscv10popSppSpieEv
_ZN15MemoryAllocator11getInstanceEv
_ZN15MemoryAllocator9mem_allocEm
GAS LISTING /tmp/cc34eXE9.s 			page 25


_ZN15MemoryAllocator8mem_freeEPv
