GAS LISTING /tmp/ccInUOoV.s 			page 1


   1              		.file	"Blocked.cpp"
   2              		.option pic
   3              		.option norelax
   4              		.text
   5              	.Ltext0:
   6              		.align	2
   7              		.globl	_ZN7Blocked3getEv
   9              	_ZN7Blocked3getEv:
  10              	.LFB43:
  11              		.file 1 "src/Blocked.cpp"
   1:src/Blocked.cpp **** //
   2:src/Blocked.cpp **** // Created by os on 6/26/22.
   3:src/Blocked.cpp **** //
   4:src/Blocked.cpp **** 
   5:src/Blocked.cpp **** //
   6:src/Blocked.cpp **** // Created by os on 6/21/22.
   7:src/Blocked.cpp **** //
   8:src/Blocked.cpp **** 
   9:src/Blocked.cpp **** #include "../h/Blocked.h"
  10:src/Blocked.cpp **** 
  11:src/Blocked.cpp **** 
  12:src/Blocked.cpp **** _thread *Blocked::get()
  13:src/Blocked.cpp **** {
  12              		.loc 1 13 1
  13              		.cfi_startproc
  14              	.LVL0:
  15 0000 130101FE 		addi	sp,sp,-32
  16              		.cfi_def_cfa_offset 32
  17 0004 233C1100 		sd	ra,24(sp)
  18 0008 23388100 		sd	s0,16(sp)
  19 000c 23349100 		sd	s1,8(sp)
  20              		.cfi_offset 1, -8
  21              		.cfi_offset 8, -16
  22              		.cfi_offset 9, -24
  23 0010 13040102 		addi	s0,sp,32
  24              		.cfi_def_cfa 8, 0
  25 0014 93070500 		mv	a5,a0
  14:src/Blocked.cpp ****     if (!head) return nullptr;
  26              		.loc 1 14 5
  27              		.loc 1 14 10 is_stmt 0
  28 0018 03350500 		ld	a0,0(a0)
  29              	.LVL1:
  30              		.loc 1 14 5
  31 001c 630E0502 		beqz	a0,.L4
  15:src/Blocked.cpp **** 
  16:src/Blocked.cpp ****     Elem* elem = head;
  32              		.loc 1 16 5 is_stmt 1
  33              	.LVL2:
  17:src/Blocked.cpp ****     head = head->next;
  34              		.loc 1 17 5
  35              		.loc 1 17 18 is_stmt 0
  36 0020 03378500 		ld	a4,8(a0)
  37              		.loc 1 17 10
  38 0024 23B0E700 		sd	a4,0(a5)
  18:src/Blocked.cpp ****     if (!head) tail = 0;
  39              		.loc 1 18 5 is_stmt 1
  40 0028 63040702 		beqz	a4,.L6
GAS LISTING /tmp/ccInUOoV.s 			page 2


  41              	.L3:
  19:src/Blocked.cpp **** 
  20:src/Blocked.cpp ****     _thread *ret = elem->data;
  42              		.loc 1 20 5
  43              		.loc 1 20 14 is_stmt 0
  44 002c 83340500 		ld	s1,0(a0)
  45              	.LVL3:
  21:src/Blocked.cpp ****     MemoryAllocator::mem_free(elem);
  46              		.loc 1 21 5 is_stmt 1
  47              		.loc 1 21 30 is_stmt 0
  48 0030 97000000 		call	_ZN15MemoryAllocator8mem_freeEPv@plt
  48      E7800000 
  49              	.LVL4:
  22:src/Blocked.cpp ****     return ret;
  50              		.loc 1 22 5 is_stmt 1
  51              	.L1:
  23:src/Blocked.cpp **** }
  52              		.loc 1 23 1 is_stmt 0
  53 0038 13850400 		mv	a0,s1
  54 003c 83308101 		ld	ra,24(sp)
  55              		.cfi_remember_state
  56              		.cfi_restore 1
  57 0040 03340101 		ld	s0,16(sp)
  58              		.cfi_restore 8
  59              		.cfi_def_cfa 2, 32
  60 0044 83348100 		ld	s1,8(sp)
  61              		.cfi_restore 9
  62 0048 13010102 		addi	sp,sp,32
  63              		.cfi_def_cfa_offset 0
  64 004c 67800000 		jr	ra
  65              	.LVL5:
  66              	.L6:
  67              		.cfi_restore_state
  18:src/Blocked.cpp **** 
  68              		.loc 1 18 16 is_stmt 1 discriminator 1
  18:src/Blocked.cpp **** 
  69              		.loc 1 18 21 is_stmt 0 discriminator 1
  70 0050 23B40700 		sd	zero,8(a5)
  71 0054 6FF09FFD 		j	.L3
  72              	.LVL6:
  73              	.L4:
  14:src/Blocked.cpp **** 
  74              		.loc 1 14 23
  75 0058 93040500 		mv	s1,a0
  76 005c 6FF0DFFD 		j	.L1
  77              		.cfi_endproc
  78              	.LFE43:
  80              		.align	2
  81              		.globl	_ZN7Blocked3putEP7_thread
  83              	_ZN7Blocked3putEP7_thread:
  84              	.LFB44:
  24:src/Blocked.cpp **** 
  25:src/Blocked.cpp **** void Blocked::put(_thread *blocked)
  26:src/Blocked.cpp **** {
  85              		.loc 1 26 1 is_stmt 1
  86              		.cfi_startproc
  87              	.LVL7:
GAS LISTING /tmp/ccInUOoV.s 			page 3


  88 0060 130101FE 		addi	sp,sp,-32
  89              		.cfi_def_cfa_offset 32
  90 0064 233C1100 		sd	ra,24(sp)
  91 0068 23388100 		sd	s0,16(sp)
  92 006c 23349100 		sd	s1,8(sp)
  93 0070 23302101 		sd	s2,0(sp)
  94              		.cfi_offset 1, -8
  95              		.cfi_offset 8, -16
  96              		.cfi_offset 9, -24
  97              		.cfi_offset 18, -32
  98 0074 13040102 		addi	s0,sp,32
  99              		.cfi_def_cfa 8, 0
 100 0078 93040500 		mv	s1,a0
 101 007c 13890500 		mv	s2,a1
  27:src/Blocked.cpp ****     Elem* elem = (Elem*) MemoryAllocator::mem_alloc((sizeof(Elem)+MEM_BLOCK_SIZE-1+sizeof(MemoryAll
 102              		.loc 1 27 5
 103              		.loc 1 27 52 is_stmt 0
 104 0080 13051000 		li	a0,1
 105              	.LVL8:
 106 0084 97000000 		call	_ZN15MemoryAllocator9mem_allocEm@plt
 106      E7800000 
 107              	.LVL9:
  28:src/Blocked.cpp ****     elem->data = blocked;
 108              		.loc 1 28 5 is_stmt 1
 109              		.loc 1 28 16 is_stmt 0
 110 008c 23302501 		sd	s2,0(a0)
  29:src/Blocked.cpp ****     elem->next = nullptr;
 111              		.loc 1 29 5 is_stmt 1
 112              		.loc 1 29 16 is_stmt 0
 113 0090 23340500 		sd	zero,8(a0)
  30:src/Blocked.cpp ****     if(tail){
 114              		.loc 1 30 5 is_stmt 1
 115              		.loc 1 30 8 is_stmt 0
 116 0094 83B78400 		ld	a5,8(s1)
 117              		.loc 1 30 5
 118 0098 63820702 		beqz	a5,.L8
  31:src/Blocked.cpp ****         tail->next = elem;
 119              		.loc 1 31 9 is_stmt 1
 120              		.loc 1 31 20 is_stmt 0
 121 009c 23B4A700 		sd	a0,8(a5)
  32:src/Blocked.cpp ****         tail = elem;
 122              		.loc 1 32 9 is_stmt 1
 123              		.loc 1 32 14 is_stmt 0
 124 00a0 23B4A400 		sd	a0,8(s1)
 125              	.L7:
  33:src/Blocked.cpp ****     }else{
  34:src/Blocked.cpp ****         head = tail = elem;
  35:src/Blocked.cpp ****     }
  36:src/Blocked.cpp **** }...
 126              		.loc 1 36 1
 127 00a4 83308101 		ld	ra,24(sp)
 128              		.cfi_remember_state
 129              		.cfi_restore 1
 130 00a8 03340101 		ld	s0,16(sp)
 131              		.cfi_restore 8
 132              		.cfi_def_cfa 2, 32
 133 00ac 83348100 		ld	s1,8(sp)
GAS LISTING /tmp/ccInUOoV.s 			page 4


 134              		.cfi_restore 9
 135              	.LVL10:
 136 00b0 03390100 		ld	s2,0(sp)
 137              		.cfi_restore 18
 138              	.LVL11:
 139 00b4 13010102 		addi	sp,sp,32
 140              		.cfi_def_cfa_offset 0
 141 00b8 67800000 		jr	ra
 142              	.LVL12:
 143              	.L8:
 144              		.cfi_restore_state
  34:src/Blocked.cpp ****         head = tail = elem;
 145              		.loc 1 34 9 is_stmt 1
  34:src/Blocked.cpp ****         head = tail = elem;
 146              		.loc 1 34 21 is_stmt 0
 147 00bc 23B4A400 		sd	a0,8(s1)
  34:src/Blocked.cpp ****         head = tail = elem;
 148              		.loc 1 34 14
 149 00c0 23B0A400 		sd	a0,0(s1)
 150              		.loc 1 36 1
 151 00c4 6FF01FFE 		j	.L7
 152              		.cfi_endproc
 153              	.LFE44:
 155              	.Letext0:
 156              		.file 2 "src/../h/../h/../lib/hw.h"
 157              		.file 3 "src/../h/../h/MemoryAllocator.h"
 158              		.file 4 "src/../h/../h/_thread.h"
 159              		.file 5 "src/../h/Blocked.h"
 160              		.file 6 "src/../h/../h/../h/syscall_c.h"
GAS LISTING /tmp/ccInUOoV.s 			page 5

