GAS LISTING /tmp/ccP0RMbh.s 			page 1


   1              		.file	"main.cpp"
   2              		.option pic
   3              		.option norelax
   4              		.text
   5              	.Ltext0:
   6              		.align	2
   7              		.globl	_Z12checkNullptrPv
   9              	_Z12checkNullptrPv:
  10              	.LFB40:
  11              		.file 1 "src/main.cpp"
   1:src/main.cpp  **** 
   2:src/main.cpp  **** #include "../lib/hw.h"
   3:src/main.cpp  **** #include "../lib/console.h"
   4:src/main.cpp  **** #include "../h/MemoryAllocator.h"
   5:src/main.cpp  **** #include "../h/syscall_c.h"
   6:src/main.cpp  **** #include "../h/riscv.h"
   7:src/main.cpp  **** #include "../h/_thread.h"
   8:src/main.cpp  **** 
   9:src/main.cpp  **** 
  10:src/main.cpp  **** //uint64  timerCount = 0;
  11:src/main.cpp  **** //
  12:src/main.cpp  **** //extern "C" void handleSupervisorTrap(){
  13:src/main.cpp  **** //    uint64 scause;
  14:src/main.cpp  **** //    __asm__ volatile("csrr %[scause], scause" : [scause] "=r" (scause) );
  15:src/main.cpp  **** //    if(scause == (0x01UL << 63 | 0x01)){
  16:src/main.cpp  **** //        timerCount++;
  17:src/main.cpp  **** //        if (timerCount >= 50){
  18:src/main.cpp  **** //            __putc('a');
  19:src/main.cpp  **** //            __putc('\n');
  20:src/main.cpp  **** //            timerCount = 0;
  21:src/main.cpp  **** //        }
  22:src/main.cpp  **** //        __asm__ volatile("csrc sip, 0x02");
  23:src/main.cpp  **** //    }
  24:src/main.cpp  **** //    console_handler();
  25:src/main.cpp  **** //}
  26:src/main.cpp  **** //extern "C" void supervisorTrap();
  27:src/main.cpp  **** 
  28:src/main.cpp  **** void checkNullptr(void* p) {
  12              		.loc 1 28 28
  13              		.cfi_startproc
  14              	.LVL0:
  29:src/main.cpp  ****     static int x = 0;
  15              		.loc 1 29 5
  30:src/main.cpp  ****     if(p == nullptr) {
  16              		.loc 1 30 5
  17 0000 630E0500 		beqz	a0,.L7
  31:src/main.cpp  ****         __putc('?');
  32:src/main.cpp  ****         __putc('0' + x);
  33:src/main.cpp  ****     }
  34:src/main.cpp  ****     x++;
  18              		.loc 1 34 5
  19              		.loc 1 34 6 is_stmt 0
  20 0004 17070000 		lla	a4,.LANCHOR0
  20      13070700 
  21 000c 83270700 		lw	a5,0(a4)
  22 0010 9B871700 		addiw	a5,a5,1
  23 0014 2320F700 		sw	a5,0(a4)
GAS LISTING /tmp/ccP0RMbh.s 			page 2


  24 0018 67800000 		ret
  25              	.L7:
  28:src/main.cpp  ****     static int x = 0;
  26              		.loc 1 28 28
  27 001c 130101FF 		addi	sp,sp,-16
  28              		.cfi_def_cfa_offset 16
  29 0020 23341100 		sd	ra,8(sp)
  30 0024 23308100 		sd	s0,0(sp)
  31              		.cfi_offset 1, -8
  32              		.cfi_offset 8, -16
  33 0028 13040101 		addi	s0,sp,16
  34              		.cfi_def_cfa 8, 0
  31:src/main.cpp  ****         __putc('?');
  35              		.loc 1 31 9 is_stmt 1
  31:src/main.cpp  ****         __putc('?');
  36              		.loc 1 31 15 is_stmt 0
  37 002c 1305F003 		li	a0,63
  38              	.LVL1:
  39 0030 97000000 		call	__putc@plt
  39      E7800000 
  40              	.LVL2:
  32:src/main.cpp  ****     }
  41              		.loc 1 32 9 is_stmt 1
  32:src/main.cpp  ****     }
  42              		.loc 1 32 15 is_stmt 0
  43 0038 17050000 		lw	a0,.LANCHOR0
  43      03250500 
  44 0040 1B050503 		addiw	a0,a0,48
  45 0044 1375F50F 		andi	a0,a0,0xff
  46 0048 97000000 		call	__putc@plt
  46      E7800000 
  47              	.LVL3:
  48              		.loc 1 34 5 is_stmt 1
  49              		.loc 1 34 6 is_stmt 0
  50 0050 17070000 		lla	a4,.LANCHOR0
  50      13070700 
  51 0058 83270700 		lw	a5,0(a4)
  52 005c 9B871700 		addiw	a5,a5,1
  53 0060 2320F700 		sw	a5,0(a4)
  35:src/main.cpp  **** }
  54              		.loc 1 35 1
  55 0064 83308100 		ld	ra,8(sp)
  56              		.cfi_restore 1
  57 0068 03340100 		ld	s0,0(sp)
  58              		.cfi_restore 8
  59              		.cfi_def_cfa 2, 16
  60 006c 13010101 		addi	sp,sp,16
  61              		.cfi_def_cfa_offset 0
  62 0070 67800000 		jr	ra
  63              		.cfi_endproc
  64              	.LFE40:
  66              		.align	2
  67              		.globl	_Z11checkStatusi
  69              	_Z11checkStatusi:
  70              	.LFB41:
  36:src/main.cpp  **** 
  37:src/main.cpp  **** void checkStatus(int status) {
GAS LISTING /tmp/ccP0RMbh.s 			page 3


  71              		.loc 1 37 30 is_stmt 1
  72              		.cfi_startproc
  73              	.LVL4:
  38:src/main.cpp  ****     static int y = 0;
  74              		.loc 1 38 5
  39:src/main.cpp  ****     if(status) {
  75              		.loc 1 39 5
  76 0074 631E0500 		bnez	a0,.L14
  40:src/main.cpp  ****         __putc('0' + y);
  41:src/main.cpp  ****         __putc('?');
  42:src/main.cpp  ****     }
  43:src/main.cpp  ****     y++;
  77              		.loc 1 43 5
  78              		.loc 1 43 6 is_stmt 0
  79 0078 17070000 		lla	a4,.LANCHOR0
  79      13070700 
  80 0080 83274700 		lw	a5,4(a4)
  81 0084 9B871700 		addiw	a5,a5,1
  82 0088 2322F700 		sw	a5,4(a4)
  83 008c 67800000 		ret
  84              	.L14:
  37:src/main.cpp  ****     static int y = 0;
  85              		.loc 1 37 30
  86 0090 130101FF 		addi	sp,sp,-16
  87              		.cfi_def_cfa_offset 16
  88 0094 23341100 		sd	ra,8(sp)
  89 0098 23308100 		sd	s0,0(sp)
  90              		.cfi_offset 1, -8
  91              		.cfi_offset 8, -16
  92 009c 13040101 		addi	s0,sp,16
  93              		.cfi_def_cfa 8, 0
  40:src/main.cpp  ****         __putc('0' + y);
  94              		.loc 1 40 9 is_stmt 1
  40:src/main.cpp  ****         __putc('0' + y);
  95              		.loc 1 40 15 is_stmt 0
  96 00a0 17050000 		lw	a0,.LANCHOR0+4
  96      03250500 
  97              	.LVL5:
  98 00a8 1B050503 		addiw	a0,a0,48
  99 00ac 1375F50F 		andi	a0,a0,0xff
 100 00b0 97000000 		call	__putc@plt
 100      E7800000 
 101              	.LVL6:
  41:src/main.cpp  ****     }
 102              		.loc 1 41 9 is_stmt 1
  41:src/main.cpp  ****     }
 103              		.loc 1 41 15 is_stmt 0
 104 00b8 1305F003 		li	a0,63
 105 00bc 97000000 		call	__putc@plt
 105      E7800000 
 106              	.LVL7:
 107              		.loc 1 43 5 is_stmt 1
 108              		.loc 1 43 6 is_stmt 0
 109 00c4 17070000 		lla	a4,.LANCHOR0
 109      13070700 
 110 00cc 83274700 		lw	a5,4(a4)
 111 00d0 9B871700 		addiw	a5,a5,1
GAS LISTING /tmp/ccP0RMbh.s 			page 4


 112 00d4 2322F700 		sw	a5,4(a4)
  44:src/main.cpp  **** }
 113              		.loc 1 44 1
 114 00d8 83308100 		ld	ra,8(sp)
 115              		.cfi_restore 1
 116 00dc 03340100 		ld	s0,0(sp)
 117              		.cfi_restore 8
 118              		.cfi_def_cfa 2, 16
 119 00e0 13010101 		addi	sp,sp,16
 120              		.cfi_def_cfa_offset 0
 121 00e4 67800000 		jr	ra
 122              		.cfi_endproc
 123              	.LFE41:
 125              		.align	2
 126              		.globl	main
 128              	main:
 129              	.LFB42:
  45:src/main.cpp  **** extern "C" void trap();
  46:src/main.cpp  **** void userMain(void *);
  47:src/main.cpp  **** 
  48:src/main.cpp  **** int main(){
 130              		.loc 1 48 11 is_stmt 1
 131              		.cfi_startproc
 132 00e8 130101FE 		addi	sp,sp,-32
 133              		.cfi_def_cfa_offset 32
 134 00ec 233C1100 		sd	ra,24(sp)
 135 00f0 23388100 		sd	s0,16(sp)
 136 00f4 23349100 		sd	s1,8(sp)
 137 00f8 23302101 		sd	s2,0(sp)
 138              		.cfi_offset 1, -8
 139              		.cfi_offset 8, -16
 140              		.cfi_offset 9, -24
 141              		.cfi_offset 18, -32
 142 00fc 13040102 		addi	s0,sp,32
 143              		.cfi_def_cfa 8, 0
  49:src/main.cpp  **** 
  50:src/main.cpp  ****     Riscv::w_stvec((uint64) &trap);
 144              		.loc 1 50 5
 145              		.loc 1 50 19 is_stmt 0
 146 0100 97070000 		la	a5,trap
 146      83B70700 
 147              	.LVL8:
 148              	.LBB8:
 149              	.LBB9:
 150              		.file 2 "src/../h/riscv.h"
   1:src/../h/riscv.h **** //
   2:src/../h/riscv.h **** // Created by os on 6/21/22.
   3:src/../h/riscv.h **** //
   4:src/../h/riscv.h **** 
   5:src/../h/riscv.h **** #ifndef OS_PROJEKAT_RISCV_H
   6:src/../h/riscv.h **** #define OS_PROJEKAT_RISCV_H
   7:src/../h/riscv.h **** 
   8:src/../h/riscv.h **** #include "../lib/hw.h"
   9:src/../h/riscv.h **** 
  10:src/../h/riscv.h **** class Riscv
  11:src/../h/riscv.h **** {
  12:src/../h/riscv.h **** public:
GAS LISTING /tmp/ccP0RMbh.s 			page 5


  13:src/../h/riscv.h **** 
  14:src/../h/riscv.h ****     // pop sstatus.spp and sstatus.spie bits (has to be a non inline function)
  15:src/../h/riscv.h ****     static void popSppSpie();
  16:src/../h/riscv.h **** 
  17:src/../h/riscv.h ****     // push x3..x31 registers onto stack
  18:src/../h/riscv.h ****     static void pushRegisters();
  19:src/../h/riscv.h **** 
  20:src/../h/riscv.h ****     // pop x3..x31 registers onto stack
  21:src/../h/riscv.h ****     static void popRegisters();
  22:src/../h/riscv.h **** 
  23:src/../h/riscv.h ****     // read register scause
  24:src/../h/riscv.h ****     static uint64 r_scause();
  25:src/../h/riscv.h **** 
  26:src/../h/riscv.h ****     // write register scause
  27:src/../h/riscv.h ****     static void w_scause(uint64 scause);
  28:src/../h/riscv.h **** 
  29:src/../h/riscv.h ****     // read register sepc
  30:src/../h/riscv.h ****     static uint64 r_sepc();
  31:src/../h/riscv.h **** 
  32:src/../h/riscv.h ****     // write register sepc
  33:src/../h/riscv.h ****     static void w_sepc(uint64 sepc);
  34:src/../h/riscv.h **** 
  35:src/../h/riscv.h ****     // read register stvec
  36:src/../h/riscv.h ****     static uint64 r_stvec();
  37:src/../h/riscv.h **** 
  38:src/../h/riscv.h ****     // write register stvec
  39:src/../h/riscv.h ****     static void w_stvec(uint64 stvec);
  40:src/../h/riscv.h **** 
  41:src/../h/riscv.h ****     // read register stval
  42:src/../h/riscv.h ****     static uint64 r_stval();
  43:src/../h/riscv.h **** 
  44:src/../h/riscv.h ****     // write register stval
  45:src/../h/riscv.h ****     static void w_stval(uint64 stval);
  46:src/../h/riscv.h **** 
  47:src/../h/riscv.h ****     enum BitMaskSip
  48:src/../h/riscv.h ****     {
  49:src/../h/riscv.h ****         SIP_SSIP = (1 << 1),
  50:src/../h/riscv.h ****         SIP_STIP = (1 << 5),
  51:src/../h/riscv.h ****         SIP_SEIP = (1 << 9),
  52:src/../h/riscv.h ****     };
  53:src/../h/riscv.h **** 
  54:src/../h/riscv.h ****     // mask set register sip
  55:src/../h/riscv.h ****     static void ms_sip(uint64 mask);
  56:src/../h/riscv.h **** 
  57:src/../h/riscv.h ****     // mask clear register sip
  58:src/../h/riscv.h ****     static void mc_sip(uint64 mask);
  59:src/../h/riscv.h **** 
  60:src/../h/riscv.h ****     // read register sip
  61:src/../h/riscv.h ****     static uint64 r_sip();
  62:src/../h/riscv.h **** 
  63:src/../h/riscv.h ****     // write register sip
  64:src/../h/riscv.h ****     static void w_sip(uint64 sip);
  65:src/../h/riscv.h **** 
  66:src/../h/riscv.h ****     enum BitMaskSstatus
  67:src/../h/riscv.h ****     {
  68:src/../h/riscv.h ****         SSTATUS_SIE = (1 << 1),
  69:src/../h/riscv.h ****         SSTATUS_SPIE = (1 << 5),
GAS LISTING /tmp/ccP0RMbh.s 			page 6


  70:src/../h/riscv.h ****         SSTATUS_SPP = (1 << 8),
  71:src/../h/riscv.h ****     };
  72:src/../h/riscv.h **** 
  73:src/../h/riscv.h ****     // mask set register sstatus
  74:src/../h/riscv.h ****     static void ms_sstatus(uint64 mask);
  75:src/../h/riscv.h **** 
  76:src/../h/riscv.h ****     // mask clear register sstatus
  77:src/../h/riscv.h ****     static void mc_sstatus(uint64 mask);
  78:src/../h/riscv.h **** 
  79:src/../h/riscv.h ****     // read register sstatus
  80:src/../h/riscv.h ****     static uint64 r_sstatus();
  81:src/../h/riscv.h **** 
  82:src/../h/riscv.h ****     // write register sstatus
  83:src/../h/riscv.h ****     static void w_sstatus(uint64 sstatus);
  84:src/../h/riscv.h **** 
  85:src/../h/riscv.h ****     // supervisor trap
  86:src/../h/riscv.h ****     //static void supervisorTrap();
  87:src/../h/riscv.h **** 
  88:src/../h/riscv.h **** private:
  89:src/../h/riscv.h **** 
  90:src/../h/riscv.h ****     // supervisor trap handler
  91:src/../h/riscv.h ****     //static void handleSupervisorTrap();
  92:src/../h/riscv.h **** 
  93:src/../h/riscv.h **** };
  94:src/../h/riscv.h **** 
  95:src/../h/riscv.h **** inline uint64 Riscv::r_scause()
  96:src/../h/riscv.h **** {
  97:src/../h/riscv.h ****     uint64 scause;
  98:src/../h/riscv.h ****     __asm__ volatile ("csrr %[scause], scause" : [scause] "=r"(scause));
  99:src/../h/riscv.h ****     return scause;
 100:src/../h/riscv.h **** }
 101:src/../h/riscv.h **** 
 102:src/../h/riscv.h **** inline void Riscv::w_scause(uint64 scause)
 103:src/../h/riscv.h **** {
 104:src/../h/riscv.h ****     __asm__ volatile ("csrw scause, %[scause]" : : [scause] "r"(scause));
 105:src/../h/riscv.h **** }
 106:src/../h/riscv.h **** 
 107:src/../h/riscv.h **** inline uint64 Riscv::r_sepc()
 108:src/../h/riscv.h **** {
 109:src/../h/riscv.h ****     uint64 volatile sepc;
 110:src/../h/riscv.h ****     __asm__ volatile ("csrr %[sepc], sepc" : [sepc] "=r"(sepc));
 111:src/../h/riscv.h ****     return sepc;
 112:src/../h/riscv.h **** }
 113:src/../h/riscv.h **** 
 114:src/../h/riscv.h **** inline void Riscv::w_sepc(uint64 sepc)
 115:src/../h/riscv.h **** {
 116:src/../h/riscv.h ****     __asm__ volatile ("csrw sepc, %[sepc]" : : [sepc] "r"(sepc));
 117:src/../h/riscv.h **** }
 118:src/../h/riscv.h **** 
 119:src/../h/riscv.h **** inline uint64 Riscv::r_stvec()
 120:src/../h/riscv.h **** {
 121:src/../h/riscv.h ****     uint64 volatile stvec;
 122:src/../h/riscv.h ****     __asm__ volatile ("csrr %[stvec], stvec" : [stvec] "=r"(stvec));
 123:src/../h/riscv.h ****     return stvec;
 124:src/../h/riscv.h **** }
 125:src/../h/riscv.h **** 
 126:src/../h/riscv.h **** inline void Riscv::w_stvec(uint64 stvec)
GAS LISTING /tmp/ccP0RMbh.s 			page 7


 127:src/../h/riscv.h **** {
 128:src/../h/riscv.h ****     __asm__ volatile ("csrw stvec, %[stvec]" : : [stvec] "r"(stvec));
 151              		.loc 2 128 5 is_stmt 1
 152              		.loc 2 128 69 is_stmt 0
 153              	#APP
 154              	# 128 "src/../h/riscv.h" 1
 129              	}
 155              		csrw stvec, a5
 156              	# 0 "" 2
 157              	.LVL9:
 158              	#NO_APP
 159              	.LBE9:
 160              	.LBE8:
  51:src/main.cpp  ****     Riscv::ms_sstatus(Riscv::SSTATUS_SIE);
 161              		.loc 1 51 5 is_stmt 1
 162              	.LBB10:
 163              	.LBB11:
 130:src/../h/riscv.h **** 
 131:src/../h/riscv.h **** inline uint64 Riscv::r_stval()
 132:src/../h/riscv.h **** {
 133:src/../h/riscv.h ****     uint64 volatile stval;
 134:src/../h/riscv.h ****     __asm__ volatile ("csrr %[stval], stval" : [stval] "=r"(stval));
 135:src/../h/riscv.h ****     return stval;
 136:src/../h/riscv.h **** }
 137:src/../h/riscv.h **** 
 138:src/../h/riscv.h **** inline void Riscv::w_stval(uint64 stval)
 139:src/../h/riscv.h **** {
 140:src/../h/riscv.h ****     __asm__ volatile ("csrw stval, %[stval]" : : [stval] "r"(stval));
 141:src/../h/riscv.h **** }
 142:src/../h/riscv.h **** 
 143:src/../h/riscv.h **** inline void Riscv::ms_sip(uint64 mask)
 144:src/../h/riscv.h **** {
 145:src/../h/riscv.h ****     __asm__ volatile ("csrs sip, %[mask]" : : [mask] "r"(mask));
 146:src/../h/riscv.h **** }
 147:src/../h/riscv.h **** 
 148:src/../h/riscv.h **** inline void Riscv::mc_sip(uint64 mask)
 149:src/../h/riscv.h **** {
 150:src/../h/riscv.h ****     __asm__ volatile ("csrc sip, %[mask]" : : [mask] "r"(mask));
 151:src/../h/riscv.h **** }
 152:src/../h/riscv.h **** 
 153:src/../h/riscv.h **** inline uint64 Riscv::r_sip()
 154:src/../h/riscv.h **** {
 155:src/../h/riscv.h ****     uint64 volatile sip;
 156:src/../h/riscv.h ****     __asm__ volatile ("csrr %[sip], sip" : [sip] "=r"(sip));
 157:src/../h/riscv.h ****     return sip;
 158:src/../h/riscv.h **** }
 159:src/../h/riscv.h **** 
 160:src/../h/riscv.h **** inline void Riscv::w_sip(uint64 sip)
 161:src/../h/riscv.h **** {
 162:src/../h/riscv.h ****     __asm__ volatile ("csrw sip, %[sip]" : : [sip] "r"(sip));
 163:src/../h/riscv.h **** }
 164:src/../h/riscv.h **** 
 165:src/../h/riscv.h **** inline void Riscv::ms_sstatus(uint64 mask)
 166:src/../h/riscv.h **** {
 167:src/../h/riscv.h ****     __asm__ volatile ("csrs sstatus, %[mask]" : : [mask] "r"(mask));
 164              		.loc 2 167 5
 165              		.loc 2 167 68 is_stmt 0
GAS LISTING /tmp/ccP0RMbh.s 			page 8


 166 010c 93072000 		li	a5,2
 167              	#APP
 168              	# 167 "src/../h/riscv.h" 1
 168              	}
 169              		csrs sstatus, a5
 170              	# 0 "" 2
 171              	.LVL10:
 172              	#NO_APP
 173              	.LBE11:
 174              	.LBE10:
  52:src/main.cpp  **** 
  53:src/main.cpp  ****     _thread* threads[2];
 175              		.loc 1 53 5 is_stmt 1
  54:src/main.cpp  **** 
  55:src/main.cpp  ****     threads[0] = _thread::createThread(nullptr, nullptr);
 176              		.loc 1 55 5
 177              		.loc 1 55 39 is_stmt 0
 178 0114 93050000 		li	a1,0
 179 0118 13050000 		li	a0,0
 180 011c 97000000 		call	_ZN7_thread12createThreadEPFvPvES0_@plt
 180      E7800000 
 181              	.LVL11:
 182 0124 13090500 		mv	s2,a0
  56:src/main.cpp  ****     threads[1] = _thread::createThread(userMain, nullptr);
 183              		.loc 1 56 5 is_stmt 1
 184              		.loc 1 56 39 is_stmt 0
 185 0128 93050000 		li	a1,0
 186 012c 17050000 		la	a0,_Z8userMainPv
 186      03350500 
 187 0134 97000000 		call	_ZN7_thread12createThreadEPFvPvES0_@plt
 187      E7800000 
 188              	.LVL12:
 189 013c 93040500 		mv	s1,a0
  57:src/main.cpp  ****     threads[1]->start();
 190              		.loc 1 57 5 is_stmt 1
 191              		.loc 1 57 22 is_stmt 0
 192 0140 97000000 		call	_ZN7_thread5startEv@plt
 192      E7800000 
 193              	.LVL13:
  58:src/main.cpp  **** 
  59:src/main.cpp  ****     _thread::running = threads[0];
 194              		.loc 1 59 5 is_stmt 1
 195              		.loc 1 59 22 is_stmt 0
 196 0148 97070000 		la	a5,_ZN7_thread7runningE
 196      83B70700 
 197 0150 23B02701 		sd	s2,0(a5)
 198              	.L17:
  60:src/main.cpp  **** 
  61:src/main.cpp  ****     while (!(threads[1]->isFinished()))
 199              		.loc 1 61 5 is_stmt 1
 200              		.loc 1 61 12
 201              	.LVL14:
 202              	.LBB12:
 203              	.LBB13:
 204              		.file 3 "src/../h/_thread.h"
   1:src/../h/_thread.h **** //
   2:src/../h/_thread.h **** // Created by os on 6/21/22.
GAS LISTING /tmp/ccP0RMbh.s 			page 9


   3:src/../h/_thread.h **** //
   4:src/../h/_thread.h **** 
   5:src/../h/_thread.h **** #ifndef OS_PROJEKAT__THREAD_H
   6:src/../h/_thread.h **** #define OS_PROJEKAT__THREAD_H
   7:src/../h/_thread.h **** 
   8:src/../h/_thread.h **** //
   9:src/../h/_thread.h **** // Created by os on 6/17/22.
  10:src/../h/_thread.h **** //
  11:src/../h/_thread.h **** 
  12:src/../h/_thread.h **** #include "../lib/hw.h"
  13:src/../h/_thread.h **** #include "Scheduler.h"
  14:src/../h/_thread.h **** #include "riscv.h"
  15:src/../h/_thread.h **** #include "../h/syscall_cpp.h"
  16:src/../h/_thread.h **** 
  17:src/../h/_thread.h **** class _thread {
  18:src/../h/_thread.h **** public:
  19:src/../h/_thread.h ****     friend class _sem;
  20:src/../h/_thread.h ****     using Body = void (*)(void*);
  21:src/../h/_thread.h **** private:
  22:src/../h/_thread.h ****     _thread(Body body, uint64 timeSlice, void* arg) :
  23:src/../h/_thread.h ****             body(body),
  24:src/../h/_thread.h ****             stack(body != nullptr ? new uint64[STACK_SIZE] : nullptr),
  25:src/../h/_thread.h ****             timeSlice(timeSlice),
  26:src/../h/_thread.h ****             finished(false),
  27:src/../h/_thread.h ****             blocked(false),
  28:src/../h/_thread.h ****             arg(arg),
  29:src/../h/_thread.h ****             context({(uint64) &threadWrapper,
  30:src/../h/_thread.h ****                      stack != nullptr ? (uint64) &stack[STACK_SIZE] : 0
  31:src/../h/_thread.h ****                     })
  32:src/../h/_thread.h **** 
  33:src/../h/_thread.h ****     {
  34:src/../h/_thread.h ****         if (body != nullptr) { Scheduler::put(this); }
  35:src/../h/_thread.h ****     }
  36:src/../h/_thread.h **** 
  37:src/../h/_thread.h ****     struct Context
  38:src/../h/_thread.h ****     {
  39:src/../h/_thread.h ****         uint64 ra;
  40:src/../h/_thread.h ****         uint64 sp;
  41:src/../h/_thread.h ****     };
  42:src/../h/_thread.h **** 
  43:src/../h/_thread.h ****     Body body;
  44:src/../h/_thread.h ****     uint64 *stack;
  45:src/../h/_thread.h ****     uint64 timeSlice;
  46:src/../h/_thread.h ****     bool finished;
  47:src/../h/_thread.h ****     bool blocked;
  48:src/../h/_thread.h ****     void* arg;
  49:src/../h/_thread.h ****     Context context;
  50:src/../h/_thread.h **** 
  51:src/../h/_thread.h ****     friend class Riscv;
  52:src/../h/_thread.h **** 
  53:src/../h/_thread.h ****     static void threadWrapper();
  54:src/../h/_thread.h **** 
  55:src/../h/_thread.h **** 
  56:src/../h/_thread.h ****     static uint64 timeSliceCounter;
  57:src/../h/_thread.h **** 
  58:src/../h/_thread.h ****     static uint64 constexpr STACK_SIZE = DEFAULT_STACK_SIZE;
  59:src/../h/_thread.h ****     static uint64 constexpr TIME_SLICE = DEFAULT_TIME_SLICE;
GAS LISTING /tmp/ccP0RMbh.s 			page 10


  60:src/../h/_thread.h **** 
  61:src/../h/_thread.h **** 
  62:src/../h/_thread.h **** public:
  63:src/../h/_thread.h ****     ~_thread() { MemoryAllocator::mem_free((char*)stack-STACK_SIZE); }
  64:src/../h/_thread.h **** 
  65:src/../h/_thread.h ****     bool isFinished() const { return finished; }
 205              		.loc 3 65 31
 206              		.loc 3 65 38 is_stmt 0
 207 0154 83C78401 		lbu	a5,24(s1)
 208              	.LVL15:
 209              	.LBE13:
 210              	.LBE12:
 211              		.loc 1 61 12
 212 0158 63980700 		bnez	a5,.L16
  62:src/main.cpp  ****     {
  63:src/main.cpp  ****         _thread::yield();
 213              		.loc 1 63 9 is_stmt 1
 214              		.loc 1 63 23 is_stmt 0
 215 015c 97000000 		call	_ZN7_thread5yieldEv@plt
 215      E7800000 
 216              	.LVL16:
 217 0164 6FF01FFF 		j	.L17
 218              	.L16:
  64:src/main.cpp  ****     }
  65:src/main.cpp  ****     return 0;
 219              		.loc 1 65 5 is_stmt 1
  66:src/main.cpp  **** }
 220              		.loc 1 66 1 is_stmt 0
 221 0168 13050000 		li	a0,0
 222 016c 83308101 		ld	ra,24(sp)
 223              		.cfi_restore 1
 224 0170 03340101 		ld	s0,16(sp)
 225              		.cfi_restore 8
 226              		.cfi_def_cfa 2, 32
 227 0174 83348100 		ld	s1,8(sp)
 228              		.cfi_restore 9
 229 0178 03390100 		ld	s2,0(sp)
 230              		.cfi_restore 18
 231 017c 13010102 		addi	sp,sp,32
 232              		.cfi_def_cfa_offset 0
 233 0180 67800000 		jr	ra
 234              		.cfi_endproc
 235              	.LFE42:
 237              		.bss
 238              		.align	2
 239              		.set	.LANCHOR0,. + 0
 242              	_ZZ12checkNullptrPvE1x:
 243 0000 00000000 		.zero	4
 246              	_ZZ11checkStatusiE1y:
 247 0004 00000000 		.zero	4
 248              		.text
 249              	.Letext0:
 250              		.file 4 "src/../lib/hw.h"
 251              		.file 5 "src/../h/syscall_c.h"
 252              		.file 6 "src/../lib/console.h"
GAS LISTING /tmp/ccP0RMbh.s 			page 11

