GAS LISTING /tmp/cc13X6xS.s 			page 1


   1              		.file	"Scheduler.cpp"
   2              		.option pic
   3              		.option norelax
   4              		.text
   5              	.Ltext0:
   6              		.align	2
   7              		.globl	_ZN9Scheduler3getEv
   9              	_ZN9Scheduler3getEv:
  10              	.LFB11:
  11              		.file 1 "src/Scheduler.cpp"
   1:src/Scheduler.cpp **** //
   2:src/Scheduler.cpp **** // Created by os on 6/21/22.
   3:src/Scheduler.cpp **** //
   4:src/Scheduler.cpp **** 
   5:src/Scheduler.cpp **** #include "../h/Scheduler.h"
   6:src/Scheduler.cpp **** 
   7:src/Scheduler.cpp **** Scheduler::Elem* Scheduler::head = nullptr;
   8:src/Scheduler.cpp **** Scheduler::Elem* Scheduler::tail = nullptr;
   9:src/Scheduler.cpp **** 
  10:src/Scheduler.cpp **** _thread *Scheduler::get()
  11:src/Scheduler.cpp **** {
  12              		.loc 1 11 1
  13              		.cfi_startproc
  14 0000 130101FE 		addi	sp,sp,-32
  15              		.cfi_def_cfa_offset 32
  16 0004 233C1100 		sd	ra,24(sp)
  17 0008 23388100 		sd	s0,16(sp)
  18 000c 23349100 		sd	s1,8(sp)
  19              		.cfi_offset 1, -8
  20              		.cfi_offset 8, -16
  21              		.cfi_offset 9, -24
  22 0010 13040102 		addi	s0,sp,32
  23              		.cfi_def_cfa 8, 0
  12:src/Scheduler.cpp ****     if (!head) return nullptr;
  24              		.loc 1 12 5
  25              		.loc 1 12 9 is_stmt 0
  26 0014 17050000 		ld	a0,.LANCHOR0
  26      03350500 
  27              		.loc 1 12 5
  28 001c 63020504 		beqz	a0,.L4
  13:src/Scheduler.cpp **** 
  14:src/Scheduler.cpp ****     Elem* elem = head;
  29              		.loc 1 14 5 is_stmt 1
  30              	.LVL0:
  15:src/Scheduler.cpp ****     head = head->next;
  31              		.loc 1 15 5
  32              		.loc 1 15 18 is_stmt 0
  33 0020 83370501 		ld	a5,16(a0)
  34              		.loc 1 15 10
  35 0024 17070000 		sd	a5,.LANCHOR0,a4
  35      2330F700 
  16:src/Scheduler.cpp ****     if (!head) tail = 0;
  36              		.loc 1 16 5 is_stmt 1
  37 002c 63840702 		beqz	a5,.L6
  38              	.L3:
  17:src/Scheduler.cpp **** 
  18:src/Scheduler.cpp ****     _thread *ret = elem->data;
GAS LISTING /tmp/cc13X6xS.s 			page 2


  39              		.loc 1 18 5
  40              		.loc 1 18 14 is_stmt 0
  41 0030 83340500 		ld	s1,0(a0)
  42              	.LVL1:
  19:src/Scheduler.cpp ****     MemoryAllocator::mem_free(elem);
  43              		.loc 1 19 5 is_stmt 1
  44              		.loc 1 19 30 is_stmt 0
  45 0034 97000000 		call	_ZN15MemoryAllocator8mem_freeEPv@plt
  45      E7800000 
  46              	.LVL2:
  20:src/Scheduler.cpp ****     return ret;
  47              		.loc 1 20 5 is_stmt 1
  48              	.L1:
  21:src/Scheduler.cpp **** }
  49              		.loc 1 21 1 is_stmt 0
  50 003c 13850400 		mv	a0,s1
  51 0040 83308101 		ld	ra,24(sp)
  52              		.cfi_remember_state
  53              		.cfi_restore 1
  54 0044 03340101 		ld	s0,16(sp)
  55              		.cfi_restore 8
  56              		.cfi_def_cfa 2, 32
  57 0048 83348100 		ld	s1,8(sp)
  58              		.cfi_restore 9
  59 004c 13010102 		addi	sp,sp,32
  60              		.cfi_def_cfa_offset 0
  61 0050 67800000 		jr	ra
  62              	.LVL3:
  63              	.L6:
  64              		.cfi_restore_state
  16:src/Scheduler.cpp **** 
  65              		.loc 1 16 16 is_stmt 1 discriminator 1
  16:src/Scheduler.cpp **** 
  66              		.loc 1 16 21 is_stmt 0 discriminator 1
  67 0054 97070000 		sd	zero,.LANCHOR0+8,a5
  67      23B00700 
  68 005c 6FF05FFD 		j	.L3
  69              	.LVL4:
  70              	.L4:
  12:src/Scheduler.cpp **** 
  71              		.loc 1 12 23
  72 0060 93040500 		mv	s1,a0
  73 0064 6FF09FFD 		j	.L1
  74              		.cfi_endproc
  75              	.LFE11:
  77              		.align	2
  78              		.globl	_ZN9Scheduler3putEP7_thread
  80              	_ZN9Scheduler3putEP7_thread:
  81              	.LFB12:
  22:src/Scheduler.cpp **** 
  23:src/Scheduler.cpp **** void Scheduler::put(_thread *ccb)
  24:src/Scheduler.cpp **** {
  82              		.loc 1 24 1 is_stmt 1
  83              		.cfi_startproc
  84              	.LVL5:
  85 0068 130101FE 		addi	sp,sp,-32
  86              		.cfi_def_cfa_offset 32
GAS LISTING /tmp/cc13X6xS.s 			page 3


  87 006c 233C1100 		sd	ra,24(sp)
  88 0070 23388100 		sd	s0,16(sp)
  89 0074 23349100 		sd	s1,8(sp)
  90              		.cfi_offset 1, -8
  91              		.cfi_offset 8, -16
  92              		.cfi_offset 9, -24
  93 0078 13040102 		addi	s0,sp,32
  94              		.cfi_def_cfa 8, 0
  95 007c 93040500 		mv	s1,a0
  25:src/Scheduler.cpp ****     Elem* elem = (Elem*) MemoryAllocator::mem_alloc((sizeof(Elem)+MEM_BLOCK_SIZE-1+sizeof(MemoryAll
  96              		.loc 1 25 5
  97              		.loc 1 25 52 is_stmt 0
  98 0080 13051000 		li	a0,1
  99              	.LVL6:
 100 0084 97000000 		call	_ZN15MemoryAllocator9mem_allocEm@plt
 100      E7800000 
 101              	.LVL7:
  26:src/Scheduler.cpp ****     elem->data = ccb;
 102              		.loc 1 26 5 is_stmt 1
 103              		.loc 1 26 16 is_stmt 0
 104 008c 23309500 		sd	s1,0(a0)
  27:src/Scheduler.cpp ****     elem->next = nullptr;
 105              		.loc 1 27 5 is_stmt 1
 106              		.loc 1 27 16 is_stmt 0
 107 0090 23380500 		sd	zero,16(a0)
  28:src/Scheduler.cpp ****     if(tail){
 108              		.loc 1 28 5 is_stmt 1
 109              		.loc 1 28 12 is_stmt 0
 110 0094 97070000 		ld	a5,.LANCHOR0+8
 110      83B70700 
 111              		.loc 1 28 5
 112 009c 63820702 		beqz	a5,.L8
  29:src/Scheduler.cpp ****         tail->next = elem;
 113              		.loc 1 29 9 is_stmt 1
 114              		.loc 1 29 20 is_stmt 0
 115 00a0 23B8A700 		sd	a0,16(a5)
  30:src/Scheduler.cpp ****         tail = elem;
 116              		.loc 1 30 9 is_stmt 1
 117              		.loc 1 30 14 is_stmt 0
 118 00a4 97070000 		sd	a0,.LANCHOR0+8,a5
 118      23B0A700 
 119              	.L7:
  31:src/Scheduler.cpp ****     }else{
  32:src/Scheduler.cpp ****         head = tail = elem;
  33:src/Scheduler.cpp ****     }
  34:src/Scheduler.cpp **** }...
 120              		.loc 1 34 1
 121 00ac 83308101 		ld	ra,24(sp)
 122              		.cfi_remember_state
 123              		.cfi_restore 1
 124 00b0 03340101 		ld	s0,16(sp)
 125              		.cfi_restore 8
 126              		.cfi_def_cfa 2, 32
 127 00b4 83348100 		ld	s1,8(sp)
 128              		.cfi_restore 9
 129              	.LVL8:
 130 00b8 13010102 		addi	sp,sp,32
GAS LISTING /tmp/cc13X6xS.s 			page 4


 131              		.cfi_def_cfa_offset 0
 132 00bc 67800000 		jr	ra
 133              	.LVL9:
 134              	.L8:
 135              		.cfi_restore_state
  32:src/Scheduler.cpp ****         head = tail = elem;
 136              		.loc 1 32 9 is_stmt 1
  32:src/Scheduler.cpp ****         head = tail = elem;
 137              		.loc 1 32 21 is_stmt 0
 138 00c0 97070000 		lla	a5,.LANCHOR0
 138      93870700 
 139 00c8 23B4A700 		sd	a0,8(a5)
  32:src/Scheduler.cpp ****         head = tail = elem;
 140              		.loc 1 32 14
 141 00cc 23B0A700 		sd	a0,0(a5)
 142              		.loc 1 34 1
 143 00d0 6FF0DFFD 		j	.L7
 144              		.cfi_endproc
 145              	.LFE12:
 147              		.globl	_ZN9Scheduler4tailE
 148              		.globl	_ZN9Scheduler4headE
 149              		.bss
 150              		.align	3
 151              		.set	.LANCHOR0,. + 0
 154              	_ZN9Scheduler4headE:
 155 0000 00000000 		.zero	8
 155      00000000 
 158              	_ZN9Scheduler4tailE:
 159 0008 00000000 		.zero	8
 159      00000000 
 160              		.text
 161              	.Letext0:
 162              		.file 2 "src/../h/../lib/hw.h"
 163              		.file 3 "src/../h/MemoryAllocator.h"
 164              		.file 4 "src/../h/Scheduler.h"
GAS LISTING /tmp/cc13X6xS.s 			page 5

