GAS LISTING /tmp/cc13X6xS.s 			page 1


   1              		.file	"Scheduler.cpp"
   2              		.option pic
   3              		.option norelax
   4              		.text
   5              	.Ltext0:
   6              		.align	2
   7              		.globl	_ZN9Scheduler3getEv
   9              	_ZN9Scheduler3getEv:
  10              	.LFB11:
  11              		.file 1 "src/Scheduler.cpp"
   1:src/Scheduler.cpp **** //
   2:src/Scheduler.cpp **** // Created by os on 6/21/22.
   3:src/Scheduler.cpp **** //
   4:src/Scheduler.cpp **** 
   5:src/Scheduler.cpp **** #include "../h/Scheduler.h"
   6:src/Scheduler.cpp **** 
   7:src/Scheduler.cpp **** Scheduler::Elem* Scheduler::head = nullptr;
   8:src/Scheduler.cpp **** Scheduler::Elem* Scheduler::tail = nullptr;
   9:src/Scheduler.cpp **** 
  10:src/Scheduler.cpp **** _thread *Scheduler::get()
  11:src/Scheduler.cpp **** {
  12              		.loc 1 11 1
  13              		.cfi_startproc
  14 0000 130101FE 		addi	sp,sp,-32
  15              		.cfi_def_cfa_offset 32
  16 0004 233C1100 		sd	ra,24(sp)
  17 0008 23388100 		sd	s0,16(sp)
  18 000c 23349100 		sd	s1,8(sp)
  19              		.cfi_offset 1, -8
  20              		.cfi_offset 8, -16
  21              		.cfi_offset 9, -24
  22 0010 13040102 		addi	s0,sp,32
  23              		.cfi_def_cfa 8, 0
  12:src/Scheduler.cpp ****     if (!head) return nullptr;
  24              		.loc 1 12 5
  25              		.loc 1 12 9 is_stmt 0
  26 0014 17050000 		ld	a0,.LANCHOR0
  26      03350500 
  27              		.loc 1 12 5
  28 001c 63020504 		beqz	a0,.L4
  13:src/Scheduler.cpp **** 
  14:src/Scheduler.cpp ****     Elem* elem = head;
  29              		.loc 1 14 5 is_stmt 1
  30              	.LVL0:
  15:src/Scheduler.cpp ****     head = head->next;
  31              		.loc 1 15 5
  32              		.loc 1 15 18 is_stmt 0
  33 0020 83370501 		ld	a5,16(a0)
  34              		.loc 1 15 10
  35 0024 17070000 		sd	a5,.LANCHOR0,a4
  35      2330F700 
  16:src/Scheduler.cpp ****     if (!head) tail = 0;
  36              		.loc 1 16 5 is_stmt 1
  37 002c 63840702 		beqz	a5,.L6
  38              	.L3:
  17:src/Scheduler.cpp **** 
  18:src/Scheduler.cpp ****     _thread *ret = elem->data;
GAS LISTING /tmp/cc13X6xS.s 			page 2


  39              		.loc 1 18 5
  40              		.loc 1 18 14 is_stmt 0
  41 0030 83340500 		ld	s1,0(a0)
  42              	.LVL1:
  19:src/Scheduler.cpp ****     MemoryAllocator::mem_free(elem);
  43              		.loc 1 19 5 is_stmt 1
  44              		.loc 1 19 30 is_stmt 0
  45 0034 97000000 		call	_ZN15MemoryAllocator8mem_freeEPv@plt
  45      E7800000 
  46              	.LVL2:
  20:src/Scheduler.cpp ****     return ret;
  47              		.loc 1 20 5 is_stmt 1
  48              	.L1:
  21:src/Scheduler.cpp **** }
  49              		.loc 1 21 1 is_stmt 0
  50 003c 13850400 		mv	a0,s1
  51 0040 83308101 		ld	ra,24(sp)
  52              		.cfi_remember_state
  53              		.cfi_restore 1
  54 0044 03340101 		ld	s0,16(sp)
  55              		.cfi_restore 8
  56              		.cfi_def_cfa 2, 32
  57 0048 83348100 		ld	s1,8(sp)
  58              		.cfi_restore 9
  59 004c 13010102 		addi	sp,sp,32
  60              		.cfi_def_cfa_offset 0
  61 0050 67800000 		jr	ra
  62              	.LVL3:
  63              	.L6:
  64              		.cfi_restore_state
  16:src/Scheduler.cpp **** 
  65              		.loc 1 16 16 is_stmt 1 discriminator 1
  16:src/Scheduler.cpp **** 
  66              		.loc 1 16 21 is_stmt 0 discriminator 1
  67 0054 97070000 		sd	zero,.LANCHOR0+8,a5
  67      23B00700 
  68 005c 6FF05FFD 		j	.L3
  69              	.LVL4:
  70              	.L4:
  12:src/Scheduler.cpp **** 
  71              		.loc 1 12 23
  72 0060 93040500 		mv	s1,a0
  73 0064 6FF09FFD 		j	.L1
  74              		.cfi_endproc
  75              	.LFE11:
  77              		.align	2
  78              		.globl	_ZN9Scheduler3putEP7_thread
  80              	_ZN9Scheduler3putEP7_thread:
  81              	.LFB12:
  22:src/Scheduler.cpp **** 
  23:src/Scheduler.cpp **** void Scheduler::put(_thread *ccb)
  24:src/Scheduler.cpp **** {
  82              		.loc 1 24 1 is_stmt 1
  83              		.cfi_startproc
  84              	.LVL5:
  85 0068 130101FE 		addi	sp,sp,-32
  86              		.cfi_def_cfa_offset 32
GAS LISTING /tmp/cc13X6xS.s 			page 3


  87 006c 233C1100 		sd	ra,24(sp)
  88 0070 23388100 		sd	s0,16(sp)
  89 0074 23349100 		sd	s1,8(sp)
  90              		.cfi_offset 1, -8
  91              		.cfi_offset 8, -16
  92              		.cfi_offset 9, -24
  93 0078 13040102 		addi	s0,sp,32
  94              		.cfi_def_cfa 8, 0
  95 007c 93040500 		mv	s1,a0
  25:src/Scheduler.cpp ****     Elem* elem = (Elem*) MemoryAllocator::mem_alloc((sizeof(Elem)+MEM_BLOCK_SIZE-1+sizeof(MemoryAll
  96              		.loc 1 25 5
  97              		.loc 1 25 52 is_stmt 0
  98 0080 13051000 		li	a0,1
  99              	.LVL6:
 100 0084 97000000 		call	_ZN15MemoryAllocator9mem_allocEm@plt
 100      E7800000 
 101              	.LVL7:
  26:src/Scheduler.cpp ****     elem->data = ccb;
 102              		.loc 1 26 5 is_stmt 1
 103              		.loc 1 26 16 is_stmt 0
 104 008c 23309500 		sd	s1,0(a0)
  27:src/Scheduler.cpp ****     elem->next = nullptr;
 105              		.loc 1 27 5 is_stmt 1
 106              		.loc 1 27 16 is_stmt 0
 107 0090 23380500 		sd	zero,16(a0)
  28:src/Scheduler.cpp ****     if(tail){
 108              		.loc 1 28 5 is_stmt 1
 109              		.loc 1 28 12 is_stmt 0
 110 0094 97070000 		ld	a5,.LANCHOR0+8
 110      83B70700 
 111              		.loc 1 28 5
 112 009c 63820702 		beqz	a5,.L8
  29:src/Scheduler.cpp ****         tail->next = elem;
 113              		.loc 1 29 9 is_stmt 1
 114              		.loc 1 29 20 is_stmt 0
 115 00a0 23B8A700 		sd	a0,16(a5)
  30:src/Scheduler.cpp ****         tail = elem;
 116              		.loc 1 30 9 is_stmt 1
 117              		.loc 1 30 14 is_stmt 0
 118 00a4 97070000 		sd	a0,.LANCHOR0+8,a5
 118      23B0A700 
 119              	.L7:
  31:src/Scheduler.cpp ****     }else{
  32:src/Scheduler.cpp ****         head = tail = elem;
  33:src/Scheduler.cpp ****     }
  34:src/Scheduler.cpp **** }...
 120              		.loc 1 34 1
 121 00ac 83308101 		ld	ra,24(sp)
 122              		.cfi_remember_state
 123              		.cfi_restore 1
 124 00b0 03340101 		ld	s0,16(sp)
 125              		.cfi_restore 8
 126              		.cfi_def_cfa 2, 32
 127 00b4 83348100 		ld	s1,8(sp)
 128              		.cfi_restore 9
 129              	.LVL8:
 130 00b8 13010102 		addi	sp,sp,32
GAS LISTING /tmp/cc13X6xS.s 			page 4


 131              		.cfi_def_cfa_offset 0
 132 00bc 67800000 		jr	ra
 133              	.LVL9:
 134              	.L8:
 135              		.cfi_restore_state
  32:src/Scheduler.cpp ****         head = tail = elem;
 136              		.loc 1 32 9 is_stmt 1
  32:src/Scheduler.cpp ****         head = tail = elem;
 137              		.loc 1 32 21 is_stmt 0
 138 00c0 97070000 		lla	a5,.LANCHOR0
 138      93870700 
 139 00c8 23B4A700 		sd	a0,8(a5)
  32:src/Scheduler.cpp ****         head = tail = elem;
 140              		.loc 1 32 14
 141 00cc 23B0A700 		sd	a0,0(a5)
 142              		.loc 1 34 1
 143 00d0 6FF0DFFD 		j	.L7
 144              		.cfi_endproc
 145              	.LFE12:
 147              		.globl	_ZN9Scheduler4tailE
 148              		.globl	_ZN9Scheduler4headE
 149              		.bss
 150              		.align	3
 151              		.set	.LANCHOR0,. + 0
 154              	_ZN9Scheduler4headE:
 155 0000 00000000 		.zero	8
 155      00000000 
 158              	_ZN9Scheduler4tailE:
 159 0008 00000000 		.zero	8
 159      00000000 
 160              		.text
 161              	.Letext0:
 162              		.file 2 "src/../h/../lib/hw.h"
 163              		.file 3 "src/../h/MemoryAllocator.h"
 164              		.file 4 "src/../h/Scheduler.h"
GAS LISTING /tmp/cc13X6xS.s 			page 5


DEFINED SYMBOLS
                            *ABS*:0000000000000000 Scheduler.cpp
     /tmp/cc13X6xS.s:9      .text:0000000000000000 _ZN9Scheduler3getEv
     /tmp/cc13X6xS.s:13     .text:0000000000000000 .L0 
     /tmp/cc13X6xS.s:14     .text:0000000000000000 .L0 
     /tmp/cc13X6xS.s:15     .text:0000000000000004 .L0 
     /tmp/cc13X6xS.s:19     .text:0000000000000010 .L0 
     /tmp/cc13X6xS.s:20     .text:0000000000000010 .L0 
     /tmp/cc13X6xS.s:21     .text:0000000000000010 .L0 
     /tmp/cc13X6xS.s:23     .text:0000000000000014 .L0 
     /tmp/cc13X6xS.s:25     .text:0000000000000014 .L0 
     /tmp/cc13X6xS.s:26     .text:0000000000000014 .L0 
     /tmp/cc13X6xS.s:28     .text:000000000000001c .L0 
     /tmp/cc13X6xS.s:31     .text:0000000000000020 .L0 
     /tmp/cc13X6xS.s:32     .text:0000000000000020 .L0 
     /tmp/cc13X6xS.s:33     .text:0000000000000020 .L0 
     /tmp/cc13X6xS.s:35     .text:0000000000000024 .L0 
     /tmp/cc13X6xS.s:37     .text:000000000000002c .L0 
     /tmp/cc13X6xS.s:40     .text:0000000000000030 .L0 
     /tmp/cc13X6xS.s:41     .text:0000000000000030 .L0 
     /tmp/cc13X6xS.s:44     .text:0000000000000034 .L0 
     /tmp/cc13X6xS.s:45     .text:0000000000000034 .L0 
     /tmp/cc13X6xS.s:49     .text:000000000000003c .L0 
     /tmp/cc13X6xS.s:50     .text:000000000000003c .L0 
     /tmp/cc13X6xS.s:52     .text:0000000000000044 .L0 
     /tmp/cc13X6xS.s:53     .text:0000000000000044 .L0 
     /tmp/cc13X6xS.s:55     .text:0000000000000048 .L0 
     /tmp/cc13X6xS.s:56     .text:0000000000000048 .L0 
     /tmp/cc13X6xS.s:58     .text:000000000000004c .L0 
     /tmp/cc13X6xS.s:60     .text:0000000000000050 .L0 
     /tmp/cc13X6xS.s:64     .text:0000000000000054 .L0 
     /tmp/cc13X6xS.s:66     .text:0000000000000054 .L0 
     /tmp/cc13X6xS.s:67     .text:0000000000000054 .L0 
     /tmp/cc13X6xS.s:72     .text:0000000000000060 .L0 
     /tmp/cc13X6xS.s:74     .text:0000000000000068 .L0 
     /tmp/cc13X6xS.s:80     .text:0000000000000068 _ZN9Scheduler3putEP7_thread
     /tmp/cc13X6xS.s:83     .text:0000000000000068 .L0 
     /tmp/cc13X6xS.s:85     .text:0000000000000068 .L0 
     /tmp/cc13X6xS.s:86     .text:000000000000006c .L0 
     /tmp/cc13X6xS.s:90     .text:0000000000000078 .L0 
     /tmp/cc13X6xS.s:91     .text:0000000000000078 .L0 
     /tmp/cc13X6xS.s:92     .text:0000000000000078 .L0 
     /tmp/cc13X6xS.s:94     .text:000000000000007c .L0 
     /tmp/cc13X6xS.s:97     .text:0000000000000080 .L0 
     /tmp/cc13X6xS.s:98     .text:0000000000000080 .L0 
     /tmp/cc13X6xS.s:103    .text:000000000000008c .L0 
     /tmp/cc13X6xS.s:104    .text:000000000000008c .L0 
     /tmp/cc13X6xS.s:106    .text:0000000000000090 .L0 
     /tmp/cc13X6xS.s:107    .text:0000000000000090 .L0 
     /tmp/cc13X6xS.s:109    .text:0000000000000094 .L0 
     /tmp/cc13X6xS.s:110    .text:0000000000000094 .L0 
     /tmp/cc13X6xS.s:112    .text:000000000000009c .L0 
     /tmp/cc13X6xS.s:114    .text:00000000000000a0 .L0 
     /tmp/cc13X6xS.s:115    .text:00000000000000a0 .L0 
     /tmp/cc13X6xS.s:117    .text:00000000000000a4 .L0 
     /tmp/cc13X6xS.s:118    .text:00000000000000a4 .L0 
     /tmp/cc13X6xS.s:121    .text:00000000000000ac .L0 
GAS LISTING /tmp/cc13X6xS.s 			page 6


     /tmp/cc13X6xS.s:122    .text:00000000000000b0 .L0 
     /tmp/cc13X6xS.s:123    .text:00000000000000b0 .L0 
     /tmp/cc13X6xS.s:125    .text:00000000000000b4 .L0 
     /tmp/cc13X6xS.s:126    .text:00000000000000b4 .L0 
     /tmp/cc13X6xS.s:128    .text:00000000000000b8 .L0 
     /tmp/cc13X6xS.s:131    .text:00000000000000bc .L0 
     /tmp/cc13X6xS.s:135    .text:00000000000000c0 .L0 
     /tmp/cc13X6xS.s:137    .text:00000000000000c0 .L0 
     /tmp/cc13X6xS.s:138    .text:00000000000000c0 .L0 
     /tmp/cc13X6xS.s:141    .text:00000000000000cc .L0 
     /tmp/cc13X6xS.s:143    .text:00000000000000d0 .L0 
     /tmp/cc13X6xS.s:144    .text:00000000000000d4 .L0 
     /tmp/cc13X6xS.s:158    .bss:0000000000000008 _ZN9Scheduler4tailE
     /tmp/cc13X6xS.s:154    .bss:0000000000000000 _ZN9Scheduler4headE
     /tmp/cc13X6xS.s:151    .bss:0000000000000000 .LANCHOR0
     /tmp/cc13X6xS.s:165    .text:00000000000000d4 .L0 
     /tmp/cc13X6xS.s:26     .text:0000000000000014 .L0 
     /tmp/cc13X6xS.s:35     .text:0000000000000024 .L0 
     /tmp/cc13X6xS.s:67     .text:0000000000000054 .L0 
     /tmp/cc13X6xS.s:110    .text:0000000000000094 .L0 
     /tmp/cc13X6xS.s:118    .text:00000000000000a4 .L0 
     /tmp/cc13X6xS.s:138    .text:00000000000000c0 .L0 
     /tmp/cc13X6xS.s:70     .text:0000000000000060 .L4
     /tmp/cc13X6xS.s:63     .text:0000000000000054 .L6
     /tmp/cc13X6xS.s:38     .text:0000000000000030 .L3
     /tmp/cc13X6xS.s:48     .text:000000000000003c .L1
     /tmp/cc13X6xS.s:134    .text:00000000000000c0 .L8
     /tmp/cc13X6xS.s:119    .text:00000000000000ac .L7
     /tmp/cc13X6xS.s:625    .debug_abbrev:0000000000000000 .Ldebug_abbrev0
     /tmp/cc13X6xS.s:1321   .debug_str:000000000000018a .LASF41
     /tmp/cc13X6xS.s:1331   .debug_str:0000000000000279 .LASF42
     /tmp/cc13X6xS.s:1343   .debug_str:00000000000002ee .LASF43
     /tmp/cc13X6xS.s:5      .text:0000000000000000 .Ltext0
     /tmp/cc13X6xS.s:161    .text:00000000000000d4 .Letext0
     /tmp/cc13X6xS.s:1267   .debug_line:0000000000000000 .Ldebug_line0
     /tmp/cc13X6xS.s:1333   .debug_str:000000000000028b .LASF0
     /tmp/cc13X6xS.s:1315   .debug_str:0000000000000166 .LASF1
     /tmp/cc13X6xS.s:1305   .debug_str:0000000000000106 .LASF2
     /tmp/cc13X6xS.s:1285   .debug_str:000000000000006f .LASF4
     /tmp/cc13X6xS.s:1313   .debug_str:0000000000000154 .LASF3
     /tmp/cc13X6xS.s:1273   .debug_str:0000000000000023 .LASF5
     /tmp/cc13X6xS.s:1269   .debug_str:0000000000000000 .LASF6
     /tmp/cc13X6xS.s:1295   .debug_str:00000000000000ba .LASF7
     /tmp/cc13X6xS.s:1337   .debug_str:00000000000002bc .LASF8
     /tmp/cc13X6xS.s:1283   .debug_str:0000000000000061 .LASF9
     /tmp/cc13X6xS.s:1367   .debug_str:00000000000003a1 .LASF10
     /tmp/cc13X6xS.s:1301   .debug_str:00000000000000dc .LASF11
     /tmp/cc13X6xS.s:1357   .debug_str:0000000000000373 .LASF12
     /tmp/cc13X6xS.s:1345   .debug_str:000000000000030b .LASF13
     /tmp/cc13X6xS.s:1317   .debug_str:0000000000000179 .LASF14
     /tmp/cc13X6xS.s:1291   .debug_str:000000000000009a .LASF15
     /tmp/cc13X6xS.s:1339   .debug_str:00000000000002cc .LASF16
     /tmp/cc13X6xS.s:1271   .debug_str:0000000000000013 .LASF25
     /tmp/cc13X6xS.s:1307   .debug_str:0000000000000114 .LASF20
     /tmp/cc13X6xS.s:1275   .debug_str:000000000000002a .LASF17
     /tmp/cc13X6xS.s:1365   .debug_str:000000000000039c .LASF18
     /tmp/cc13X6xS.s:1363   .debug_str:0000000000000397 .LASF19
GAS LISTING /tmp/cc13X6xS.s 			page 7


     /tmp/cc13X6xS.s:1325   .debug_str:0000000000000253 .LASF21
     /tmp/cc13X6xS.s:1327   .debug_str:000000000000025b .LASF30
     /tmp/cc13X6xS.s:1287   .debug_str:0000000000000076 .LASF22
     /tmp/cc13X6xS.s:1297   .debug_str:00000000000000cd .LASF23
     /tmp/cc13X6xS.s:1277   .debug_str:000000000000002f .LASF24
     /tmp/cc13X6xS.s:1303   .debug_str:00000000000000eb .LASF27
     /tmp/cc13X6xS.s:1359   .debug_str:0000000000000383 .LASF26
     /tmp/cc13X6xS.s:1309   .debug_str:000000000000011c .LASF28
     /tmp/cc13X6xS.s:1341   .debug_str:00000000000002e2 .LASF35
     /tmp/cc13X6xS.s:1335   .debug_str:0000000000000298 .LASF44
     /tmp/cc13X6xS.s:1361   .debug_str:000000000000038d .LASF45
     /tmp/cc13X6xS.s:1355   .debug_str:0000000000000352 .LASF46
     /tmp/cc13X6xS.s:1347   .debug_str:000000000000031b .LASF29
     /tmp/cc13X6xS.s:1351   .debug_str:000000000000032c .LASF31
     /tmp/cc13X6xS.s:1293   .debug_str:00000000000000b0 .LASF32
     /tmp/cc13X6xS.s:1319   .debug_str:0000000000000185 .LASF33
     /tmp/cc13X6xS.s:1299   .debug_str:00000000000000d7 .LASF34
     /tmp/cc13X6xS.s:1281   .debug_str:000000000000004d .LASF47
     /tmp/cc13X6xS.s:1311   .debug_str:0000000000000138 .LASF48
     /tmp/cc13X6xS.s:1329   .debug_str:0000000000000274 .LASF36
     /tmp/cc13X6xS.s:1353   .debug_str:000000000000034d .LASF37
     /tmp/cc13X6xS.s:1349   .debug_str:0000000000000324 .LASF49
     /tmp/cc13X6xS.s:1279   .debug_str:0000000000000039 .LASF38
     /tmp/cc13X6xS.s:1289   .debug_str:0000000000000086 .LASF39
     /tmp/cc13X6xS.s:81     .text:0000000000000068 .LFB12
     /tmp/cc13X6xS.s:145    .text:00000000000000d4 .LFE12
     /tmp/cc13X6xS.s:1214   .debug_loc:0000000000000000 .LLST2
     /tmp/cc13X6xS.s:1323   .debug_str:000000000000024e .LASF40
     /tmp/cc13X6xS.s:101    .text:000000000000008c .LVL7
     /tmp/cc13X6xS.s:10     .text:0000000000000000 .LFB11
     /tmp/cc13X6xS.s:75     .text:0000000000000068 .LFE11
     /tmp/cc13X6xS.s:1236   .debug_loc:000000000000005f .LLST0
     /tmp/cc13X6xS.s:1247   .debug_loc:0000000000000095 .LLST1
     /tmp/cc13X6xS.s:46     .text:000000000000003c .LVL2
     /tmp/cc13X6xS.s:84     .text:0000000000000068 .LVL5
     /tmp/cc13X6xS.s:99     .text:0000000000000084 .LVL6
     /tmp/cc13X6xS.s:129    .text:00000000000000b8 .LVL8
     /tmp/cc13X6xS.s:133    .text:00000000000000c0 .LVL9
     /tmp/cc13X6xS.s:30     .text:0000000000000020 .LVL0
     /tmp/cc13X6xS.s:62     .text:0000000000000054 .LVL3
     /tmp/cc13X6xS.s:69     .text:0000000000000060 .LVL4
     /tmp/cc13X6xS.s:42     .text:0000000000000034 .LVL1
     /tmp/cc13X6xS.s:166    .debug_info:0000000000000000 .Ldebug_info0

UNDEFINED SYMBOLS
_ZN15MemoryAllocator8mem_freeEPv
_ZN15MemoryAllocator9mem_allocEm
