GAS LISTING /tmp/cc6lOwcd.s 			page 1


   1              		.file	"syscall_c.cpp"
   2              		.option pic
   3              		.option norelax
   4              		.text
   5              	.Ltext0:
   6              		.align	2
   7              		.globl	_Z11abi_invokeriz
   9              	_Z11abi_invokeriz:
  10              	.LFB46:
  11              		.file 1 "src/syscall_c.cpp"
   1:src/syscall_c.cpp **** //
   2:src/syscall_c.cpp **** // Created by os on 6/21/22.
   3:src/syscall_c.cpp **** //
   4:src/syscall_c.cpp **** 
   5:src/syscall_c.cpp **** 
   6:src/syscall_c.cpp **** #include "../h/syscall_c.h"
   7:src/syscall_c.cpp **** #include "../h/MemoryAllocator.h"
   8:src/syscall_c.cpp **** #include "../lib/hw.h"
   9:src/syscall_c.cpp **** #include "../h/riscv.h"
  10:src/syscall_c.cpp **** #include "../h/_thread.h"
  11:src/syscall_c.cpp **** #include "../h/_sem.h"
  12:src/syscall_c.cpp **** #include "../lib/console.h"
  13:src/syscall_c.cpp **** 
  14:src/syscall_c.cpp **** void userMain(void *);
  15:src/syscall_c.cpp **** 
  16:src/syscall_c.cpp **** enum ABI_codes{
  17:src/syscall_c.cpp ****     MEM_ALLOC = 0x01,
  18:src/syscall_c.cpp ****     MEM_FREE  = 0x02,
  19:src/syscall_c.cpp ****     THREAD_CREATE = 0x11,
  20:src/syscall_c.cpp ****     THREAD_EXIT = 0x12,
  21:src/syscall_c.cpp ****     THREAD_DISPATCH = 0x13,
  22:src/syscall_c.cpp ****     THREAD_CREATE_ONLY = 0x14,
  23:src/syscall_c.cpp ****     THREAD_START = 0x15,
  24:src/syscall_c.cpp ****     SEM_OPEN = 0x21,
  25:src/syscall_c.cpp ****     SEM_CLOSE = 0x22,
  26:src/syscall_c.cpp ****     SEM_WAIT = 0x23,
  27:src/syscall_c.cpp ****     SEM_SIGNAL = 0x24,
  28:src/syscall_c.cpp ****     GETC = 0x41,
  29:src/syscall_c.cpp ****     PUTC = 0x42
  30:src/syscall_c.cpp **** };
  31:src/syscall_c.cpp **** 
  32:src/syscall_c.cpp **** void abi_invoker(int serviceId, ... ){
  12              		.loc 1 32 38
  13              		.cfi_startproc
  14              	.LVL0:
  15 0000 130101FB 		addi	sp,sp,-80
  16              		.cfi_def_cfa_offset 80
  17 0004 23348100 		sd	s0,8(sp)
  18              		.cfi_offset 8, -72
  19 0008 13040101 		addi	s0,sp,16
  20              		.cfi_def_cfa 8, 64
  21 000c 2334B400 		sd	a1,8(s0)
  22 0010 2338C400 		sd	a2,16(s0)
  23 0014 233CD400 		sd	a3,24(s0)
  24 0018 2330E402 		sd	a4,32(s0)
  25 001c 2334F402 		sd	a5,40(s0)
  26 0020 23380403 		sd	a6,48(s0)
GAS LISTING /tmp/cc6lOwcd.s 			page 2


  27 0024 233C1403 		sd	a7,56(s0)
  33:src/syscall_c.cpp ****     __asm__ volatile("ecall");
  28              		.loc 1 33 5
  29              		.loc 1 33 30 is_stmt 0
  30              	#APP
  31              	# 33 "src/syscall_c.cpp" 1
  34              	}
  32              		ecall
  33              	# 0 "" 2
  34              		.loc 1 34 1
  35              	#NO_APP
  36 002c 03348100 		ld	s0,8(sp)
  37              		.cfi_restore 8
  38              		.cfi_def_cfa 2, 80
  39 0030 13010105 		addi	sp,sp,80
  40              		.cfi_def_cfa_offset 0
  41 0034 67800000 		jr	ra
  42              		.cfi_endproc
  43              	.LFE46:
  45              		.align	2
  46              		.globl	trapHandler
  48              	trapHandler:
  49              	.LFB47:
  35:src/syscall_c.cpp **** 
  36:src/syscall_c.cpp **** extern "C" void trap();
  37:src/syscall_c.cpp **** 
  38:src/syscall_c.cpp **** extern "C" void trapHandler(){
  50              		.loc 1 38 30 is_stmt 1
  51              		.cfi_startproc
  52 0038 130101FC 		addi	sp,sp,-64
  53              		.cfi_def_cfa_offset 64
  54 003c 233C1102 		sd	ra,56(sp)
  55 0040 23388102 		sd	s0,48(sp)
  56 0044 23349102 		sd	s1,40(sp)
  57              		.cfi_offset 1, -8
  58              		.cfi_offset 8, -16
  59              		.cfi_offset 9, -24
  60 0048 13040104 		addi	s0,sp,64
  61              		.cfi_def_cfa 8, 0
  39:src/syscall_c.cpp **** 
  40:src/syscall_c.cpp ****     uint64 scause = Riscv::r_scause();
  62              		.loc 1 40 5
  63              	.LBB29:
  64              	.LBB30:
  65              		.file 2 "src/../h/riscv.h"
   1:src/../h/riscv.h **** //
   2:src/../h/riscv.h **** // Created by os on 6/21/22.
   3:src/../h/riscv.h **** //
   4:src/../h/riscv.h **** 
   5:src/../h/riscv.h **** #ifndef OS_PROJEKAT_RISCV_H
   6:src/../h/riscv.h **** #define OS_PROJEKAT_RISCV_H
   7:src/../h/riscv.h **** 
   8:src/../h/riscv.h **** #include "../lib/hw.h"
   9:src/../h/riscv.h **** 
  10:src/../h/riscv.h **** class Riscv
  11:src/../h/riscv.h **** {
  12:src/../h/riscv.h **** public:
GAS LISTING /tmp/cc6lOwcd.s 			page 3


  13:src/../h/riscv.h **** 
  14:src/../h/riscv.h ****     // pop sstatus.spp and sstatus.spie bits (has to be a non inline function)
  15:src/../h/riscv.h ****     static void popSppSpie();
  16:src/../h/riscv.h **** 
  17:src/../h/riscv.h ****     // push x3..x31 registers onto stack
  18:src/../h/riscv.h ****     static void pushRegisters();
  19:src/../h/riscv.h **** 
  20:src/../h/riscv.h ****     // pop x3..x31 registers onto stack
  21:src/../h/riscv.h ****     static void popRegisters();
  22:src/../h/riscv.h **** 
  23:src/../h/riscv.h ****     // read register scause
  24:src/../h/riscv.h ****     static uint64 r_scause();
  25:src/../h/riscv.h **** 
  26:src/../h/riscv.h ****     // write register scause
  27:src/../h/riscv.h ****     static void w_scause(uint64 scause);
  28:src/../h/riscv.h **** 
  29:src/../h/riscv.h ****     // read register sepc
  30:src/../h/riscv.h ****     static uint64 r_sepc();
  31:src/../h/riscv.h **** 
  32:src/../h/riscv.h ****     // write register sepc
  33:src/../h/riscv.h ****     static void w_sepc(uint64 sepc);
  34:src/../h/riscv.h **** 
  35:src/../h/riscv.h ****     // read register stvec
  36:src/../h/riscv.h ****     static uint64 r_stvec();
  37:src/../h/riscv.h **** 
  38:src/../h/riscv.h ****     // write register stvec
  39:src/../h/riscv.h ****     static void w_stvec(uint64 stvec);
  40:src/../h/riscv.h **** 
  41:src/../h/riscv.h ****     // read register stval
  42:src/../h/riscv.h ****     static uint64 r_stval();
  43:src/../h/riscv.h **** 
  44:src/../h/riscv.h ****     // write register stval
  45:src/../h/riscv.h ****     static void w_stval(uint64 stval);
  46:src/../h/riscv.h **** 
  47:src/../h/riscv.h ****     enum BitMaskSip
  48:src/../h/riscv.h ****     {
  49:src/../h/riscv.h ****         SIP_SSIP = (1 << 1),
  50:src/../h/riscv.h ****         SIP_STIP = (1 << 5),
  51:src/../h/riscv.h ****         SIP_SEIP = (1 << 9),
  52:src/../h/riscv.h ****     };
  53:src/../h/riscv.h **** 
  54:src/../h/riscv.h ****     // mask set register sip
  55:src/../h/riscv.h ****     static void ms_sip(uint64 mask);
  56:src/../h/riscv.h **** 
  57:src/../h/riscv.h ****     // mask clear register sip
  58:src/../h/riscv.h ****     static void mc_sip(uint64 mask);
  59:src/../h/riscv.h **** 
  60:src/../h/riscv.h ****     // read register sip
  61:src/../h/riscv.h ****     static uint64 r_sip();
  62:src/../h/riscv.h **** 
  63:src/../h/riscv.h ****     // write register sip
  64:src/../h/riscv.h ****     static void w_sip(uint64 sip);
  65:src/../h/riscv.h **** 
  66:src/../h/riscv.h ****     enum BitMaskSstatus
  67:src/../h/riscv.h ****     {
  68:src/../h/riscv.h ****         SSTATUS_SIE = (1 << 1),
  69:src/../h/riscv.h ****         SSTATUS_SPIE = (1 << 5),
GAS LISTING /tmp/cc6lOwcd.s 			page 4


  70:src/../h/riscv.h ****         SSTATUS_SPP = (1 << 8),
  71:src/../h/riscv.h ****     };
  72:src/../h/riscv.h **** 
  73:src/../h/riscv.h ****     // mask set register sstatus
  74:src/../h/riscv.h ****     static void ms_sstatus(uint64 mask);
  75:src/../h/riscv.h **** 
  76:src/../h/riscv.h ****     // mask clear register sstatus
  77:src/../h/riscv.h ****     static void mc_sstatus(uint64 mask);
  78:src/../h/riscv.h **** 
  79:src/../h/riscv.h ****     // read register sstatus
  80:src/../h/riscv.h ****     static uint64 r_sstatus();
  81:src/../h/riscv.h **** 
  82:src/../h/riscv.h ****     // write register sstatus
  83:src/../h/riscv.h ****     static void w_sstatus(uint64 sstatus);
  84:src/../h/riscv.h **** 
  85:src/../h/riscv.h ****     // supervisor trap
  86:src/../h/riscv.h ****     //static void supervisorTrap();
  87:src/../h/riscv.h **** 
  88:src/../h/riscv.h **** private:
  89:src/../h/riscv.h **** 
  90:src/../h/riscv.h ****     // supervisor trap handler
  91:src/../h/riscv.h ****     //static void handleSupervisorTrap();
  92:src/../h/riscv.h **** 
  93:src/../h/riscv.h **** };
  94:src/../h/riscv.h **** 
  95:src/../h/riscv.h **** inline uint64 Riscv::r_scause()
  96:src/../h/riscv.h **** {
  97:src/../h/riscv.h ****     uint64 scause;
  66              		.loc 2 97 5
  98:src/../h/riscv.h ****     __asm__ volatile ("csrr %[scause], scause" : [scause] "=r"(scause));
  67              		.loc 2 98 5
  68              		.loc 2 98 72 is_stmt 0
  69              	#APP
  70              	# 98 "src/../h/riscv.h" 1
  99              	    return scause;
  71              		csrr a4, scause
  72              	# 0 "" 2
  73              	.LVL1:
  74              		.loc 2 99 5 is_stmt 1
  75              	#NO_APP
  76              	.LBE30:
  77              	.LBE29:
  41:src/syscall_c.cpp ****        if (scause == 0x0000000000000008UL || scause == 0x0000000000000009UL) {
  78              		.loc 1 41 8
  79              	.LBB31:
  80              		.loc 1 41 43 is_stmt 0
  81 0050 930687FF 		addi	a3,a4,-8
  82              		.loc 1 41 8
  83 0054 93071000 		li	a5,1
  84 0058 63F8D702 		bleu	a3,a5,.L28
  42:src/syscall_c.cpp ****         uint64 volatile sepc = 0;
  43:src/syscall_c.cpp ****         __asm__ volatile ("csrr %[sepc], sepc" : [sepc] "=r"(sepc));
  44:src/syscall_c.cpp ****         sepc +=4;
  45:src/syscall_c.cpp **** 
  46:src/syscall_c.cpp ****         uint64 volatile status = Riscv::r_sstatus();
  47:src/syscall_c.cpp **** 
  48:src/syscall_c.cpp ****         size_t opCode;
GAS LISTING /tmp/cc6lOwcd.s 			page 5


  49:src/syscall_c.cpp ****         __asm__ volatile("mv %0, a0": "=r" (opCode));
  50:src/syscall_c.cpp **** 
  51:src/syscall_c.cpp ****         switch (opCode) {
  52:src/syscall_c.cpp ****             case MEM_ALLOC:
  53:src/syscall_c.cpp ****             {
  54:src/syscall_c.cpp ****                 size_t size;
  55:src/syscall_c.cpp ****                 __asm__ volatile("mv %0, a1": "=r"(size));
  56:src/syscall_c.cpp **** 
  57:src/syscall_c.cpp ****                 void* ret = MemoryAllocator::getInstance()->mem_alloc(size);
  58:src/syscall_c.cpp ****                 __asm__ volatile("sd a0, 10*8(fp)");
  59:src/syscall_c.cpp **** 
  60:src/syscall_c.cpp ****                 __asm__ volatile("mv a0, %0" : : "r"(ret));
  61:src/syscall_c.cpp ****                 break;}
  62:src/syscall_c.cpp ****             case MEM_FREE:
  63:src/syscall_c.cpp ****             {
  64:src/syscall_c.cpp ****                 void *p;
  65:src/syscall_c.cpp ****                 __asm__ volatile("mv %0, a1": "=r"(p));
  66:src/syscall_c.cpp ****                 MemoryAllocator::mem_free(p);
  67:src/syscall_c.cpp ****                 break;}
  68:src/syscall_c.cpp ****             case THREAD_CREATE:
  69:src/syscall_c.cpp ****             {
  70:src/syscall_c.cpp ****                 __asm__ volatile("ld s1, 11*8(fp)");
  71:src/syscall_c.cpp ****                 __asm__ volatile("ld s2, 12*8(fp)");
  72:src/syscall_c.cpp ****                 __asm__ volatile("ld s3, 13*8(fp)");
  73:src/syscall_c.cpp ****                 thread_t* handle = nullptr;
  74:src/syscall_c.cpp ****                 __asm__ volatile("mv %0, s1": "=r"(handle));
  75:src/syscall_c.cpp ****                 _thread::Body body;
  76:src/syscall_c.cpp ****                 __asm__ volatile("mv %0, s2": "=r"(body));
  77:src/syscall_c.cpp ****                 void* arg;
  78:src/syscall_c.cpp ****                 __asm__ volatile("mv %0, s3": "=r"(arg));
  79:src/syscall_c.cpp **** 
  80:src/syscall_c.cpp ****                 *handle = _thread::createThread(body,arg);
  81:src/syscall_c.cpp ****                 (*handle)->start();
  82:src/syscall_c.cpp **** 
  83:src/syscall_c.cpp ****                 int ret = 0;
  84:src/syscall_c.cpp ****                 if (!handle) { ret = -1;}
  85:src/syscall_c.cpp **** 
  86:src/syscall_c.cpp ****                 __asm__ volatile("mv a0, %0" : :"r"(ret));
  87:src/syscall_c.cpp ****                 break;
  88:src/syscall_c.cpp ****             }
  89:src/syscall_c.cpp ****             case THREAD_EXIT:
  90:src/syscall_c.cpp ****             {
  91:src/syscall_c.cpp ****                 _thread::threadExit();
  92:src/syscall_c.cpp ****                 break;}
  93:src/syscall_c.cpp ****             case THREAD_DISPATCH:
  94:src/syscall_c.cpp ****             {
  95:src/syscall_c.cpp ****                 _thread::dispatch();
  96:src/syscall_c.cpp ****                 break;
  97:src/syscall_c.cpp ****             }
  98:src/syscall_c.cpp ****             case THREAD_CREATE_ONLY:{
  99:src/syscall_c.cpp ****                 __asm__ volatile("ld s1, 11*8(fp)");
 100:src/syscall_c.cpp ****                 __asm__ volatile("ld s2, 12*8(fp)");
 101:src/syscall_c.cpp ****                 __asm__ volatile("ld s3, 13*8(fp)");
 102:src/syscall_c.cpp ****                 thread_t* handle = nullptr;
 103:src/syscall_c.cpp ****                 __asm__ volatile("mv %0, s1": "=r"(handle));
 104:src/syscall_c.cpp ****                 _thread::Body body;
 105:src/syscall_c.cpp ****                 __asm__ volatile("mv %0, s2": "=r"(body));
GAS LISTING /tmp/cc6lOwcd.s 			page 6


 106:src/syscall_c.cpp ****                 void* arg;
 107:src/syscall_c.cpp ****                 __asm__ volatile("mv %0, s3": "=r"(arg));
 108:src/syscall_c.cpp **** 
 109:src/syscall_c.cpp ****                 *handle = _thread::createThread(body,arg);
 110:src/syscall_c.cpp **** 
 111:src/syscall_c.cpp ****                 int ret = 0;
 112:src/syscall_c.cpp ****                 if (!handle) {ret = -1;}
 113:src/syscall_c.cpp ****                 __asm__ volatile("mv a0, %0" : :"r"(ret));
 114:src/syscall_c.cpp ****                 break;}
 115:src/syscall_c.cpp ****             case THREAD_START:{
 116:src/syscall_c.cpp ****                 thread_t handle = nullptr;
 117:src/syscall_c.cpp ****                 __asm__ volatile("mv %0, a1": "=r"(handle));
 118:src/syscall_c.cpp **** 
 119:src/syscall_c.cpp ****                 handle->start();
 120:src/syscall_c.cpp ****                 break;}
 121:src/syscall_c.cpp ****             case SEM_OPEN:{
 122:src/syscall_c.cpp ****                 sem_t* handle = nullptr;
 123:src/syscall_c.cpp ****                 __asm__ volatile("mv %0, a1": "=r"(handle));
 124:src/syscall_c.cpp ****                 unsigned init = 0;
 125:src/syscall_c.cpp ****                 __asm__ volatile("mv %0, a2": "=r"(init));
 126:src/syscall_c.cpp **** 
 127:src/syscall_c.cpp ****                 *handle = _sem::semOpen(init);
 128:src/syscall_c.cpp ****                 __asm__ volatile("mv a0, %0" : :"r"(handle));
 129:src/syscall_c.cpp ****                 break;
 130:src/syscall_c.cpp ****             }
 131:src/syscall_c.cpp ****             case SEM_CLOSE:{
 132:src/syscall_c.cpp ****                 sem_t handle = nullptr;
 133:src/syscall_c.cpp ****                 __asm__ volatile("mv %0, a1": "=r"(handle));
 134:src/syscall_c.cpp **** 
 135:src/syscall_c.cpp ****                 int ret = _sem::semClose(handle);
 136:src/syscall_c.cpp ****                 __asm__ volatile("mv a0, %0" : :"r"(ret));
 137:src/syscall_c.cpp ****                 break;
 138:src/syscall_c.cpp ****             }
 139:src/syscall_c.cpp ****             case SEM_WAIT:{
 140:src/syscall_c.cpp ****                 sem_t id = nullptr;
 141:src/syscall_c.cpp ****                 __asm__ volatile("mv %0, a1": "=r"(id));
 142:src/syscall_c.cpp **** 
 143:src/syscall_c.cpp ****                 int ret = _sem::semWait(id);
 144:src/syscall_c.cpp ****                 __asm__ volatile("mv a0, %0" : :"r"(ret));
 145:src/syscall_c.cpp ****                 break;
 146:src/syscall_c.cpp ****             }
 147:src/syscall_c.cpp ****             case SEM_SIGNAL:{
 148:src/syscall_c.cpp ****                 sem_t id = nullptr;
 149:src/syscall_c.cpp ****                 __asm__ volatile("mv %0, a1": "=r"(id));
 150:src/syscall_c.cpp **** 
 151:src/syscall_c.cpp ****                 int ret = _sem::semSignal(id);
 152:src/syscall_c.cpp ****                 __asm__ volatile("mv a0, %0" : :"r"(ret));
 153:src/syscall_c.cpp ****                 break;
 154:src/syscall_c.cpp ****             }
 155:src/syscall_c.cpp ****             case PUTC:{
 156:src/syscall_c.cpp ****                 char c;
 157:src/syscall_c.cpp ****                 __asm__ volatile("mv %0, a1": "=r"(c));
 158:src/syscall_c.cpp ****                 __putc(c);
 159:src/syscall_c.cpp ****                 break;
 160:src/syscall_c.cpp ****             }
 161:src/syscall_c.cpp ****             case GETC:{
 162:src/syscall_c.cpp ****                 char c = __getc();
GAS LISTING /tmp/cc6lOwcd.s 			page 7


 163:src/syscall_c.cpp ****                 __asm__ volatile("sd a0, 10*8(fp)");
 164:src/syscall_c.cpp ****                 __asm__ volatile("mv a0, %0" : : "r"(c));
 165:src/syscall_c.cpp ****                 //__asm__ volatile("mv a0, %0" : :"r"(c));
 166:src/syscall_c.cpp ****                 break;
 167:src/syscall_c.cpp ****             }
 168:src/syscall_c.cpp ****             default:
 169:src/syscall_c.cpp ****                 __asm__ volatile("csrw sepc, %0" : : "r"(&userMain));
 170:src/syscall_c.cpp ****                 Riscv::mc_sstatus(Riscv::SSTATUS_SPP);
 171:src/syscall_c.cpp ****                 return;
 172:src/syscall_c.cpp ****         }
 173:src/syscall_c.cpp ****         Riscv::w_sepc(sepc);
 174:src/syscall_c.cpp ****         Riscv::w_sstatus(status);
 175:src/syscall_c.cpp ****     }
 176:src/syscall_c.cpp ****     else if (scause == 0x8000000000000001UL)
  85              		.loc 1 176 10 is_stmt 1
  86 005c 9307F0FF 		li	a5,-1
  87 0060 9397F703 		slli	a5,a5,63
  88 0064 93871700 		addi	a5,a5,1
  89 0068 6304F720 		beq	a4,a5,.L29
 177:src/syscall_c.cpp ****     {
 178:src/syscall_c.cpp ****         Riscv::mc_sip(Riscv::SIP_SSIP);
 179:src/syscall_c.cpp ****     } else if (scause == 0x8000000000000009UL)
  90              		.loc 1 179 12
  91 006c 9307F0FF 		li	a5,-1
  92 0070 9397F703 		slli	a5,a5,63
  93 0074 93879700 		addi	a5,a5,9
  94 0078 6318F708 		bne	a4,a5,.L3
 180:src/syscall_c.cpp ****     {
 181:src/syscall_c.cpp ****         // interrupt: yes; cause code: supervisor external interrupt (PLIC; could be keyboard)
 182:src/syscall_c.cpp ****         console_handler();
  95              		.loc 1 182 9
  96              		.loc 1 182 24 is_stmt 0
  97 007c 97000000 		call	console_handler@plt
  97      E7800000 
  98              	.LVL2:
  99 0084 6F004008 		j	.L3
 100              	.LVL3:
 101              	.L28:
 102              	.LBB32:
  42:src/syscall_c.cpp ****         __asm__ volatile ("csrr %[sepc], sepc" : [sepc] "=r"(sepc));
 103              		.loc 1 42 9 is_stmt 1
  42:src/syscall_c.cpp ****         __asm__ volatile ("csrr %[sepc], sepc" : [sepc] "=r"(sepc));
 104              		.loc 1 42 25 is_stmt 0
 105 0088 233404FC 		sd	zero,-56(s0)
  43:src/syscall_c.cpp ****         sepc +=4;
 106              		.loc 1 43 9 is_stmt 1
  43:src/syscall_c.cpp ****         sepc +=4;
 107              		.loc 1 43 68 is_stmt 0
 108              	#APP
 109              	# 43 "src/syscall_c.cpp" 1
 110              		csrr a5, sepc
 111              	# 0 "" 2
 112              	#NO_APP
 113 0090 2334F4FC 		sd	a5,-56(s0)
  44:src/syscall_c.cpp **** 
 114              		.loc 1 44 9 is_stmt 1
  44:src/syscall_c.cpp **** 
GAS LISTING /tmp/cc6lOwcd.s 			page 8


 115              		.loc 1 44 14 is_stmt 0
 116 0094 833784FC 		ld	a5,-56(s0)
 117 0098 93874700 		addi	a5,a5,4
 118 009c 2334F4FC 		sd	a5,-56(s0)
  46:src/syscall_c.cpp **** 
 119              		.loc 1 46 9 is_stmt 1
 120              	.LBB33:
 121              	.LBB34:
 100:src/../h/riscv.h **** }
 101:src/../h/riscv.h **** 
 102:src/../h/riscv.h **** inline void Riscv::w_scause(uint64 scause)
 103:src/../h/riscv.h **** {
 104:src/../h/riscv.h ****     __asm__ volatile ("csrw scause, %[scause]" : : [scause] "r"(scause));
 105:src/../h/riscv.h **** }
 106:src/../h/riscv.h **** 
 107:src/../h/riscv.h **** inline uint64 Riscv::r_sepc()
 108:src/../h/riscv.h **** {
 109:src/../h/riscv.h ****     uint64 volatile sepc;
 110:src/../h/riscv.h ****     __asm__ volatile ("csrr %[sepc], sepc" : [sepc] "=r"(sepc));
 111:src/../h/riscv.h ****     return sepc;
 112:src/../h/riscv.h **** }
 113:src/../h/riscv.h **** 
 114:src/../h/riscv.h **** inline void Riscv::w_sepc(uint64 sepc)
 115:src/../h/riscv.h **** {
 116:src/../h/riscv.h ****     __asm__ volatile ("csrw sepc, %[sepc]" : : [sepc] "r"(sepc));
 117:src/../h/riscv.h **** }
 118:src/../h/riscv.h **** 
 119:src/../h/riscv.h **** inline uint64 Riscv::r_stvec()
 120:src/../h/riscv.h **** {
 121:src/../h/riscv.h ****     uint64 volatile stvec;
 122:src/../h/riscv.h ****     __asm__ volatile ("csrr %[stvec], stvec" : [stvec] "=r"(stvec));
 123:src/../h/riscv.h ****     return stvec;
 124:src/../h/riscv.h **** }
 125:src/../h/riscv.h **** 
 126:src/../h/riscv.h **** inline void Riscv::w_stvec(uint64 stvec)
 127:src/../h/riscv.h **** {
 128:src/../h/riscv.h ****     __asm__ volatile ("csrw stvec, %[stvec]" : : [stvec] "r"(stvec));
 129:src/../h/riscv.h **** }
 130:src/../h/riscv.h **** 
 131:src/../h/riscv.h **** inline uint64 Riscv::r_stval()
 132:src/../h/riscv.h **** {
 133:src/../h/riscv.h ****     uint64 volatile stval;
 134:src/../h/riscv.h ****     __asm__ volatile ("csrr %[stval], stval" : [stval] "=r"(stval));
 135:src/../h/riscv.h ****     return stval;
 136:src/../h/riscv.h **** }
 137:src/../h/riscv.h **** 
 138:src/../h/riscv.h **** inline void Riscv::w_stval(uint64 stval)
 139:src/../h/riscv.h **** {
 140:src/../h/riscv.h ****     __asm__ volatile ("csrw stval, %[stval]" : : [stval] "r"(stval));
 141:src/../h/riscv.h **** }
 142:src/../h/riscv.h **** 
 143:src/../h/riscv.h **** inline void Riscv::ms_sip(uint64 mask)
 144:src/../h/riscv.h **** {
 145:src/../h/riscv.h ****     __asm__ volatile ("csrs sip, %[mask]" : : [mask] "r"(mask));
 146:src/../h/riscv.h **** }
 147:src/../h/riscv.h **** 
 148:src/../h/riscv.h **** inline void Riscv::mc_sip(uint64 mask)
GAS LISTING /tmp/cc6lOwcd.s 			page 9


 149:src/../h/riscv.h **** {
 150:src/../h/riscv.h ****     __asm__ volatile ("csrc sip, %[mask]" : : [mask] "r"(mask));
 151:src/../h/riscv.h **** }
 152:src/../h/riscv.h **** 
 153:src/../h/riscv.h **** inline uint64 Riscv::r_sip()
 154:src/../h/riscv.h **** {
 155:src/../h/riscv.h ****     uint64 volatile sip;
 156:src/../h/riscv.h ****     __asm__ volatile ("csrr %[sip], sip" : [sip] "=r"(sip));
 157:src/../h/riscv.h ****     return sip;
 158:src/../h/riscv.h **** }
 159:src/../h/riscv.h **** 
 160:src/../h/riscv.h **** inline void Riscv::w_sip(uint64 sip)
 161:src/../h/riscv.h **** {
 162:src/../h/riscv.h ****     __asm__ volatile ("csrw sip, %[sip]" : : [sip] "r"(sip));
 163:src/../h/riscv.h **** }
 164:src/../h/riscv.h **** 
 165:src/../h/riscv.h **** inline void Riscv::ms_sstatus(uint64 mask)
 166:src/../h/riscv.h **** {
 167:src/../h/riscv.h ****     __asm__ volatile ("csrs sstatus, %[mask]" : : [mask] "r"(mask));
 168:src/../h/riscv.h **** }
 169:src/../h/riscv.h **** 
 170:src/../h/riscv.h **** inline void Riscv::mc_sstatus(uint64 mask)
 171:src/../h/riscv.h **** {
 172:src/../h/riscv.h ****     __asm__ volatile ("csrc sstatus, %[mask]" : : [mask] "r"(mask));
 173:src/../h/riscv.h **** }
 174:src/../h/riscv.h **** 
 175:src/../h/riscv.h **** inline uint64 Riscv::r_sstatus()
 176:src/../h/riscv.h **** {
 177:src/../h/riscv.h ****     uint64 volatile sstatus;
 122              		.loc 2 177 5
 178:src/../h/riscv.h ****     __asm__ volatile ("csrr %[sstatus], sstatus" : [sstatus] "=r"(sstatus));
 123              		.loc 2 178 5
 124              		.loc 2 178 76 is_stmt 0
 125              	#APP
 126              	# 178 "src/../h/riscv.h" 1
 179              	    return sstatus;
 127              		csrr a5, sstatus
 128              	# 0 "" 2
 129              	#NO_APP
 130 00a4 233CF4FC 		sd	a5,-40(s0)
 131              		.loc 2 179 5 is_stmt 1
 132              		.loc 2 179 12 is_stmt 0
 133 00a8 833784FD 		ld	a5,-40(s0)
 134              	.LBE34:
 135              	.LBE33:
  46:src/syscall_c.cpp **** 
 136              		.loc 1 46 51
 137 00ac 2338F4FC 		sd	a5,-48(s0)
  48:src/syscall_c.cpp ****         __asm__ volatile("mv %0, a0": "=r" (opCode));
 138              		.loc 1 48 9 is_stmt 1
  49:src/syscall_c.cpp **** 
 139              		.loc 1 49 9
  49:src/syscall_c.cpp **** 
 140              		.loc 1 49 53 is_stmt 0
 141              	#APP
 142              	# 49 "src/syscall_c.cpp" 1
 143              		mv a5, a0
GAS LISTING /tmp/cc6lOwcd.s 			page 10


 144              	# 0 "" 2
 145              	.LVL4:
  51:src/syscall_c.cpp ****             case MEM_ALLOC:
 146              		.loc 1 51 9 is_stmt 1
 147              	#NO_APP
 148 00b4 13072004 		li	a4,66
 149              	.LVL5:
 150 00b8 6360F71A 		bgtu	a5,a4,.L5
 151 00bc 93972700 		slli	a5,a5,2
 152              	.LVL6:
 153 00c0 17070000 		lla	a4,.L7
 153      13070700 
 154 00c8 B387E700 		add	a5,a5,a4
 155 00cc 83A70700 		lw	a5,0(a5)
 156 00d0 B387E700 		add	a5,a5,a4
 157 00d4 67800700 		jr	a5
 158              		.section	.rodata
 159              		.align	2
 160              		.align	2
 161              	.L7:
 162 0000 00000000 		.word	.L5-.L7
 163 0004 00000000 		.word	.L19-.L7
 164 0008 00000000 		.word	.L18-.L7
 165 000c 00000000 		.word	.L5-.L7
 166 0010 00000000 		.word	.L5-.L7
 167 0014 00000000 		.word	.L5-.L7
 168 0018 00000000 		.word	.L5-.L7
 169 001c 00000000 		.word	.L5-.L7
 170 0020 00000000 		.word	.L5-.L7
 171 0024 00000000 		.word	.L5-.L7
 172 0028 00000000 		.word	.L5-.L7
 173 002c 00000000 		.word	.L5-.L7
 174 0030 00000000 		.word	.L5-.L7
 175 0034 00000000 		.word	.L5-.L7
 176 0038 00000000 		.word	.L5-.L7
 177 003c 00000000 		.word	.L5-.L7
 178 0040 00000000 		.word	.L5-.L7
 179 0044 00000000 		.word	.L17-.L7
 180 0048 00000000 		.word	.L16-.L7
 181 004c 00000000 		.word	.L15-.L7
 182 0050 00000000 		.word	.L14-.L7
 183 0054 00000000 		.word	.L13-.L7
 184 0058 00000000 		.word	.L5-.L7
 185 005c 00000000 		.word	.L5-.L7
 186 0060 00000000 		.word	.L5-.L7
 187 0064 00000000 		.word	.L5-.L7
 188 0068 00000000 		.word	.L5-.L7
 189 006c 00000000 		.word	.L5-.L7
 190 0070 00000000 		.word	.L5-.L7
 191 0074 00000000 		.word	.L5-.L7
 192 0078 00000000 		.word	.L5-.L7
 193 007c 00000000 		.word	.L5-.L7
 194 0080 00000000 		.word	.L5-.L7
 195 0084 00000000 		.word	.L12-.L7
 196 0088 00000000 		.word	.L11-.L7
 197 008c 00000000 		.word	.L10-.L7
 198 0090 00000000 		.word	.L9-.L7
GAS LISTING /tmp/cc6lOwcd.s 			page 11


 199 0094 00000000 		.word	.L5-.L7
 200 0098 00000000 		.word	.L5-.L7
 201 009c 00000000 		.word	.L5-.L7
 202 00a0 00000000 		.word	.L5-.L7
 203 00a4 00000000 		.word	.L5-.L7
 204 00a8 00000000 		.word	.L5-.L7
 205 00ac 00000000 		.word	.L5-.L7
 206 00b0 00000000 		.word	.L5-.L7
 207 00b4 00000000 		.word	.L5-.L7
 208 00b8 00000000 		.word	.L5-.L7
 209 00bc 00000000 		.word	.L5-.L7
 210 00c0 00000000 		.word	.L5-.L7
 211 00c4 00000000 		.word	.L5-.L7
 212 00c8 00000000 		.word	.L5-.L7
 213 00cc 00000000 		.word	.L5-.L7
 214 00d0 00000000 		.word	.L5-.L7
 215 00d4 00000000 		.word	.L5-.L7
 216 00d8 00000000 		.word	.L5-.L7
 217 00dc 00000000 		.word	.L5-.L7
 218 00e0 00000000 		.word	.L5-.L7
 219 00e4 00000000 		.word	.L5-.L7
 220 00e8 00000000 		.word	.L5-.L7
 221 00ec 00000000 		.word	.L5-.L7
 222 00f0 00000000 		.word	.L5-.L7
 223 00f4 00000000 		.word	.L5-.L7
 224 00f8 00000000 		.word	.L5-.L7
 225 00fc 00000000 		.word	.L5-.L7
 226 0100 00000000 		.word	.L5-.L7
 227 0104 00000000 		.word	.L8-.L7
 228 0108 00000000 		.word	.L6-.L7
 229              		.text
 230              	.L19:
 231              	.LBB35:
  52:src/syscall_c.cpp ****             {
 232              		.loc 1 52 13
  53:src/syscall_c.cpp ****                 size_t size;
 233              		.loc 1 53 13
 234              	.LBB36:
  54:src/syscall_c.cpp ****                 __asm__ volatile("mv %0, a1": "=r"(size));
 235              		.loc 1 54 17
  55:src/syscall_c.cpp **** 
 236              		.loc 1 55 17
  55:src/syscall_c.cpp **** 
 237              		.loc 1 55 58 is_stmt 0
 238              	#APP
 239              	# 55 "src/syscall_c.cpp" 1
 240              		mv s1, a1
 241              	# 0 "" 2
 242              	.LVL7:
  57:src/syscall_c.cpp ****                 __asm__ volatile("sd a0, 10*8(fp)");
 243              		.loc 1 57 17 is_stmt 1
  57:src/syscall_c.cpp ****                 __asm__ volatile("sd a0, 10*8(fp)");
 244              		.loc 1 57 57 is_stmt 0
 245              	#NO_APP
 246 00dc 97000000 		call	_ZN15MemoryAllocator11getInstanceEv@plt
 246      E7800000 
 247              	.LVL8:
GAS LISTING /tmp/cc6lOwcd.s 			page 12


  57:src/syscall_c.cpp ****                 __asm__ volatile("sd a0, 10*8(fp)");
 248              		.loc 1 57 75
 249 00e4 13850400 		mv	a0,s1
 250 00e8 97000000 		call	_ZN15MemoryAllocator9mem_allocEm@plt
 250      E7800000 
 251              	.LVL9:
  58:src/syscall_c.cpp **** 
 252              		.loc 1 58 17 is_stmt 1
  58:src/syscall_c.cpp **** 
 253              		.loc 1 58 52 is_stmt 0
 254              	#APP
 255              	# 58 "src/syscall_c.cpp" 1
  60:src/syscall_c.cpp ****                 break;}
 256              		sd a0, 10*8(fp)
 257              	# 0 "" 2
 258              		.loc 1 60 17 is_stmt 1
  60:src/syscall_c.cpp ****                 break;}
 259              		.loc 1 60 59 is_stmt 0
 260              	# 60 "src/syscall_c.cpp" 1
  61:src/syscall_c.cpp ****             case MEM_FREE:
 261              		mv a0, a0
 262              	# 0 "" 2
 263              		.loc 1 61 17 is_stmt 1
 264              	.LVL10:
 265              	#NO_APP
 266              	.L20:
 267              	.LBE36:
 268              	.LBE35:
 173:src/syscall_c.cpp ****         Riscv::w_sstatus(status);
 269              		.loc 1 173 9
 173:src/syscall_c.cpp ****         Riscv::w_sstatus(status);
 270              		.loc 1 173 22 is_stmt 0
 271 00f8 833784FC 		ld	a5,-56(s0)
 272              	.LVL11:
 273              	.LBB49:
 274              	.LBB50:
 116:src/../h/riscv.h **** }
 275              		.loc 2 116 5 is_stmt 1
 116:src/../h/riscv.h **** }
 276              		.loc 2 116 65 is_stmt 0
 277              	#APP
 278              	# 116 "src/../h/riscv.h" 1
 279              		csrw sepc, a5
 280              	# 0 "" 2
 281              	.LVL12:
 282              	#NO_APP
 283              	.LBE50:
 284              	.LBE49:
 174:src/syscall_c.cpp ****     }
 285              		.loc 1 174 9 is_stmt 1
 174:src/syscall_c.cpp ****     }
 286              		.loc 1 174 25 is_stmt 0
 287 0100 833704FD 		ld	a5,-48(s0)
 288              	.LVL13:
 289              	.LBB51:
 290              	.LBB52:
 180:src/../h/riscv.h **** }
GAS LISTING /tmp/cc6lOwcd.s 			page 13


 181:src/../h/riscv.h **** 
 182:src/../h/riscv.h **** inline void Riscv::w_sstatus(uint64 sstatus)
 183:src/../h/riscv.h **** {
 184:src/../h/riscv.h ****     __asm__ volatile ("csrw sstatus, %[sstatus]" : : [sstatus] "r"(sstatus));
 291              		.loc 2 184 5 is_stmt 1
 292              		.loc 2 184 77 is_stmt 0
 293              	#APP
 294              	# 184 "src/../h/riscv.h" 1
 185              	}
 295              		csrw sstatus, a5
 296              	# 0 "" 2
 297              	.LVL14:
 298              	#NO_APP
 299              	.L3:
 300              	.LBE52:
 301              	.LBE51:
 302              	.LBE32:
 303              	.LBE31:
 183:src/syscall_c.cpp ****     } else
 184:src/syscall_c.cpp ****     {
 185:src/syscall_c.cpp ****         // unexpected trap cause
 186:src/syscall_c.cpp ****     }
 187:src/syscall_c.cpp **** }
 304              		.loc 1 187 1
 305 0108 83308103 		ld	ra,56(sp)
 306              		.cfi_remember_state
 307              		.cfi_restore 1
 308 010c 03340103 		ld	s0,48(sp)
 309              		.cfi_restore 8
 310              		.cfi_def_cfa 2, 64
 311 0110 83348102 		ld	s1,40(sp)
 312              		.cfi_restore 9
 313 0114 13010104 		addi	sp,sp,64
 314              		.cfi_def_cfa_offset 0
 315 0118 67800000 		jr	ra
 316              	.LVL15:
 317              	.L18:
 318              		.cfi_restore_state
 319              	.LBB57:
 320              	.LBB54:
 321              	.LBB53:
  62:src/syscall_c.cpp ****             {
 322              		.loc 1 62 13 is_stmt 1
  63:src/syscall_c.cpp ****                 void *p;
 323              		.loc 1 63 13
 324              	.LBB37:
  64:src/syscall_c.cpp ****                 __asm__ volatile("mv %0, a1": "=r"(p));
 325              		.loc 1 64 17
  65:src/syscall_c.cpp ****                 MemoryAllocator::mem_free(p);
 326              		.loc 1 65 17
  65:src/syscall_c.cpp ****                 MemoryAllocator::mem_free(p);
 327              		.loc 1 65 55 is_stmt 0
 328              	#APP
 329              	# 65 "src/syscall_c.cpp" 1
 330              		mv a0, a1
 331              	# 0 "" 2
 332              	.LVL16:
GAS LISTING /tmp/cc6lOwcd.s 			page 14


  66:src/syscall_c.cpp ****                 break;}
 333              		.loc 1 66 17 is_stmt 1
  66:src/syscall_c.cpp ****                 break;}
 334              		.loc 1 66 42 is_stmt 0
 335              	#NO_APP
 336 0120 97000000 		call	_ZN15MemoryAllocator8mem_freeEPv@plt
 336      E7800000 
 337              	.LVL17:
  67:src/syscall_c.cpp ****             case THREAD_CREATE:
 338              		.loc 1 67 17 is_stmt 1
 339 0128 6FF01FFD 		j	.L20
 340              	.LVL18:
 341              	.L17:
 342              	.LBE37:
  68:src/syscall_c.cpp ****             {
 343              		.loc 1 68 13
  69:src/syscall_c.cpp ****                 __asm__ volatile("ld s1, 11*8(fp)");
 344              		.loc 1 69 13
 345              	.LBB38:
  70:src/syscall_c.cpp ****                 __asm__ volatile("ld s2, 12*8(fp)");
 346              		.loc 1 70 17
  70:src/syscall_c.cpp ****                 __asm__ volatile("ld s2, 12*8(fp)");
 347              		.loc 1 70 52 is_stmt 0
 348              	#APP
 349              	# 70 "src/syscall_c.cpp" 1
  71:src/syscall_c.cpp ****                 __asm__ volatile("ld s3, 13*8(fp)");
 350              		ld s1, 11*8(fp)
 351              	# 0 "" 2
 352              		.loc 1 71 17 is_stmt 1
  71:src/syscall_c.cpp ****                 __asm__ volatile("ld s3, 13*8(fp)");
 353              		.loc 1 71 52 is_stmt 0
 354              	# 71 "src/syscall_c.cpp" 1
  72:src/syscall_c.cpp ****                 thread_t* handle = nullptr;
 355              		ld s2, 12*8(fp)
 356              	# 0 "" 2
 357              		.loc 1 72 17 is_stmt 1
  72:src/syscall_c.cpp ****                 thread_t* handle = nullptr;
 358              		.loc 1 72 52 is_stmt 0
 359              	# 72 "src/syscall_c.cpp" 1
  73:src/syscall_c.cpp ****                 __asm__ volatile("mv %0, s1": "=r"(handle));
 360              		ld s3, 13*8(fp)
 361              	# 0 "" 2
 362              		.loc 1 73 17 is_stmt 1
 363              	.LVL19:
  74:src/syscall_c.cpp ****                 _thread::Body body;
 364              		.loc 1 74 17
  74:src/syscall_c.cpp ****                 _thread::Body body;
 365              		.loc 1 74 60 is_stmt 0
 366              	# 74 "src/syscall_c.cpp" 1
 367              		mv s1, s1
 368              	# 0 "" 2
 369              	.LVL20:
  75:src/syscall_c.cpp ****                 __asm__ volatile("mv %0, s2": "=r"(body));
 370              		.loc 1 75 17 is_stmt 1
  76:src/syscall_c.cpp ****                 void* arg;
 371              		.loc 1 76 17
  76:src/syscall_c.cpp ****                 void* arg;
GAS LISTING /tmp/cc6lOwcd.s 			page 15


 372              		.loc 1 76 58 is_stmt 0
 373              	# 76 "src/syscall_c.cpp" 1
 374              		mv a0, s2
 375              	# 0 "" 2
 376              	.LVL21:
  77:src/syscall_c.cpp ****                 __asm__ volatile("mv %0, s3": "=r"(arg));
 377              		.loc 1 77 17 is_stmt 1
  78:src/syscall_c.cpp **** 
 378              		.loc 1 78 17
  78:src/syscall_c.cpp **** 
 379              		.loc 1 78 57 is_stmt 0
 380              	# 78 "src/syscall_c.cpp" 1
 381              		mv a1, s3
 382              	# 0 "" 2
 383              	.LVL22:
  80:src/syscall_c.cpp ****                 (*handle)->start();
 384              		.loc 1 80 17 is_stmt 1
  80:src/syscall_c.cpp ****                 (*handle)->start();
 385              		.loc 1 80 48 is_stmt 0
 386              	#NO_APP
 387 0144 97000000 		call	_ZN7_thread12createThreadEPFvPvES0_@plt
 387      E7800000 
 388              	.LVL23:
  80:src/syscall_c.cpp ****                 (*handle)->start();
 389              		.loc 1 80 25
 390 014c 23B0A400 		sd	a0,0(s1)
  81:src/syscall_c.cpp **** 
 391              		.loc 1 81 17 is_stmt 1
  81:src/syscall_c.cpp **** 
 392              		.loc 1 81 33 is_stmt 0
 393 0150 97000000 		call	_ZN7_thread5startEv@plt
 393      E7800000 
 394              	.LVL24:
  83:src/syscall_c.cpp ****                 if (!handle) { ret = -1;}
 395              		.loc 1 83 17 is_stmt 1
  84:src/syscall_c.cpp **** 
 396              		.loc 1 84 17
 397 0158 63880400 		beqz	s1,.L25
  83:src/syscall_c.cpp ****                 if (!handle) { ret = -1;}
 398              		.loc 1 83 21 is_stmt 0
 399 015c 93070000 		li	a5,0
 400              	.L21:
 401              	.LVL25:
  86:src/syscall_c.cpp ****                 break;
 402              		.loc 1 86 17 is_stmt 1
  86:src/syscall_c.cpp ****                 break;
 403              		.loc 1 86 58 is_stmt 0
 404              	#APP
 405              	# 86 "src/syscall_c.cpp" 1
  87:src/syscall_c.cpp ****             }
 406              		mv a0, a5
 407              	# 0 "" 2
 408              		.loc 1 87 17 is_stmt 1
 409              	#NO_APP
 410 0164 6FF05FF9 		j	.L20
 411              	.LVL26:
 412              	.L25:
GAS LISTING /tmp/cc6lOwcd.s 			page 16


  84:src/syscall_c.cpp **** 
 413              		.loc 1 84 36 is_stmt 0
 414 0168 9307F0FF 		li	a5,-1
 415 016c 6FF05FFF 		j	.L21
 416              	.LVL27:
 417              	.L16:
 418              	.LBE38:
  89:src/syscall_c.cpp ****             {
 419              		.loc 1 89 13 is_stmt 1
  90:src/syscall_c.cpp ****                 _thread::threadExit();
 420              		.loc 1 90 13
  91:src/syscall_c.cpp ****                 break;}
 421              		.loc 1 91 17
  91:src/syscall_c.cpp ****                 break;}
 422              		.loc 1 91 36 is_stmt 0
 423 0170 97000000 		call	_ZN7_thread10threadExitEv@plt
 423      E7800000 
 424              	.LVL28:
  92:src/syscall_c.cpp ****             case THREAD_DISPATCH:
 425              		.loc 1 92 17 is_stmt 1
 426 0178 6FF01FF8 		j	.L20
 427              	.LVL29:
 428              	.L15:
  93:src/syscall_c.cpp ****             {
 429              		.loc 1 93 13
  94:src/syscall_c.cpp ****                 _thread::dispatch();
 430              		.loc 1 94 13
  95:src/syscall_c.cpp ****                 break;
 431              		.loc 1 95 17
  95:src/syscall_c.cpp ****                 break;
 432              		.loc 1 95 34 is_stmt 0
 433 017c 97000000 		call	_ZN7_thread8dispatchEv@plt
 433      E7800000 
 434              	.LVL30:
  96:src/syscall_c.cpp ****             }
 435              		.loc 1 96 17 is_stmt 1
 436 0184 6FF05FF7 		j	.L20
 437              	.LVL31:
 438              	.L14:
  98:src/syscall_c.cpp ****                 __asm__ volatile("ld s1, 11*8(fp)");
 439              		.loc 1 98 13
  98:src/syscall_c.cpp ****                 __asm__ volatile("ld s1, 11*8(fp)");
 440              		.loc 1 98 37
 441              	.LBB39:
  99:src/syscall_c.cpp ****                 __asm__ volatile("ld s2, 12*8(fp)");
 442              		.loc 1 99 17
  99:src/syscall_c.cpp ****                 __asm__ volatile("ld s2, 12*8(fp)");
 443              		.loc 1 99 52 is_stmt 0
 444              	#APP
 445              	# 99 "src/syscall_c.cpp" 1
 100:src/syscall_c.cpp ****                 __asm__ volatile("ld s3, 13*8(fp)");
 446              		ld s1, 11*8(fp)
 447              	# 0 "" 2
 448              		.loc 1 100 17 is_stmt 1
 100:src/syscall_c.cpp ****                 __asm__ volatile("ld s3, 13*8(fp)");
 449              		.loc 1 100 52 is_stmt 0
 450              	# 100 "src/syscall_c.cpp" 1
GAS LISTING /tmp/cc6lOwcd.s 			page 17


 101:src/syscall_c.cpp ****                 thread_t* handle = nullptr;
 451              		ld s2, 12*8(fp)
 452              	# 0 "" 2
 453              		.loc 1 101 17 is_stmt 1
 101:src/syscall_c.cpp ****                 thread_t* handle = nullptr;
 454              		.loc 1 101 52 is_stmt 0
 455              	# 101 "src/syscall_c.cpp" 1
 102:src/syscall_c.cpp ****                 __asm__ volatile("mv %0, s1": "=r"(handle));
 456              		ld s3, 13*8(fp)
 457              	# 0 "" 2
 458              		.loc 1 102 17 is_stmt 1
 459              	.LVL32:
 103:src/syscall_c.cpp ****                 _thread::Body body;
 460              		.loc 1 103 17
 103:src/syscall_c.cpp ****                 _thread::Body body;
 461              		.loc 1 103 60 is_stmt 0
 462              	# 103 "src/syscall_c.cpp" 1
 463              		mv s1, s1
 464              	# 0 "" 2
 465              	.LVL33:
 104:src/syscall_c.cpp ****                 __asm__ volatile("mv %0, s2": "=r"(body));
 466              		.loc 1 104 17 is_stmt 1
 105:src/syscall_c.cpp ****                 void* arg;
 467              		.loc 1 105 17
 105:src/syscall_c.cpp ****                 void* arg;
 468              		.loc 1 105 58 is_stmt 0
 469              	# 105 "src/syscall_c.cpp" 1
 470              		mv a0, s2
 471              	# 0 "" 2
 472              	.LVL34:
 106:src/syscall_c.cpp ****                 __asm__ volatile("mv %0, s3": "=r"(arg));
 473              		.loc 1 106 17 is_stmt 1
 107:src/syscall_c.cpp **** 
 474              		.loc 1 107 17
 107:src/syscall_c.cpp **** 
 475              		.loc 1 107 57 is_stmt 0
 476              	# 107 "src/syscall_c.cpp" 1
 477              		mv a1, s3
 478              	# 0 "" 2
 479              	.LVL35:
 109:src/syscall_c.cpp **** 
 480              		.loc 1 109 17 is_stmt 1
 109:src/syscall_c.cpp **** 
 481              		.loc 1 109 48 is_stmt 0
 482              	#NO_APP
 483 01a0 97000000 		call	_ZN7_thread12createThreadEPFvPvES0_@plt
 483      E7800000 
 484              	.LVL36:
 109:src/syscall_c.cpp **** 
 485              		.loc 1 109 25
 486 01a8 23B0A400 		sd	a0,0(s1)
 111:src/syscall_c.cpp ****                 if (!handle) {ret = -1;}
 487              		.loc 1 111 17 is_stmt 1
 488              	.LVL37:
 112:src/syscall_c.cpp ****                 __asm__ volatile("mv a0, %0" : :"r"(ret));
 489              		.loc 1 112 17
 490 01ac 63880400 		beqz	s1,.L26
GAS LISTING /tmp/cc6lOwcd.s 			page 18


 111:src/syscall_c.cpp ****                 if (!handle) {ret = -1;}
 491              		.loc 1 111 21 is_stmt 0
 492 01b0 93070000 		li	a5,0
 493              	.L22:
 494              	.LVL38:
 113:src/syscall_c.cpp ****                 break;}
 495              		.loc 1 113 17 is_stmt 1
 113:src/syscall_c.cpp ****                 break;}
 496              		.loc 1 113 58 is_stmt 0
 497              	#APP
 498              	# 113 "src/syscall_c.cpp" 1
 114:src/syscall_c.cpp ****             case THREAD_START:{
 499              		mv a0, a5
 500              	# 0 "" 2
 501              		.loc 1 114 17 is_stmt 1
 502              	#NO_APP
 503 01b8 6FF01FF4 		j	.L20
 504              	.LVL39:
 505              	.L26:
 112:src/syscall_c.cpp ****                 __asm__ volatile("mv a0, %0" : :"r"(ret));
 506              		.loc 1 112 35 is_stmt 0
 507 01bc 9307F0FF 		li	a5,-1
 508 01c0 6FF05FFF 		j	.L22
 509              	.LVL40:
 510              	.L13:
 511              	.LBE39:
 115:src/syscall_c.cpp ****                 thread_t handle = nullptr;
 512              		.loc 1 115 13 is_stmt 1
 115:src/syscall_c.cpp ****                 thread_t handle = nullptr;
 513              		.loc 1 115 31
 514              	.LBB40:
 116:src/syscall_c.cpp ****                 __asm__ volatile("mv %0, a1": "=r"(handle));
 515              		.loc 1 116 17
 117:src/syscall_c.cpp **** 
 516              		.loc 1 117 17
 117:src/syscall_c.cpp **** 
 517              		.loc 1 117 60 is_stmt 0
 518              	#APP
 519              	# 117 "src/syscall_c.cpp" 1
 520              		mv a0, a1
 521              	# 0 "" 2
 522              	.LVL41:
 119:src/syscall_c.cpp ****                 break;}
 523              		.loc 1 119 17 is_stmt 1
 119:src/syscall_c.cpp ****                 break;}
 524              		.loc 1 119 30 is_stmt 0
 525              	#NO_APP
 526 01c8 97000000 		call	_ZN7_thread5startEv@plt
 526      E7800000 
 527              	.LVL42:
 120:src/syscall_c.cpp ****             case SEM_OPEN:{
 528              		.loc 1 120 17 is_stmt 1
 529 01d0 6FF09FF2 		j	.L20
 530              	.LVL43:
 531              	.L12:
 532              	.LBE40:
 121:src/syscall_c.cpp ****                 sem_t* handle = nullptr;
GAS LISTING /tmp/cc6lOwcd.s 			page 19


 533              		.loc 1 121 13
 121:src/syscall_c.cpp ****                 sem_t* handle = nullptr;
 534              		.loc 1 121 27
 535              	.LBB41:
 122:src/syscall_c.cpp ****                 __asm__ volatile("mv %0, a1": "=r"(handle));
 536              		.loc 1 122 17
 123:src/syscall_c.cpp ****                 unsigned init = 0;
 537              		.loc 1 123 17
 123:src/syscall_c.cpp ****                 unsigned init = 0;
 538              		.loc 1 123 60 is_stmt 0
 539              	#APP
 540              	# 123 "src/syscall_c.cpp" 1
 541              		mv s1, a1
 542              	# 0 "" 2
 543              	.LVL44:
 124:src/syscall_c.cpp ****                 __asm__ volatile("mv %0, a2": "=r"(init));
 544              		.loc 1 124 17 is_stmt 1
 125:src/syscall_c.cpp **** 
 545              		.loc 1 125 17
 125:src/syscall_c.cpp **** 
 546              		.loc 1 125 58 is_stmt 0
 547              	# 125 "src/syscall_c.cpp" 1
 548              		mv a0, a2
 549              	# 0 "" 2
 550              	.LVL45:
 127:src/syscall_c.cpp ****                 __asm__ volatile("mv a0, %0" : :"r"(handle));
 551              		.loc 1 127 17 is_stmt 1
 127:src/syscall_c.cpp ****                 __asm__ volatile("mv a0, %0" : :"r"(handle));
 552              		.loc 1 127 40 is_stmt 0
 553              	#NO_APP
 554 01dc 1B050500 		sext.w	a0,a0
 555 01e0 97000000 		call	_ZN4_sem7semOpenEj@plt
 555      E7800000 
 556              	.LVL46:
 127:src/syscall_c.cpp ****                 __asm__ volatile("mv a0, %0" : :"r"(handle));
 557              		.loc 1 127 25
 558 01e8 23B0A400 		sd	a0,0(s1)
 128:src/syscall_c.cpp ****                 break;
 559              		.loc 1 128 17 is_stmt 1
 128:src/syscall_c.cpp ****                 break;
 560              		.loc 1 128 61 is_stmt 0
 561              	#APP
 562              	# 128 "src/syscall_c.cpp" 1
 129:src/syscall_c.cpp ****             }
 563              		mv a0, s1
 564              	# 0 "" 2
 565              		.loc 1 129 17 is_stmt 1
 566              	#NO_APP
 567 01f0 6FF09FF0 		j	.L20
 568              	.LVL47:
 569              	.L11:
 570              	.LBE41:
 131:src/syscall_c.cpp ****                 sem_t handle = nullptr;
 571              		.loc 1 131 13
 131:src/syscall_c.cpp ****                 sem_t handle = nullptr;
 572              		.loc 1 131 28
 573              	.LBB42:
GAS LISTING /tmp/cc6lOwcd.s 			page 20


 132:src/syscall_c.cpp ****                 __asm__ volatile("mv %0, a1": "=r"(handle));
 574              		.loc 1 132 17
 133:src/syscall_c.cpp **** 
 575              		.loc 1 133 17
 133:src/syscall_c.cpp **** 
 576              		.loc 1 133 60 is_stmt 0
 577              	#APP
 578              	# 133 "src/syscall_c.cpp" 1
 579              		mv a0, a1
 580              	# 0 "" 2
 581              	.LVL48:
 135:src/syscall_c.cpp ****                 __asm__ volatile("mv a0, %0" : :"r"(ret));
 582              		.loc 1 135 17 is_stmt 1
 135:src/syscall_c.cpp ****                 __asm__ volatile("mv a0, %0" : :"r"(ret));
 583              		.loc 1 135 41 is_stmt 0
 584              	#NO_APP
 585 01f8 97000000 		call	_ZN4_sem8semCloseEPS_@plt
 585      E7800000 
 586              	.LVL49:
 136:src/syscall_c.cpp ****                 break;
 587              		.loc 1 136 17 is_stmt 1
 136:src/syscall_c.cpp ****                 break;
 588              		.loc 1 136 58 is_stmt 0
 589              	#APP
 590              	# 136 "src/syscall_c.cpp" 1
 137:src/syscall_c.cpp ****             }
 591              		mv a0, a0
 592              	# 0 "" 2
 593              		.loc 1 137 17 is_stmt 1
 594              	#NO_APP
 595 0204 6FF05FEF 		j	.L20
 596              	.LVL50:
 597              	.L10:
 598              	.LBE42:
 139:src/syscall_c.cpp ****                 sem_t id = nullptr;
 599              		.loc 1 139 13
 139:src/syscall_c.cpp ****                 sem_t id = nullptr;
 600              		.loc 1 139 27
 601              	.LBB43:
 140:src/syscall_c.cpp ****                 __asm__ volatile("mv %0, a1": "=r"(id));
 602              		.loc 1 140 17
 141:src/syscall_c.cpp **** 
 603              		.loc 1 141 17
 141:src/syscall_c.cpp **** 
 604              		.loc 1 141 56 is_stmt 0
 605              	#APP
 606              	# 141 "src/syscall_c.cpp" 1
 607              		mv a0, a1
 608              	# 0 "" 2
 609              	.LVL51:
 143:src/syscall_c.cpp ****                 __asm__ volatile("mv a0, %0" : :"r"(ret));
 610              		.loc 1 143 17 is_stmt 1
 143:src/syscall_c.cpp ****                 __asm__ volatile("mv a0, %0" : :"r"(ret));
 611              		.loc 1 143 40 is_stmt 0
 612              	#NO_APP
 613 020c 97000000 		call	_ZN4_sem7semWaitEPS_@plt
 613      E7800000 
GAS LISTING /tmp/cc6lOwcd.s 			page 21


 614              	.LVL52:
 144:src/syscall_c.cpp ****                 break;
 615              		.loc 1 144 17 is_stmt 1
 144:src/syscall_c.cpp ****                 break;
 616              		.loc 1 144 58 is_stmt 0
 617              	#APP
 618              	# 144 "src/syscall_c.cpp" 1
 145:src/syscall_c.cpp ****             }
 619              		mv a0, a0
 620              	# 0 "" 2
 621              		.loc 1 145 17 is_stmt 1
 622              	#NO_APP
 623 0218 6FF01FEE 		j	.L20
 624              	.LVL53:
 625              	.L9:
 626              	.LBE43:
 147:src/syscall_c.cpp ****                 sem_t id = nullptr;
 627              		.loc 1 147 13
 147:src/syscall_c.cpp ****                 sem_t id = nullptr;
 628              		.loc 1 147 29
 629              	.LBB44:
 148:src/syscall_c.cpp ****                 __asm__ volatile("mv %0, a1": "=r"(id));
 630              		.loc 1 148 17
 149:src/syscall_c.cpp **** 
 631              		.loc 1 149 17
 149:src/syscall_c.cpp **** 
 632              		.loc 1 149 56 is_stmt 0
 633              	#APP
 634              	# 149 "src/syscall_c.cpp" 1
 635              		mv a0, a1
 636              	# 0 "" 2
 637              	.LVL54:
 151:src/syscall_c.cpp ****                 __asm__ volatile("mv a0, %0" : :"r"(ret));
 638              		.loc 1 151 17 is_stmt 1
 151:src/syscall_c.cpp ****                 __asm__ volatile("mv a0, %0" : :"r"(ret));
 639              		.loc 1 151 42 is_stmt 0
 640              	#NO_APP
 641 0220 97000000 		call	_ZN4_sem9semSignalEPS_@plt
 641      E7800000 
 642              	.LVL55:
 152:src/syscall_c.cpp ****                 break;
 643              		.loc 1 152 17 is_stmt 1
 152:src/syscall_c.cpp ****                 break;
 644              		.loc 1 152 58 is_stmt 0
 645              	#APP
 646              	# 152 "src/syscall_c.cpp" 1
 153:src/syscall_c.cpp ****             }
 647              		mv a0, a0
 648              	# 0 "" 2
 649              		.loc 1 153 17 is_stmt 1
 650              	#NO_APP
 651 022c 6FF0DFEC 		j	.L20
 652              	.LVL56:
 653              	.L6:
 654              	.LBE44:
 155:src/syscall_c.cpp ****                 char c;
 655              		.loc 1 155 13
GAS LISTING /tmp/cc6lOwcd.s 			page 22


 155:src/syscall_c.cpp ****                 char c;
 656              		.loc 1 155 23
 657              	.LBB45:
 156:src/syscall_c.cpp ****                 __asm__ volatile("mv %0, a1": "=r"(c));
 658              		.loc 1 156 17
 157:src/syscall_c.cpp ****                 __putc(c);
 659              		.loc 1 157 17
 157:src/syscall_c.cpp ****                 __putc(c);
 660              		.loc 1 157 55 is_stmt 0
 661              	#APP
 662              	# 157 "src/syscall_c.cpp" 1
 663              		mv a0, a1
 664              	# 0 "" 2
 665              	.LVL57:
 158:src/syscall_c.cpp ****                 break;
 666              		.loc 1 158 17 is_stmt 1
 158:src/syscall_c.cpp ****                 break;
 667              		.loc 1 158 23 is_stmt 0
 668              	#NO_APP
 669 0234 1375F50F 		andi	a0,a0,0xff
 670 0238 97000000 		call	__putc@plt
 670      E7800000 
 671              	.LVL58:
 159:src/syscall_c.cpp ****             }
 672              		.loc 1 159 17 is_stmt 1
 673 0240 6FF09FEB 		j	.L20
 674              	.LVL59:
 675              	.L8:
 676              	.LBE45:
 161:src/syscall_c.cpp ****                 char c = __getc();
 677              		.loc 1 161 13
 161:src/syscall_c.cpp ****                 char c = __getc();
 678              		.loc 1 161 23
 679              	.LBB46:
 162:src/syscall_c.cpp ****                 __asm__ volatile("sd a0, 10*8(fp)");
 680              		.loc 1 162 17
 162:src/syscall_c.cpp ****                 __asm__ volatile("sd a0, 10*8(fp)");
 681              		.loc 1 162 32 is_stmt 0
 682 0244 97000000 		call	__getc@plt
 682      E7800000 
 683              	.LVL60:
 163:src/syscall_c.cpp ****                 __asm__ volatile("mv a0, %0" : : "r"(c));
 684              		.loc 1 163 17 is_stmt 1
 163:src/syscall_c.cpp ****                 __asm__ volatile("mv a0, %0" : : "r"(c));
 685              		.loc 1 163 52 is_stmt 0
 686              	#APP
 687              	# 163 "src/syscall_c.cpp" 1
 164:src/syscall_c.cpp ****                 //__asm__ volatile("mv a0, %0" : :"r"(c));
 688              		sd a0, 10*8(fp)
 689              	# 0 "" 2
 690              		.loc 1 164 17 is_stmt 1
 164:src/syscall_c.cpp ****                 //__asm__ volatile("mv a0, %0" : :"r"(c));
 691              		.loc 1 164 57 is_stmt 0
 692              	# 164 "src/syscall_c.cpp" 1
 166:src/syscall_c.cpp ****             }
 693              		mv a0, a0
 694              	# 0 "" 2
GAS LISTING /tmp/cc6lOwcd.s 			page 23


 695              		.loc 1 166 17 is_stmt 1
 696              	#NO_APP
 697 0254 6FF05FEA 		j	.L20
 698              	.LVL61:
 699              	.L5:
 700              	.LBE46:
 168:src/syscall_c.cpp ****                 __asm__ volatile("csrw sepc, %0" : : "r"(&userMain));
 701              		.loc 1 168 13
 169:src/syscall_c.cpp ****                 Riscv::mc_sstatus(Riscv::SSTATUS_SPP);
 702              		.loc 1 169 17
 169:src/syscall_c.cpp ****                 Riscv::mc_sstatus(Riscv::SSTATUS_SPP);
 703              		.loc 1 169 69 is_stmt 0
 704 0258 97070000 		la	a5,_Z8userMainPv
 704      83B70700 
 705              	#APP
 706              	# 169 "src/syscall_c.cpp" 1
 170:src/syscall_c.cpp ****                 return;
 707              		csrw sepc, a5
 708              	# 0 "" 2
 709              		.loc 1 170 17 is_stmt 1
 710              	.LVL62:
 711              	#NO_APP
 712              	.LBB47:
 713              	.LBB48:
 172:src/../h/riscv.h **** }
 714              		.loc 2 172 5
 172:src/../h/riscv.h **** }
 715              		.loc 2 172 68 is_stmt 0
 716 0264 93070010 		li	a5,256
 717              	#APP
 718              	# 172 "src/../h/riscv.h" 1
 719              		csrc sstatus, a5
 720              	# 0 "" 2
 721              	.LVL63:
 722              	#NO_APP
 723              	.LBE48:
 724              	.LBE47:
 171:src/syscall_c.cpp ****         }
 725              		.loc 1 171 17 is_stmt 1
 726 026c 6FF0DFE9 		j	.L3
 727              	.LVL64:
 728              	.L29:
 729              	.LBE53:
 730              	.LBE54:
 178:src/syscall_c.cpp ****     } else if (scause == 0x8000000000000009UL)
 731              		.loc 1 178 9
 732              	.LBB55:
 733              	.LBB56:
 150:src/../h/riscv.h **** }
 734              		.loc 2 150 5
 150:src/../h/riscv.h **** }
 735              		.loc 2 150 64 is_stmt 0
 736 0270 93072000 		li	a5,2
 737              	#APP
 738              	# 150 "src/../h/riscv.h" 1
 151:src/../h/riscv.h **** 
 739              		csrc sip, a5
GAS LISTING /tmp/cc6lOwcd.s 			page 24


 740              	# 0 "" 2
 741              		.loc 2 151 1
 742              	#NO_APP
 743 0278 6FF01FE9 		j	.L3
 744              	.LBE56:
 745              	.LBE55:
 746              	.LBE57:
 747              		.cfi_endproc
 748              	.LFE47:
 750              		.align	2
 751              		.globl	_Z9mem_allocm
 753              	_Z9mem_allocm:
 754              	.LFB48:
 188:src/syscall_c.cpp **** 
 189:src/syscall_c.cpp **** void* mem_alloc(size_t size){
 755              		.loc 1 189 29 is_stmt 1
 756              		.cfi_startproc
 757              	.LVL65:
 758 027c 130101FF 		addi	sp,sp,-16
 759              		.cfi_def_cfa_offset 16
 760 0280 23341100 		sd	ra,8(sp)
 761 0284 23308100 		sd	s0,0(sp)
 762              		.cfi_offset 1, -8
 763              		.cfi_offset 8, -16
 764 0288 13040101 		addi	s0,sp,16
 765              		.cfi_def_cfa 8, 0
 190:src/syscall_c.cpp ****     //upis broja blokova
 191:src/syscall_c.cpp ****     size_t numOfBlocks = (size+sizeof(MemoryAllocator::FullMem))/MEM_BLOCK_SIZE
 766              		.loc 1 191 5
 767              		.loc 1 191 31 is_stmt 0
 768 028c 13058501 		addi	a0,a0,24
 769              	.LVL66:
 770              		.loc 1 191 65
 771 0290 93556500 		srli	a1,a0,6
 192:src/syscall_c.cpp ****                          + ((size+sizeof(MemoryAllocator::FullMem))%MEM_BLOCK_SIZE?1:0);
 772              		.loc 1 192 68
 773 0294 1375F503 		andi	a0,a0,63
 774              	.LVL67:
 775              		.loc 1 192 83
 776 0298 63040500 		beqz	a0,.L31
 777 029c 13051000 		li	a0,1
 778              	.L31:
 779              	.LVL68:
 193:src/syscall_c.cpp **** 
 194:src/syscall_c.cpp ****     abi_invoker(MEM_ALLOC, numOfBlocks);
 780              		.loc 1 194 5 is_stmt 1
 781              		.loc 1 194 16 is_stmt 0
 782 02a0 B385A500 		add	a1,a1,a0
 783              	.LVL69:
 784 02a4 13051000 		li	a0,1
 785 02a8 97000000 		call	_Z11abi_invokeriz
 785      E7800000 
 786              	.LVL70:
 195:src/syscall_c.cpp **** 
 196:src/syscall_c.cpp ****     //povratak
 197:src/syscall_c.cpp ****     void* p = nullptr;
 787              		.loc 1 197 5 is_stmt 1
GAS LISTING /tmp/cc6lOwcd.s 			page 25


 198:src/syscall_c.cpp ****     __asm__ volatile("mv a0, %0": "=r"(p));
 788              		.loc 1 198 5
 789              		.loc 1 198 43 is_stmt 0
 790              	#APP
 791              	# 198 "src/syscall_c.cpp" 1
 199              	    return p;
 792              		mv a0, a0
 793              	# 0 "" 2
 794              	.LVL71:
 795              		.loc 1 199 5 is_stmt 1
 200:src/syscall_c.cpp **** 
 201:src/syscall_c.cpp **** }
 796              		.loc 1 201 1 is_stmt 0
 797              	#NO_APP
 798 02b4 83308100 		ld	ra,8(sp)
 799              		.cfi_restore 1
 800 02b8 03340100 		ld	s0,0(sp)
 801              		.cfi_restore 8
 802              		.cfi_def_cfa 2, 16
 803 02bc 13010101 		addi	sp,sp,16
 804              		.cfi_def_cfa_offset 0
 805 02c0 67800000 		jr	ra
 806              		.cfi_endproc
 807              	.LFE48:
 809              		.align	2
 810              		.globl	_Z8mem_freePv
 812              	_Z8mem_freePv:
 813              	.LFB49:
 202:src/syscall_c.cpp **** 
 203:src/syscall_c.cpp **** int mem_free(void *p){
 814              		.loc 1 203 22 is_stmt 1
 815              		.cfi_startproc
 816              	.LVL72:
 817 02c4 130101FF 		addi	sp,sp,-16
 818              		.cfi_def_cfa_offset 16
 819 02c8 23341100 		sd	ra,8(sp)
 820 02cc 23308100 		sd	s0,0(sp)
 821              		.cfi_offset 1, -8
 822              		.cfi_offset 8, -16
 823 02d0 13040101 		addi	s0,sp,16
 824              		.cfi_def_cfa 8, 0
 825 02d4 93050500 		mv	a1,a0
 204:src/syscall_c.cpp ****     abi_invoker(MEM_FREE, p);
 826              		.loc 1 204 5
 827              		.loc 1 204 16 is_stmt 0
 828 02d8 13052000 		li	a0,2
 829              	.LVL73:
 830 02dc 97000000 		call	_Z11abi_invokeriz
 830      E7800000 
 831              	.LVL74:
 205:src/syscall_c.cpp **** 
 206:src/syscall_c.cpp ****     //povratak
 207:src/syscall_c.cpp ****     size_t ret;
 832              		.loc 1 207 5 is_stmt 1
 208:src/syscall_c.cpp ****     __asm__ volatile("mv a0, %0": "=r"(ret));
 833              		.loc 1 208 5
 834              		.loc 1 208 45 is_stmt 0
GAS LISTING /tmp/cc6lOwcd.s 			page 26


 835              	#APP
 836              	# 208 "src/syscall_c.cpp" 1
 209              	    return ret;
 837              		mv a0, a0
 838              	# 0 "" 2
 839              	.LVL75:
 840              		.loc 1 209 5 is_stmt 1
 210:src/syscall_c.cpp **** }
 841              		.loc 1 210 1 is_stmt 0
 842              	#NO_APP
 843 02e8 1B050500 		sext.w	a0,a0
 844              	.LVL76:
 845 02ec 83308100 		ld	ra,8(sp)
 846              		.cfi_restore 1
 847 02f0 03340100 		ld	s0,0(sp)
 848              		.cfi_restore 8
 849              		.cfi_def_cfa 2, 16
 850 02f4 13010101 		addi	sp,sp,16
 851              		.cfi_def_cfa_offset 0
 852 02f8 67800000 		jr	ra
 853              		.cfi_endproc
 854              	.LFE49:
 856              		.align	2
 857              		.globl	_Z11thread_exitv
 859              	_Z11thread_exitv:
 860              	.LFB50:
 211:src/syscall_c.cpp **** 
 212:src/syscall_c.cpp **** int thread_exit(){
 861              		.loc 1 212 18 is_stmt 1
 862              		.cfi_startproc
 863 02fc 130101FF 		addi	sp,sp,-16
 864              		.cfi_def_cfa_offset 16
 865 0300 23341100 		sd	ra,8(sp)
 866 0304 23308100 		sd	s0,0(sp)
 867              		.cfi_offset 1, -8
 868              		.cfi_offset 8, -16
 869 0308 13040101 		addi	s0,sp,16
 870              		.cfi_def_cfa 8, 0
 213:src/syscall_c.cpp ****     //__asm__ volatile("csrw stvec, %[vector] ": : [vector] "r" (&trap));
 214:src/syscall_c.cpp ****     abi_invoker(THREAD_EXIT);
 871              		.loc 1 214 5
 872              		.loc 1 214 16 is_stmt 0
 873 030c 13052001 		li	a0,18
 874 0310 97000000 		call	_Z11abi_invokeriz
 874      E7800000 
 875              	.LVL77:
 215:src/syscall_c.cpp **** 
 216:src/syscall_c.cpp ****     //povratak
 217:src/syscall_c.cpp ****     size_t ret;
 876              		.loc 1 217 5 is_stmt 1
 218:src/syscall_c.cpp ****     __asm__ volatile("mv a0, %0": "=r"(ret));
 877              		.loc 1 218 5
 878              		.loc 1 218 45 is_stmt 0
 879              	#APP
 880              	# 218 "src/syscall_c.cpp" 1
 219              	    return ret;
 881              		mv a0, a0
GAS LISTING /tmp/cc6lOwcd.s 			page 27


 882              	# 0 "" 2
 883              	.LVL78:
 884              		.loc 1 219 5 is_stmt 1
 220:src/syscall_c.cpp **** }
 885              		.loc 1 220 1 is_stmt 0
 886              	#NO_APP
 887 031c 1B050500 		sext.w	a0,a0
 888              	.LVL79:
 889 0320 83308100 		ld	ra,8(sp)
 890              		.cfi_restore 1
 891 0324 03340100 		ld	s0,0(sp)
 892              		.cfi_restore 8
 893              		.cfi_def_cfa 2, 16
 894 0328 13010101 		addi	sp,sp,16
 895              		.cfi_def_cfa_offset 0
 896 032c 67800000 		jr	ra
 897              		.cfi_endproc
 898              	.LFE50:
 900              		.align	2
 901              		.globl	_Z13thread_createPP7_threadPFvPvES2_
 903              	_Z13thread_createPP7_threadPFvPvES2_:
 904              	.LFB51:
 221:src/syscall_c.cpp **** 
 222:src/syscall_c.cpp **** int thread_create(thread_t* handle, void(*start_routine)(void*), void* arg){
 905              		.loc 1 222 76 is_stmt 1
 906              		.cfi_startproc
 907              	.LVL80:
 908 0330 130101FD 		addi	sp,sp,-48
 909              		.cfi_def_cfa_offset 48
 910 0334 23341102 		sd	ra,40(sp)
 911 0338 23308102 		sd	s0,32(sp)
 912 033c 233C9100 		sd	s1,24(sp)
 913 0340 23382101 		sd	s2,16(sp)
 914 0344 23343101 		sd	s3,8(sp)
 915              		.cfi_offset 1, -8
 916              		.cfi_offset 8, -16
 917              		.cfi_offset 9, -24
 918              		.cfi_offset 18, -32
 919              		.cfi_offset 19, -40
 920 0348 13040103 		addi	s0,sp,48
 921              		.cfi_def_cfa 8, 0
 922 034c 93040500 		mv	s1,a0
 923 0350 13890500 		mv	s2,a1
 924 0354 93090600 		mv	s3,a2
 223:src/syscall_c.cpp ****     void * stack = MemoryAllocator::mem_alloc((DEFAULT_STACK_SIZE+MEM_BLOCK_SIZE-1+sizeof(MemoryAll
 925              		.loc 1 223 5
 926              		.loc 1 223 46 is_stmt 0
 927 0358 13051004 		li	a0,65
 928              	.LVL81:
 929 035c 97000000 		call	_ZN15MemoryAllocator9mem_allocEm@plt
 929      E7800000 
 930              	.LVL82:
 224:src/syscall_c.cpp ****     if (!stack) return -1;
 931              		.loc 1 224 5 is_stmt 1
 932 0364 63020504 		beqz	a0,.L39
 933 0368 13070500 		mv	a4,a0
 225:src/syscall_c.cpp **** 
GAS LISTING /tmp/cc6lOwcd.s 			page 28


 226:src/syscall_c.cpp ****     abi_invoker(THREAD_CREATE, handle, start_routine, arg, stack);
 934              		.loc 1 226 5
 935              		.loc 1 226 16 is_stmt 0
 936 036c 93860900 		mv	a3,s3
 937 0370 13060900 		mv	a2,s2
 938 0374 93850400 		mv	a1,s1
 939 0378 13051001 		li	a0,17
 940              	.LVL83:
 941 037c 97000000 		call	_Z11abi_invokeriz
 941      E7800000 
 942              	.LVL84:
 227:src/syscall_c.cpp **** 
 228:src/syscall_c.cpp ****     int ret;
 943              		.loc 1 228 5 is_stmt 1
 229:src/syscall_c.cpp ****     __asm__ volatile("mv a0, %0": "=r"(ret));
 944              		.loc 1 229 5
 945              		.loc 1 229 45 is_stmt 0
 946              	#APP
 947              	# 229 "src/syscall_c.cpp" 1
 230              	    return ret;
 948              		mv a0, a0
 949              	# 0 "" 2
 950              	#NO_APP
 951 0388 1B050500 		sext.w	a0,a0
 952              	.LVL85:
 953              		.loc 1 230 5 is_stmt 1
 954              	.L38:
 231:src/syscall_c.cpp **** }
 955              		.loc 1 231 1 is_stmt 0
 956 038c 83308102 		ld	ra,40(sp)
 957              		.cfi_remember_state
 958              		.cfi_restore 1
 959 0390 03340102 		ld	s0,32(sp)
 960              		.cfi_restore 8
 961              		.cfi_def_cfa 2, 48
 962 0394 83348101 		ld	s1,24(sp)
 963              		.cfi_restore 9
 964              	.LVL86:
 965 0398 03390101 		ld	s2,16(sp)
 966              		.cfi_restore 18
 967              	.LVL87:
 968 039c 83398100 		ld	s3,8(sp)
 969              		.cfi_restore 19
 970              	.LVL88:
 971 03a0 13010103 		addi	sp,sp,48
 972              		.cfi_def_cfa_offset 0
 973 03a4 67800000 		jr	ra
 974              	.LVL89:
 975              	.L39:
 976              		.cfi_restore_state
 224:src/syscall_c.cpp **** 
 977              		.loc 1 224 25
 978 03a8 1305F0FF 		li	a0,-1
 979              	.LVL90:
 980 03ac 6FF01FFE 		j	.L38
 981              		.cfi_endproc
 982              	.LFE51:
GAS LISTING /tmp/cc6lOwcd.s 			page 29


 984              		.align	2
 985              		.globl	_Z15thread_dispatchv
 987              	_Z15thread_dispatchv:
 988              	.LFB52:
 232:src/syscall_c.cpp **** 
 233:src/syscall_c.cpp **** void thread_dispatch(){
 989              		.loc 1 233 23 is_stmt 1
 990              		.cfi_startproc
 991 03b0 130101FF 		addi	sp,sp,-16
 992              		.cfi_def_cfa_offset 16
 993 03b4 23341100 		sd	ra,8(sp)
 994 03b8 23308100 		sd	s0,0(sp)
 995              		.cfi_offset 1, -8
 996              		.cfi_offset 8, -16
 997 03bc 13040101 		addi	s0,sp,16
 998              		.cfi_def_cfa 8, 0
 234:src/syscall_c.cpp ****     abi_invoker(THREAD_DISPATCH);
 999              		.loc 1 234 5
 1000              		.loc 1 234 16 is_stmt 0
 1001 03c0 13053001 		li	a0,19
 1002 03c4 97000000 		call	_Z11abi_invokeriz
 1002      E7800000 
 1003              	.LVL91:
 235:src/syscall_c.cpp **** }
 1004              		.loc 1 235 1
 1005 03cc 83308100 		ld	ra,8(sp)
 1006              		.cfi_restore 1
 1007 03d0 03340100 		ld	s0,0(sp)
 1008              		.cfi_restore 8
 1009              		.cfi_def_cfa 2, 16
 1010 03d4 13010101 		addi	sp,sp,16
 1011              		.cfi_def_cfa_offset 0
 1012 03d8 67800000 		jr	ra
 1013              		.cfi_endproc
 1014              	.LFE52:
 1016              		.align	2
 1017              		.globl	_Z18thread_create_onlyPP7_threadPFvPvES2_
 1019              	_Z18thread_create_onlyPP7_threadPFvPvES2_:
 1020              	.LFB53:
 236:src/syscall_c.cpp **** 
 237:src/syscall_c.cpp **** void thread_create_only(thread_t* handle,
 238:src/syscall_c.cpp ****                         void(*start_routine)(void*),
 239:src/syscall_c.cpp ****                         void* arg){
 1021              		.loc 1 239 35 is_stmt 1
 1022              		.cfi_startproc
 1023              	.LVL92:
 1024 03dc 130101FD 		addi	sp,sp,-48
 1025              		.cfi_def_cfa_offset 48
 1026 03e0 23341102 		sd	ra,40(sp)
 1027 03e4 23308102 		sd	s0,32(sp)
 1028 03e8 233C9100 		sd	s1,24(sp)
 1029 03ec 23382101 		sd	s2,16(sp)
 1030 03f0 23343101 		sd	s3,8(sp)
 1031              		.cfi_offset 1, -8
 1032              		.cfi_offset 8, -16
 1033              		.cfi_offset 9, -24
 1034              		.cfi_offset 18, -32
GAS LISTING /tmp/cc6lOwcd.s 			page 30


 1035              		.cfi_offset 19, -40
 1036 03f4 13040103 		addi	s0,sp,48
 1037              		.cfi_def_cfa 8, 0
 1038 03f8 93040500 		mv	s1,a0
 1039 03fc 13890500 		mv	s2,a1
 1040 0400 93090600 		mv	s3,a2
 240:src/syscall_c.cpp ****     void * stack = MemoryAllocator::mem_alloc((DEFAULT_STACK_SIZE+MEM_BLOCK_SIZE-1+sizeof(MemoryAll
 1041              		.loc 1 240 5
 1042              		.loc 1 240 46 is_stmt 0
 1043 0404 13051004 		li	a0,65
 1044              	.LVL93:
 1045 0408 97000000 		call	_ZN15MemoryAllocator9mem_allocEm@plt
 1045      E7800000 
 1046              	.LVL94:
 241:src/syscall_c.cpp ****     if (!stack) return ;
 1047              		.loc 1 241 5 is_stmt 1
 1048 0410 63020502 		beqz	a0,.L43
 1049 0414 13070500 		mv	a4,a0
 242:src/syscall_c.cpp **** 
 243:src/syscall_c.cpp ****     abi_invoker(THREAD_CREATE_ONLY, handle, start_routine, arg, stack);
 1050              		.loc 1 243 5
 1051              		.loc 1 243 16 is_stmt 0
 1052 0418 93860900 		mv	a3,s3
 1053 041c 13060900 		mv	a2,s2
 1054 0420 93850400 		mv	a1,s1
 1055 0424 13054001 		li	a0,20
 1056              	.LVL95:
 1057 0428 97000000 		call	_Z11abi_invokeriz
 1057      E7800000 
 1058              	.LVL96:
 244:src/syscall_c.cpp **** 
 245:src/syscall_c.cpp ****     int ret;
 1059              		.loc 1 245 5 is_stmt 1
 246:src/syscall_c.cpp ****     __asm__ volatile("mv a0, %0": "=r"(ret));
 1060              		.loc 1 246 5
 1061              		.loc 1 246 45 is_stmt 0
 1062              	#APP
 1063              	# 246 "src/syscall_c.cpp" 1
 247              	}
 1064              		mv a0, a5
 1065              	# 0 "" 2
 1066              	.LVL97:
 1067              	#NO_APP
 1068              	.L43:
 1069              		.loc 1 247 1
 1070 0434 83308102 		ld	ra,40(sp)
 1071              		.cfi_restore 1
 1072 0438 03340102 		ld	s0,32(sp)
 1073              		.cfi_restore 8
 1074              		.cfi_def_cfa 2, 48
 1075 043c 83348101 		ld	s1,24(sp)
 1076              		.cfi_restore 9
 1077              	.LVL98:
 1078 0440 03390101 		ld	s2,16(sp)
 1079              		.cfi_restore 18
 1080              	.LVL99:
 1081 0444 83398100 		ld	s3,8(sp)
GAS LISTING /tmp/cc6lOwcd.s 			page 31


 1082              		.cfi_restore 19
 1083              	.LVL100:
 1084 0448 13010103 		addi	sp,sp,48
 1085              		.cfi_def_cfa_offset 0
 1086 044c 67800000 		jr	ra
 1087              		.cfi_endproc
 1088              	.LFE53:
 1090              		.align	2
 1091              		.globl	_Z12thread_startP7_thread
 1093              	_Z12thread_startP7_thread:
 1094              	.LFB54:
 248:src/syscall_c.cpp **** 
 249:src/syscall_c.cpp **** void thread_start(thread_t handle){
 1095              		.loc 1 249 35 is_stmt 1
 1096              		.cfi_startproc
 1097              	.LVL101:
 1098 0450 130101FF 		addi	sp,sp,-16
 1099              		.cfi_def_cfa_offset 16
 1100 0454 23341100 		sd	ra,8(sp)
 1101 0458 23308100 		sd	s0,0(sp)
 1102              		.cfi_offset 1, -8
 1103              		.cfi_offset 8, -16
 1104 045c 13040101 		addi	s0,sp,16
 1105              		.cfi_def_cfa 8, 0
 1106 0460 93050500 		mv	a1,a0
 250:src/syscall_c.cpp ****     abi_invoker(THREAD_START, handle);
 1107              		.loc 1 250 5
 1108              		.loc 1 250 16 is_stmt 0
 1109 0464 13055001 		li	a0,21
 1110              	.LVL102:
 1111 0468 97000000 		call	_Z11abi_invokeriz
 1111      E7800000 
 1112              	.LVL103:
 251:src/syscall_c.cpp **** }
 1113              		.loc 1 251 1
 1114 0470 83308100 		ld	ra,8(sp)
 1115              		.cfi_restore 1
 1116 0474 03340100 		ld	s0,0(sp)
 1117              		.cfi_restore 8
 1118              		.cfi_def_cfa 2, 16
 1119 0478 13010101 		addi	sp,sp,16
 1120              		.cfi_def_cfa_offset 0
 1121 047c 67800000 		jr	ra
 1122              		.cfi_endproc
 1123              	.LFE54:
 1125              		.align	2
 1126              		.globl	_Z8sem_openPP4_semj
 1128              	_Z8sem_openPP4_semj:
 1129              	.LFB55:
 252:src/syscall_c.cpp **** 
 253:src/syscall_c.cpp **** int sem_open(sem_t* handle, unsigned init){
 1130              		.loc 1 253 43 is_stmt 1
 1131              		.cfi_startproc
 1132              	.LVL104:
 1133 0480 130101FF 		addi	sp,sp,-16
 1134              		.cfi_def_cfa_offset 16
 1135 0484 23341100 		sd	ra,8(sp)
GAS LISTING /tmp/cc6lOwcd.s 			page 32


 1136 0488 23308100 		sd	s0,0(sp)
 1137              		.cfi_offset 1, -8
 1138              		.cfi_offset 8, -16
 1139 048c 13040101 		addi	s0,sp,16
 1140              		.cfi_def_cfa 8, 0
 1141 0490 13860500 		mv	a2,a1
 254:src/syscall_c.cpp ****     abi_invoker(SEM_OPEN, handle, init);
 1142              		.loc 1 254 5
 1143              		.loc 1 254 16 is_stmt 0
 1144 0494 93050500 		mv	a1,a0
 1145              	.LVL105:
 1146 0498 13051002 		li	a0,33
 1147              	.LVL106:
 1148 049c 97000000 		call	_Z11abi_invokeriz
 1148      E7800000 
 1149              	.LVL107:
 255:src/syscall_c.cpp **** 
 256:src/syscall_c.cpp ****     int ret;
 1150              		.loc 1 256 5 is_stmt 1
 257:src/syscall_c.cpp ****     __asm__ volatile("mv a0, %0": "=r"(ret));
 1151              		.loc 1 257 5
 1152              		.loc 1 257 45 is_stmt 0
 1153              	#APP
 1154              	# 257 "src/syscall_c.cpp" 1
 258              	    return ret;
 1155              		mv a0, a0
 1156              	# 0 "" 2
 1157              	.LVL108:
 1158              		.loc 1 258 5 is_stmt 1
 259:src/syscall_c.cpp **** }
 1159              		.loc 1 259 1 is_stmt 0
 1160              	#NO_APP
 1161 04a8 1B050500 		sext.w	a0,a0
 1162 04ac 83308100 		ld	ra,8(sp)
 1163              		.cfi_restore 1
 1164 04b0 03340100 		ld	s0,0(sp)
 1165              		.cfi_restore 8
 1166              		.cfi_def_cfa 2, 16
 1167 04b4 13010101 		addi	sp,sp,16
 1168              		.cfi_def_cfa_offset 0
 1169 04b8 67800000 		jr	ra
 1170              		.cfi_endproc
 1171              	.LFE55:
 1173              		.align	2
 1174              		.globl	_Z9sem_closeP4_sem
 1176              	_Z9sem_closeP4_sem:
 1177              	.LFB56:
 260:src/syscall_c.cpp **** 
 261:src/syscall_c.cpp **** int sem_close(sem_t handle){
 1178              		.loc 1 261 28 is_stmt 1
 1179              		.cfi_startproc
 1180              	.LVL109:
 1181 04bc 130101FF 		addi	sp,sp,-16
 1182              		.cfi_def_cfa_offset 16
 1183 04c0 23341100 		sd	ra,8(sp)
 1184 04c4 23308100 		sd	s0,0(sp)
 1185              		.cfi_offset 1, -8
GAS LISTING /tmp/cc6lOwcd.s 			page 33


 1186              		.cfi_offset 8, -16
 1187 04c8 13040101 		addi	s0,sp,16
 1188              		.cfi_def_cfa 8, 0
 1189 04cc 93050500 		mv	a1,a0
 262:src/syscall_c.cpp ****     abi_invoker(SEM_CLOSE, handle);
 1190              		.loc 1 262 5
 1191              		.loc 1 262 16 is_stmt 0
 1192 04d0 13052002 		li	a0,34
 1193              	.LVL110:
 1194 04d4 97000000 		call	_Z11abi_invokeriz
 1194      E7800000 
 1195              	.LVL111:
 263:src/syscall_c.cpp **** 
 264:src/syscall_c.cpp ****     int ret;
 1196              		.loc 1 264 5 is_stmt 1
 265:src/syscall_c.cpp ****     __asm__ volatile ("mv a0, %0": "=r"(ret));
 1197              		.loc 1 265 5
 1198              		.loc 1 265 46 is_stmt 0
 1199              	#APP
 1200              	# 265 "src/syscall_c.cpp" 1
 266              	    return ret;
 1201              		mv a0, a0
 1202              	# 0 "" 2
 1203              	.LVL112:
 1204              		.loc 1 266 5 is_stmt 1
 267:src/syscall_c.cpp **** }
 1205              		.loc 1 267 1 is_stmt 0
 1206              	#NO_APP
 1207 04e0 1B050500 		sext.w	a0,a0
 1208 04e4 83308100 		ld	ra,8(sp)
 1209              		.cfi_restore 1
 1210 04e8 03340100 		ld	s0,0(sp)
 1211              		.cfi_restore 8
 1212              		.cfi_def_cfa 2, 16
 1213 04ec 13010101 		addi	sp,sp,16
 1214              		.cfi_def_cfa_offset 0
 1215 04f0 67800000 		jr	ra
 1216              		.cfi_endproc
 1217              	.LFE56:
 1219              		.align	2
 1220              		.globl	_Z8sem_waitP4_sem
 1222              	_Z8sem_waitP4_sem:
 1223              	.LFB57:
 268:src/syscall_c.cpp **** 
 269:src/syscall_c.cpp **** int sem_wait(sem_t id){
 1224              		.loc 1 269 23 is_stmt 1
 1225              		.cfi_startproc
 1226              	.LVL113:
 1227 04f4 130101FF 		addi	sp,sp,-16
 1228              		.cfi_def_cfa_offset 16
 1229 04f8 23341100 		sd	ra,8(sp)
 1230 04fc 23308100 		sd	s0,0(sp)
 1231              		.cfi_offset 1, -8
 1232              		.cfi_offset 8, -16
 1233 0500 13040101 		addi	s0,sp,16
 1234              		.cfi_def_cfa 8, 0
 1235 0504 93050500 		mv	a1,a0
GAS LISTING /tmp/cc6lOwcd.s 			page 34


 270:src/syscall_c.cpp ****     abi_invoker(SEM_WAIT, id);
 1236              		.loc 1 270 5
 1237              		.loc 1 270 16 is_stmt 0
 1238 0508 13053002 		li	a0,35
 1239              	.LVL114:
 1240 050c 97000000 		call	_Z11abi_invokeriz
 1240      E7800000 
 1241              	.LVL115:
 271:src/syscall_c.cpp **** 
 272:src/syscall_c.cpp ****     int ret;
 1242              		.loc 1 272 5 is_stmt 1
 273:src/syscall_c.cpp ****     __asm__ volatile ("mv a0, %0": "=r"(ret));
 1243              		.loc 1 273 5
 1244              		.loc 1 273 46 is_stmt 0
 1245              	#APP
 1246              	# 273 "src/syscall_c.cpp" 1
 274              	    return ret;
 1247              		mv a0, a0
 1248              	# 0 "" 2
 1249              	.LVL116:
 1250              		.loc 1 274 5 is_stmt 1
 275:src/syscall_c.cpp **** }
 1251              		.loc 1 275 1 is_stmt 0
 1252              	#NO_APP
 1253 0518 1B050500 		sext.w	a0,a0
 1254 051c 83308100 		ld	ra,8(sp)
 1255              		.cfi_restore 1
 1256 0520 03340100 		ld	s0,0(sp)
 1257              		.cfi_restore 8
 1258              		.cfi_def_cfa 2, 16
 1259 0524 13010101 		addi	sp,sp,16
 1260              		.cfi_def_cfa_offset 0
 1261 0528 67800000 		jr	ra
 1262              		.cfi_endproc
 1263              	.LFE57:
 1265              		.align	2
 1266              		.globl	_Z10sem_signalP4_sem
 1268              	_Z10sem_signalP4_sem:
 1269              	.LFB58:
 276:src/syscall_c.cpp **** 
 277:src/syscall_c.cpp **** int sem_signal(sem_t id){
 1270              		.loc 1 277 25 is_stmt 1
 1271              		.cfi_startproc
 1272              	.LVL117:
 1273 052c 130101FF 		addi	sp,sp,-16
 1274              		.cfi_def_cfa_offset 16
 1275 0530 23341100 		sd	ra,8(sp)
 1276 0534 23308100 		sd	s0,0(sp)
 1277              		.cfi_offset 1, -8
 1278              		.cfi_offset 8, -16
 1279 0538 13040101 		addi	s0,sp,16
 1280              		.cfi_def_cfa 8, 0
 1281 053c 93050500 		mv	a1,a0
 278:src/syscall_c.cpp ****     abi_invoker(SEM_SIGNAL, id);
 1282              		.loc 1 278 5
 1283              		.loc 1 278 16 is_stmt 0
 1284 0540 13054002 		li	a0,36
GAS LISTING /tmp/cc6lOwcd.s 			page 35


 1285              	.LVL118:
 1286 0544 97000000 		call	_Z11abi_invokeriz
 1286      E7800000 
 1287              	.LVL119:
 279:src/syscall_c.cpp **** 
 280:src/syscall_c.cpp ****     int ret;
 1288              		.loc 1 280 5 is_stmt 1
 281:src/syscall_c.cpp ****     __asm__ volatile ("mv a0, %0": "=r"(ret));
 1289              		.loc 1 281 5
 1290              		.loc 1 281 46 is_stmt 0
 1291              	#APP
 1292              	# 281 "src/syscall_c.cpp" 1
 282              	    return ret;
 1293              		mv a0, a0
 1294              	# 0 "" 2
 1295              	.LVL120:
 1296              		.loc 1 282 5 is_stmt 1
 283:src/syscall_c.cpp **** }
 1297              		.loc 1 283 1 is_stmt 0
 1298              	#NO_APP
 1299 0550 1B050500 		sext.w	a0,a0
 1300 0554 83308100 		ld	ra,8(sp)
 1301              		.cfi_restore 1
 1302 0558 03340100 		ld	s0,0(sp)
 1303              		.cfi_restore 8
 1304              		.cfi_def_cfa 2, 16
 1305 055c 13010101 		addi	sp,sp,16
 1306              		.cfi_def_cfa_offset 0
 1307 0560 67800000 		jr	ra
 1308              		.cfi_endproc
 1309              	.LFE58:
 1311              		.align	2
 1312              		.globl	_Z4putcc
 1314              	_Z4putcc:
 1315              	.LFB59:
 284:src/syscall_c.cpp **** 
 285:src/syscall_c.cpp **** void putc(char c){
 1316              		.loc 1 285 18 is_stmt 1
 1317              		.cfi_startproc
 1318              	.LVL121:
 1319 0564 130101FF 		addi	sp,sp,-16
 1320              		.cfi_def_cfa_offset 16
 1321 0568 23341100 		sd	ra,8(sp)
 1322 056c 23308100 		sd	s0,0(sp)
 1323              		.cfi_offset 1, -8
 1324              		.cfi_offset 8, -16
 1325 0570 13040101 		addi	s0,sp,16
 1326              		.cfi_def_cfa 8, 0
 1327 0574 93050500 		mv	a1,a0
 286:src/syscall_c.cpp ****     abi_invoker(PUTC, c);
 1328              		.loc 1 286 5
 1329              		.loc 1 286 16 is_stmt 0
 1330 0578 13052004 		li	a0,66
 1331              	.LVL122:
 1332 057c 97000000 		call	_Z11abi_invokeriz
 1332      E7800000 
 1333              	.LVL123:
GAS LISTING /tmp/cc6lOwcd.s 			page 36


 287:src/syscall_c.cpp **** }
 1334              		.loc 1 287 1
 1335 0584 83308100 		ld	ra,8(sp)
 1336              		.cfi_restore 1
 1337 0588 03340100 		ld	s0,0(sp)
 1338              		.cfi_restore 8
 1339              		.cfi_def_cfa 2, 16
 1340 058c 13010101 		addi	sp,sp,16
 1341              		.cfi_def_cfa_offset 0
 1342 0590 67800000 		jr	ra
 1343              		.cfi_endproc
 1344              	.LFE59:
 1346              		.align	2
 1347              		.globl	_Z4getcv
 1349              	_Z4getcv:
 1350              	.LFB60:
 288:src/syscall_c.cpp **** 
 289:src/syscall_c.cpp **** char getc(){
 1351              		.loc 1 289 12 is_stmt 1
 1352              		.cfi_startproc
 1353 0594 130101FF 		addi	sp,sp,-16
 1354              		.cfi_def_cfa_offset 16
 1355 0598 23341100 		sd	ra,8(sp)
 1356 059c 23308100 		sd	s0,0(sp)
 1357              		.cfi_offset 1, -8
 1358              		.cfi_offset 8, -16
 1359 05a0 13040101 		addi	s0,sp,16
 1360              		.cfi_def_cfa 8, 0
 290:src/syscall_c.cpp ****     abi_invoker(GETC);
 1361              		.loc 1 290 5
 1362              		.loc 1 290 16 is_stmt 0
 1363 05a4 13051004 		li	a0,65
 1364 05a8 97000000 		call	_Z11abi_invokeriz
 1364      E7800000 
 1365              	.LVL124:
 291:src/syscall_c.cpp ****     char ret;
 1366              		.loc 1 291 5 is_stmt 1
 292:src/syscall_c.cpp ****     __asm__ volatile ("mv %0, a0": "=r"(ret));
 1367              		.loc 1 292 5
 1368              		.loc 1 292 46 is_stmt 0
 1369              	#APP
 1370              	# 292 "src/syscall_c.cpp" 1
 293              	    return ret;
 1371              		mv a0, a0
 1372              	# 0 "" 2
 1373              	.LVL125:
 1374              		.loc 1 293 5 is_stmt 1
 294:src/syscall_c.cpp **** }...
 1375              		.loc 1 294 1 is_stmt 0
 1376              	#NO_APP
 1377 05b4 1375F50F 		andi	a0,a0,0xff
 1378 05b8 83308100 		ld	ra,8(sp)
 1379              		.cfi_restore 1
 1380 05bc 03340100 		ld	s0,0(sp)
 1381              		.cfi_restore 8
 1382              		.cfi_def_cfa 2, 16
 1383 05c0 13010101 		addi	sp,sp,16
GAS LISTING /tmp/cc6lOwcd.s 			page 37


 1384              		.cfi_def_cfa_offset 0
 1385 05c4 67800000 		jr	ra
 1386              		.cfi_endproc
 1387              	.LFE60:
 1389              	.Letext0:
 1390              		.file 3 "src/../h/../lib/hw.h"
 1391              		.file 4 "src/../h/MemoryAllocator.h"
 1392              		.file 5 "src/../h/_thread.h"
 1393              		.file 6 "src/../h/syscall_c.h"
 1394              		.file 7 "src/../h/_sem.h"
 1395              		.file 8 "src/../h/Blocked.h"
 1396              		.file 9 "src/../lib/console.h"
GAS LISTING /tmp/cc6lOwcd.s 			page 38

