GAS LISTING /tmp/ccALIodx.s 			page 1


   1              		.file	"syscall_c.cpp"
   2              		.option pic
   3              		.option norelax
   4              		.text
   5              	.Ltext0:
   6              		.align	2
   7              		.globl	_Z11abi_invokeriz
   9              	_Z11abi_invokeriz:
  10              	.LFB46:
  11              		.file 1 "src/syscall_c.cpp"
   1:src/syscall_c.cpp **** //
   2:src/syscall_c.cpp **** // Created by os on 6/21/22.
   3:src/syscall_c.cpp **** //
   4:src/syscall_c.cpp **** 
   5:src/syscall_c.cpp **** 
   6:src/syscall_c.cpp **** #include "../h/syscall_c.h"
   7:src/syscall_c.cpp **** #include "../h/MemoryAllocator.h"
   8:src/syscall_c.cpp **** #include "../lib/hw.h"
   9:src/syscall_c.cpp **** #include "../h/riscv.h"
  10:src/syscall_c.cpp **** #include "../h/_thread.h"
  11:src/syscall_c.cpp **** #include "../h/_sem.h"
  12:src/syscall_c.cpp **** #include "../lib/console.h"
  13:src/syscall_c.cpp **** 
  14:src/syscall_c.cpp **** void userMain(void *);
  15:src/syscall_c.cpp **** 
  16:src/syscall_c.cpp **** enum ABI_codes{
  17:src/syscall_c.cpp ****     MEM_ALLOC = 0x01,
  18:src/syscall_c.cpp ****     MEM_FREE  = 0x02,
  19:src/syscall_c.cpp ****     THREAD_CREATE = 0x11,
  20:src/syscall_c.cpp ****     THREAD_EXIT = 0x12,
  21:src/syscall_c.cpp ****     THREAD_DISPATCH = 0x13,
  22:src/syscall_c.cpp ****     THREAD_CREATE_ONLY = 0x14,
  23:src/syscall_c.cpp ****     THREAD_START = 0x15,
  24:src/syscall_c.cpp ****     SEM_OPEN = 0x21,
  25:src/syscall_c.cpp ****     SEM_CLOSE = 0x22,
  26:src/syscall_c.cpp ****     SEM_WAIT = 0x23,
  27:src/syscall_c.cpp ****     SEM_SIGNAL = 0x24,
  28:src/syscall_c.cpp ****     GETC = 0x41,
  29:src/syscall_c.cpp ****     PUTC = 0x42
  30:src/syscall_c.cpp **** };
  31:src/syscall_c.cpp **** 
  32:src/syscall_c.cpp **** void abi_invoker(int serviceId, ... ){
  12              		.loc 1 32 38
  13              		.cfi_startproc
  14              	.LVL0:
  15 0000 130101FB 		addi	sp,sp,-80
  16              		.cfi_def_cfa_offset 80
  17 0004 23348100 		sd	s0,8(sp)
  18              		.cfi_offset 8, -72
  19 0008 13040101 		addi	s0,sp,16
  20              		.cfi_def_cfa 8, 64
  21 000c 2334B400 		sd	a1,8(s0)
  22 0010 2338C400 		sd	a2,16(s0)
  23 0014 233CD400 		sd	a3,24(s0)
  24 0018 2330E402 		sd	a4,32(s0)
  25 001c 2334F402 		sd	a5,40(s0)
  26 0020 23380403 		sd	a6,48(s0)
GAS LISTING /tmp/ccALIodx.s 			page 2


  27 0024 233C1403 		sd	a7,56(s0)
  33:src/syscall_c.cpp ****     __asm__ volatile("ecall");
  28              		.loc 1 33 5
  29              		.loc 1 33 30 is_stmt 0
  30              	#APP
  31              	# 33 "src/syscall_c.cpp" 1
  34              	}
  32              		ecall
  33              	# 0 "" 2
  34              		.loc 1 34 1
  35              	#NO_APP
  36 002c 03348100 		ld	s0,8(sp)
  37              		.cfi_restore 8
  38              		.cfi_def_cfa 2, 80
  39 0030 13010105 		addi	sp,sp,80
  40              		.cfi_def_cfa_offset 0
  41 0034 67800000 		jr	ra
  42              		.cfi_endproc
  43              	.LFE46:
  45              		.align	2
  46              		.globl	trapHandler
  48              	trapHandler:
  49              	.LFB47:
  35:src/syscall_c.cpp **** 
  36:src/syscall_c.cpp **** extern "C" void trap();
  37:src/syscall_c.cpp **** 
  38:src/syscall_c.cpp **** extern "C" void trapHandler(){
  50              		.loc 1 38 30 is_stmt 1
  51              		.cfi_startproc
  52 0038 130101FC 		addi	sp,sp,-64
  53              		.cfi_def_cfa_offset 64
  54 003c 233C1102 		sd	ra,56(sp)
  55 0040 23388102 		sd	s0,48(sp)
  56 0044 23349102 		sd	s1,40(sp)
  57              		.cfi_offset 1, -8
  58              		.cfi_offset 8, -16
  59              		.cfi_offset 9, -24
  60 0048 13040104 		addi	s0,sp,64
  61              		.cfi_def_cfa 8, 0
  39:src/syscall_c.cpp **** 
  40:src/syscall_c.cpp ****     uint64 scause = Riscv::r_scause();
  62              		.loc 1 40 5
  63              	.LBB27:
  64              	.LBB28:
  65              		.file 2 "src/../h/riscv.h"
   1:src/../h/riscv.h **** //
   2:src/../h/riscv.h **** // Created by os on 6/21/22.
   3:src/../h/riscv.h **** //
   4:src/../h/riscv.h **** 
   5:src/../h/riscv.h **** #ifndef OS_PROJEKAT_RISCV_H
   6:src/../h/riscv.h **** #define OS_PROJEKAT_RISCV_H
   7:src/../h/riscv.h **** 
   8:src/../h/riscv.h **** #include "../lib/hw.h"
   9:src/../h/riscv.h **** 
  10:src/../h/riscv.h **** class Riscv
  11:src/../h/riscv.h **** {
  12:src/../h/riscv.h **** public:
GAS LISTING /tmp/ccALIodx.s 			page 3


  13:src/../h/riscv.h **** 
  14:src/../h/riscv.h ****     // pop sstatus.spp and sstatus.spie bits (has to be a non inline function)
  15:src/../h/riscv.h ****     static void popSppSpie();
  16:src/../h/riscv.h **** 
  17:src/../h/riscv.h ****     // push x3..x31 registers onto stack
  18:src/../h/riscv.h ****     static void pushRegisters();
  19:src/../h/riscv.h **** 
  20:src/../h/riscv.h ****     // pop x3..x31 registers onto stack
  21:src/../h/riscv.h ****     static void popRegisters();
  22:src/../h/riscv.h **** 
  23:src/../h/riscv.h ****     // read register scause
  24:src/../h/riscv.h ****     static uint64 r_scause();
  25:src/../h/riscv.h **** 
  26:src/../h/riscv.h ****     // write register scause
  27:src/../h/riscv.h ****     static void w_scause(uint64 scause);
  28:src/../h/riscv.h **** 
  29:src/../h/riscv.h ****     // read register sepc
  30:src/../h/riscv.h ****     static uint64 r_sepc();
  31:src/../h/riscv.h **** 
  32:src/../h/riscv.h ****     // write register sepc
  33:src/../h/riscv.h ****     static void w_sepc(uint64 sepc);
  34:src/../h/riscv.h **** 
  35:src/../h/riscv.h ****     // read register stvec
  36:src/../h/riscv.h ****     static uint64 r_stvec();
  37:src/../h/riscv.h **** 
  38:src/../h/riscv.h ****     // write register stvec
  39:src/../h/riscv.h ****     static void w_stvec(uint64 stvec);
  40:src/../h/riscv.h **** 
  41:src/../h/riscv.h ****     // read register stval
  42:src/../h/riscv.h ****     static uint64 r_stval();
  43:src/../h/riscv.h **** 
  44:src/../h/riscv.h ****     // write register stval
  45:src/../h/riscv.h ****     static void w_stval(uint64 stval);
  46:src/../h/riscv.h **** 
  47:src/../h/riscv.h ****     enum BitMaskSip
  48:src/../h/riscv.h ****     {
  49:src/../h/riscv.h ****         SIP_SSIP = (1 << 1),
  50:src/../h/riscv.h ****         SIP_STIP = (1 << 5),
  51:src/../h/riscv.h ****         SIP_SEIP = (1 << 9),
  52:src/../h/riscv.h ****     };
  53:src/../h/riscv.h **** 
  54:src/../h/riscv.h ****     // mask set register sip
  55:src/../h/riscv.h ****     static void ms_sip(uint64 mask);
  56:src/../h/riscv.h **** 
  57:src/../h/riscv.h ****     // mask clear register sip
  58:src/../h/riscv.h ****     static void mc_sip(uint64 mask);
  59:src/../h/riscv.h **** 
  60:src/../h/riscv.h ****     // read register sip
  61:src/../h/riscv.h ****     static uint64 r_sip();
  62:src/../h/riscv.h **** 
  63:src/../h/riscv.h ****     // write register sip
  64:src/../h/riscv.h ****     static void w_sip(uint64 sip);
  65:src/../h/riscv.h **** 
  66:src/../h/riscv.h ****     enum BitMaskSstatus
  67:src/../h/riscv.h ****     {
  68:src/../h/riscv.h ****         SSTATUS_SIE = (1 << 1),
  69:src/../h/riscv.h ****         SSTATUS_SPIE = (1 << 5),
GAS LISTING /tmp/ccALIodx.s 			page 4


  70:src/../h/riscv.h ****         SSTATUS_SPP = (1 << 8),
  71:src/../h/riscv.h ****     };
  72:src/../h/riscv.h **** 
  73:src/../h/riscv.h ****     // mask set register sstatus
  74:src/../h/riscv.h ****     static void ms_sstatus(uint64 mask);
  75:src/../h/riscv.h **** 
  76:src/../h/riscv.h ****     // mask clear register sstatus
  77:src/../h/riscv.h ****     static void mc_sstatus(uint64 mask);
  78:src/../h/riscv.h **** 
  79:src/../h/riscv.h ****     // read register sstatus
  80:src/../h/riscv.h ****     static uint64 r_sstatus();
  81:src/../h/riscv.h **** 
  82:src/../h/riscv.h ****     // write register sstatus
  83:src/../h/riscv.h ****     static void w_sstatus(uint64 sstatus);
  84:src/../h/riscv.h **** 
  85:src/../h/riscv.h ****     // supervisor trap
  86:src/../h/riscv.h ****     //static void supervisorTrap();
  87:src/../h/riscv.h **** 
  88:src/../h/riscv.h **** private:
  89:src/../h/riscv.h **** 
  90:src/../h/riscv.h ****     // supervisor trap handler
  91:src/../h/riscv.h ****     //static void handleSupervisorTrap();
  92:src/../h/riscv.h **** 
  93:src/../h/riscv.h **** };
  94:src/../h/riscv.h **** 
  95:src/../h/riscv.h **** inline uint64 Riscv::r_scause()
  96:src/../h/riscv.h **** {
  97:src/../h/riscv.h ****     uint64 scause;
  66              		.loc 2 97 5
  98:src/../h/riscv.h ****     __asm__ volatile ("csrr %[scause], scause" : [scause] "=r"(scause));
  67              		.loc 2 98 5
  68              		.loc 2 98 72 is_stmt 0
  69              	#APP
  70              	# 98 "src/../h/riscv.h" 1
  99              	    return scause;
  71              		csrr a4, scause
  72              	# 0 "" 2
  73              	.LVL1:
  74              		.loc 2 99 5 is_stmt 1
  75              	#NO_APP
  76              	.LBE28:
  77              	.LBE27:
  41:src/syscall_c.cpp ****        if (scause == 0x0000000000000008UL || scause == 0x0000000000000009UL) {
  78              		.loc 1 41 8
  79              	.LBB29:
  80              		.loc 1 41 43 is_stmt 0
  81 0050 930687FF 		addi	a3,a4,-8
  82              		.loc 1 41 8
  83 0054 93071000 		li	a5,1
  84 0058 63F8D702 		bleu	a3,a5,.L27
  42:src/syscall_c.cpp ****         uint64 volatile sepc = 0;
  43:src/syscall_c.cpp ****         __asm__ volatile ("csrr %[sepc], sepc" : [sepc] "=r"(sepc));
  44:src/syscall_c.cpp ****         sepc +=4;
  45:src/syscall_c.cpp **** 
  46:src/syscall_c.cpp ****         uint64 volatile status = Riscv::r_sstatus();
  47:src/syscall_c.cpp **** 
  48:src/syscall_c.cpp ****         size_t opCode;
GAS LISTING /tmp/ccALIodx.s 			page 5


  49:src/syscall_c.cpp ****         __asm__ volatile("mv %0, a0": "=r" (opCode));
  50:src/syscall_c.cpp **** 
  51:src/syscall_c.cpp ****         switch (opCode) {
  52:src/syscall_c.cpp ****             case MEM_ALLOC:
  53:src/syscall_c.cpp ****             {
  54:src/syscall_c.cpp ****                 size_t size;
  55:src/syscall_c.cpp ****                 __asm__ volatile("mv %0, a1": "=r"(size));
  56:src/syscall_c.cpp **** 
  57:src/syscall_c.cpp ****                 void* ret = MemoryAllocator::getInstance()->mem_alloc(size);
  58:src/syscall_c.cpp ****                 __asm__ volatile("sd a0, 10*8(fp)");
  59:src/syscall_c.cpp **** 
  60:src/syscall_c.cpp ****                 __asm__ volatile("mv a0, %0" : : "r"(ret));
  61:src/syscall_c.cpp ****                 break;}
  62:src/syscall_c.cpp ****             case MEM_FREE:
  63:src/syscall_c.cpp ****             {
  64:src/syscall_c.cpp ****                 void *p;
  65:src/syscall_c.cpp ****                 __asm__ volatile("mv %0, a1": "=r"(p));
  66:src/syscall_c.cpp ****                 MemoryAllocator::mem_free(p);
  67:src/syscall_c.cpp ****                 break;}
  68:src/syscall_c.cpp ****             case THREAD_CREATE:
  69:src/syscall_c.cpp ****             {
  70:src/syscall_c.cpp ****                 __asm__ volatile("ld s1, 11*8(fp)");
  71:src/syscall_c.cpp ****                 __asm__ volatile("ld s2, 12*8(fp)");
  72:src/syscall_c.cpp ****                 __asm__ volatile("ld s3, 13*8(fp)");
  73:src/syscall_c.cpp ****                 thread_t* handle = nullptr;
  74:src/syscall_c.cpp ****                 __asm__ volatile("mv %0, s1": "=r"(handle));
  75:src/syscall_c.cpp ****                 _thread::Body body;
  76:src/syscall_c.cpp ****                 __asm__ volatile("mv %0, s2": "=r"(body));
  77:src/syscall_c.cpp ****                 void* arg;
  78:src/syscall_c.cpp ****                 __asm__ volatile("mv %0, s3": "=r"(arg));
  79:src/syscall_c.cpp **** 
  80:src/syscall_c.cpp ****                 *handle = _thread::createThread(body,arg);
  81:src/syscall_c.cpp ****                 (*handle)->start();
  82:src/syscall_c.cpp **** 
  83:src/syscall_c.cpp ****                 int ret = 0;
  84:src/syscall_c.cpp ****                 if (!handle) { ret = -1;}
  85:src/syscall_c.cpp **** 
  86:src/syscall_c.cpp ****                 __asm__ volatile("mv a0, %0" : :"r"(ret));
  87:src/syscall_c.cpp ****                 break;
  88:src/syscall_c.cpp ****             }
  89:src/syscall_c.cpp ****             case THREAD_EXIT:
  90:src/syscall_c.cpp ****             {
  91:src/syscall_c.cpp ****                 _thread::threadExit();
  92:src/syscall_c.cpp ****                 break;}
  93:src/syscall_c.cpp ****             case THREAD_DISPATCH:
  94:src/syscall_c.cpp ****             {
  95:src/syscall_c.cpp ****                 _thread::dispatch();
  96:src/syscall_c.cpp ****                 break;
  97:src/syscall_c.cpp ****             }
  98:src/syscall_c.cpp ****             case THREAD_CREATE_ONLY:{
  99:src/syscall_c.cpp ****                 __asm__ volatile("ld s1, 11*8(fp)");
 100:src/syscall_c.cpp ****                 __asm__ volatile("ld s2, 12*8(fp)");
 101:src/syscall_c.cpp ****                 __asm__ volatile("ld s3, 13*8(fp)");
 102:src/syscall_c.cpp ****                 thread_t* handle = nullptr;
 103:src/syscall_c.cpp ****                 __asm__ volatile("mv %0, s1": "=r"(handle));
 104:src/syscall_c.cpp ****                 _thread::Body body;
 105:src/syscall_c.cpp ****                 __asm__ volatile("mv %0, s2": "=r"(body));
GAS LISTING /tmp/ccALIodx.s 			page 6


 106:src/syscall_c.cpp ****                 void* arg;
 107:src/syscall_c.cpp ****                 __asm__ volatile("mv %0, s3": "=r"(arg));
 108:src/syscall_c.cpp **** 
 109:src/syscall_c.cpp ****                 *handle = _thread::createThread(body,arg);
 110:src/syscall_c.cpp **** 
 111:src/syscall_c.cpp ****                 int ret = 0;
 112:src/syscall_c.cpp ****                 if (!handle) {ret = -1;}
 113:src/syscall_c.cpp ****                 __asm__ volatile("mv a0, %0" : :"r"(ret));
 114:src/syscall_c.cpp ****                 break;}
 115:src/syscall_c.cpp ****             case THREAD_START:{
 116:src/syscall_c.cpp ****                 thread_t handle = nullptr;
 117:src/syscall_c.cpp ****                 __asm__ volatile("mv %0, a1": "=r"(handle));
 118:src/syscall_c.cpp **** 
 119:src/syscall_c.cpp ****                 handle->start();
 120:src/syscall_c.cpp ****                 break;}
 121:src/syscall_c.cpp ****             case SEM_OPEN:{
 122:src/syscall_c.cpp ****                 sem_t* handle = nullptr;
 123:src/syscall_c.cpp ****                 __asm__ volatile("mv %0, a1": "=r"(handle));
 124:src/syscall_c.cpp ****                 unsigned init = 0;
 125:src/syscall_c.cpp ****                 __asm__ volatile("mv %0, a2": "=r"(init));
 126:src/syscall_c.cpp **** 
 127:src/syscall_c.cpp ****                 *handle = _sem::semOpen(init);
 128:src/syscall_c.cpp ****                 __asm__ volatile("mv a0, %0" : :"r"(handle));
 129:src/syscall_c.cpp ****                 break;
 130:src/syscall_c.cpp ****             }
 131:src/syscall_c.cpp ****             case SEM_CLOSE:{
 132:src/syscall_c.cpp ****                 sem_t handle = nullptr;
 133:src/syscall_c.cpp ****                 __asm__ volatile("mv %0, a1": "=r"(handle));
 134:src/syscall_c.cpp **** 
 135:src/syscall_c.cpp ****                 int ret = _sem::semClose(handle);
 136:src/syscall_c.cpp ****                 __asm__ volatile("mv a0, %0" : :"r"(ret));
 137:src/syscall_c.cpp ****                 break;
 138:src/syscall_c.cpp ****             }
 139:src/syscall_c.cpp ****             case SEM_WAIT:{
 140:src/syscall_c.cpp ****                 sem_t id = nullptr;
 141:src/syscall_c.cpp ****                 __asm__ volatile("mv %0, a1": "=r"(id));
 142:src/syscall_c.cpp **** 
 143:src/syscall_c.cpp ****                 int ret = _sem::semWait(id);
 144:src/syscall_c.cpp ****                 __asm__ volatile("mv a0, %0" : :"r"(ret));
 145:src/syscall_c.cpp ****                 break;
 146:src/syscall_c.cpp ****             }
 147:src/syscall_c.cpp ****             case SEM_SIGNAL:{
 148:src/syscall_c.cpp ****                 sem_t id = nullptr;
 149:src/syscall_c.cpp ****                 __asm__ volatile("mv %0, a1": "=r"(id));
 150:src/syscall_c.cpp **** 
 151:src/syscall_c.cpp ****                 int ret = _sem::semSignal(id);
 152:src/syscall_c.cpp ****                 __asm__ volatile("mv a0, %0" : :"r"(ret));
 153:src/syscall_c.cpp ****                 break;
 154:src/syscall_c.cpp ****             }
 155:src/syscall_c.cpp ****             case PUTC:{
 156:src/syscall_c.cpp ****                 char c;
 157:src/syscall_c.cpp ****                 __asm__ volatile("mv %0, a1": "=r"(c));
 158:src/syscall_c.cpp ****                 __putc(c);
 159:src/syscall_c.cpp ****                 break;
 160:src/syscall_c.cpp ****             }
 161:src/syscall_c.cpp ****             case GETC:{
 162:src/syscall_c.cpp ****                 char c = __getc();
GAS LISTING /tmp/ccALIodx.s 			page 7


 163:src/syscall_c.cpp ****                 __asm__ volatile("sd a0, 10*8(fp)");
 164:src/syscall_c.cpp ****                 __asm__ volatile("mv a0, %0" : : "r"(c));
 165:src/syscall_c.cpp ****                 //__asm__ volatile("mv a0, %0" : :"r"(c));
 166:src/syscall_c.cpp ****                 break;
 167:src/syscall_c.cpp ****             }
 168:src/syscall_c.cpp ****         }
 169:src/syscall_c.cpp ****         Riscv::w_sepc(sepc);
 170:src/syscall_c.cpp ****         Riscv::w_sstatus(status);
 171:src/syscall_c.cpp ****     }
 172:src/syscall_c.cpp ****     else if (scause == 0x8000000000000001UL)
  85              		.loc 1 172 10 is_stmt 1
  86 005c 9307F0FF 		li	a5,-1
  87 0060 9397F703 		slli	a5,a5,63
  88 0064 93871700 		addi	a5,a5,1
  89 0068 6308F71E 		beq	a4,a5,.L28
 173:src/syscall_c.cpp ****     {
 174:src/syscall_c.cpp ****         Riscv::mc_sip(Riscv::SIP_SSIP);
 175:src/syscall_c.cpp ****     } else if (scause == 0x8000000000000009UL)
  90              		.loc 1 175 12
  91 006c 9307F0FF 		li	a5,-1
  92 0070 9397F703 		slli	a5,a5,63
  93 0074 93879700 		addi	a5,a5,9
  94 0078 6318F708 		bne	a4,a5,.L3
 176:src/syscall_c.cpp ****     {
 177:src/syscall_c.cpp ****         // interrupt: yes; cause code: supervisor external interrupt (PLIC; could be keyboard)
 178:src/syscall_c.cpp ****         console_handler();
  95              		.loc 1 178 9
  96              		.loc 1 178 24 is_stmt 0
  97 007c 97000000 		call	console_handler@plt
  97      E7800000 
  98              	.LVL2:
  99              	.LBE29:
 179:src/syscall_c.cpp ****     } else
 180:src/syscall_c.cpp ****     {
 181:src/syscall_c.cpp ****         // unexpected trap cause
 182:src/syscall_c.cpp ****     }
 183:src/syscall_c.cpp **** }
 100              		.loc 1 183 1
 101 0084 6F004008 		j	.L3
 102              	.LVL3:
 103              	.L27:
 104              	.LBB55:
 105              	.LBB30:
  42:src/syscall_c.cpp ****         __asm__ volatile ("csrr %[sepc], sepc" : [sepc] "=r"(sepc));
 106              		.loc 1 42 9 is_stmt 1
  42:src/syscall_c.cpp ****         __asm__ volatile ("csrr %[sepc], sepc" : [sepc] "=r"(sepc));
 107              		.loc 1 42 25 is_stmt 0
 108 0088 233404FC 		sd	zero,-56(s0)
  43:src/syscall_c.cpp ****         sepc +=4;
 109              		.loc 1 43 9 is_stmt 1
  43:src/syscall_c.cpp ****         sepc +=4;
 110              		.loc 1 43 68 is_stmt 0
 111              	#APP
 112              	# 43 "src/syscall_c.cpp" 1
 113              		csrr a5, sepc
 114              	# 0 "" 2
 115              	#NO_APP
GAS LISTING /tmp/ccALIodx.s 			page 8


 116 0090 2334F4FC 		sd	a5,-56(s0)
  44:src/syscall_c.cpp **** 
 117              		.loc 1 44 9 is_stmt 1
  44:src/syscall_c.cpp **** 
 118              		.loc 1 44 14 is_stmt 0
 119 0094 833784FC 		ld	a5,-56(s0)
 120 0098 93874700 		addi	a5,a5,4
 121 009c 2334F4FC 		sd	a5,-56(s0)
  46:src/syscall_c.cpp **** 
 122              		.loc 1 46 9 is_stmt 1
 123              	.LBB31:
 124              	.LBB32:
 100:src/../h/riscv.h **** }
 101:src/../h/riscv.h **** 
 102:src/../h/riscv.h **** inline void Riscv::w_scause(uint64 scause)
 103:src/../h/riscv.h **** {
 104:src/../h/riscv.h ****     __asm__ volatile ("csrw scause, %[scause]" : : [scause] "r"(scause));
 105:src/../h/riscv.h **** }
 106:src/../h/riscv.h **** 
 107:src/../h/riscv.h **** inline uint64 Riscv::r_sepc()
 108:src/../h/riscv.h **** {
 109:src/../h/riscv.h ****     uint64 volatile sepc;
 110:src/../h/riscv.h ****     __asm__ volatile ("csrr %[sepc], sepc" : [sepc] "=r"(sepc));
 111:src/../h/riscv.h ****     return sepc;
 112:src/../h/riscv.h **** }
 113:src/../h/riscv.h **** 
 114:src/../h/riscv.h **** inline void Riscv::w_sepc(uint64 sepc)
 115:src/../h/riscv.h **** {
 116:src/../h/riscv.h ****     __asm__ volatile ("csrw sepc, %[sepc]" : : [sepc] "r"(sepc));
 117:src/../h/riscv.h **** }
 118:src/../h/riscv.h **** 
 119:src/../h/riscv.h **** inline uint64 Riscv::r_stvec()
 120:src/../h/riscv.h **** {
 121:src/../h/riscv.h ****     uint64 volatile stvec;
 122:src/../h/riscv.h ****     __asm__ volatile ("csrr %[stvec], stvec" : [stvec] "=r"(stvec));
 123:src/../h/riscv.h ****     return stvec;
 124:src/../h/riscv.h **** }
 125:src/../h/riscv.h **** 
 126:src/../h/riscv.h **** inline void Riscv::w_stvec(uint64 stvec)
 127:src/../h/riscv.h **** {
 128:src/../h/riscv.h ****     __asm__ volatile ("csrw stvec, %[stvec]" : : [stvec] "r"(stvec));
 129:src/../h/riscv.h **** }
 130:src/../h/riscv.h **** 
 131:src/../h/riscv.h **** inline uint64 Riscv::r_stval()
 132:src/../h/riscv.h **** {
 133:src/../h/riscv.h ****     uint64 volatile stval;
 134:src/../h/riscv.h ****     __asm__ volatile ("csrr %[stval], stval" : [stval] "=r"(stval));
 135:src/../h/riscv.h ****     return stval;
 136:src/../h/riscv.h **** }
 137:src/../h/riscv.h **** 
 138:src/../h/riscv.h **** inline void Riscv::w_stval(uint64 stval)
 139:src/../h/riscv.h **** {
 140:src/../h/riscv.h ****     __asm__ volatile ("csrw stval, %[stval]" : : [stval] "r"(stval));
 141:src/../h/riscv.h **** }
 142:src/../h/riscv.h **** 
 143:src/../h/riscv.h **** inline void Riscv::ms_sip(uint64 mask)
 144:src/../h/riscv.h **** {
GAS LISTING /tmp/ccALIodx.s 			page 9


 145:src/../h/riscv.h ****     __asm__ volatile ("csrs sip, %[mask]" : : [mask] "r"(mask));
 146:src/../h/riscv.h **** }
 147:src/../h/riscv.h **** 
 148:src/../h/riscv.h **** inline void Riscv::mc_sip(uint64 mask)
 149:src/../h/riscv.h **** {
 150:src/../h/riscv.h ****     __asm__ volatile ("csrc sip, %[mask]" : : [mask] "r"(mask));
 151:src/../h/riscv.h **** }
 152:src/../h/riscv.h **** 
 153:src/../h/riscv.h **** inline uint64 Riscv::r_sip()
 154:src/../h/riscv.h **** {
 155:src/../h/riscv.h ****     uint64 volatile sip;
 156:src/../h/riscv.h ****     __asm__ volatile ("csrr %[sip], sip" : [sip] "=r"(sip));
 157:src/../h/riscv.h ****     return sip;
 158:src/../h/riscv.h **** }
 159:src/../h/riscv.h **** 
 160:src/../h/riscv.h **** inline void Riscv::w_sip(uint64 sip)
 161:src/../h/riscv.h **** {
 162:src/../h/riscv.h ****     __asm__ volatile ("csrw sip, %[sip]" : : [sip] "r"(sip));
 163:src/../h/riscv.h **** }
 164:src/../h/riscv.h **** 
 165:src/../h/riscv.h **** inline void Riscv::ms_sstatus(uint64 mask)
 166:src/../h/riscv.h **** {
 167:src/../h/riscv.h ****     __asm__ volatile ("csrs sstatus, %[mask]" : : [mask] "r"(mask));
 168:src/../h/riscv.h **** }
 169:src/../h/riscv.h **** 
 170:src/../h/riscv.h **** inline void Riscv::mc_sstatus(uint64 mask)
 171:src/../h/riscv.h **** {
 172:src/../h/riscv.h ****     __asm__ volatile ("csrc sstatus, %[mask]" : : [mask] "r"(mask));
 173:src/../h/riscv.h **** }
 174:src/../h/riscv.h **** 
 175:src/../h/riscv.h **** inline uint64 Riscv::r_sstatus()
 176:src/../h/riscv.h **** {
 177:src/../h/riscv.h ****     uint64 volatile sstatus;
 125              		.loc 2 177 5
 178:src/../h/riscv.h ****     __asm__ volatile ("csrr %[sstatus], sstatus" : [sstatus] "=r"(sstatus));
 126              		.loc 2 178 5
 127              		.loc 2 178 76 is_stmt 0
 128              	#APP
 129              	# 178 "src/../h/riscv.h" 1
 179              	    return sstatus;
 130              		csrr a5, sstatus
 131              	# 0 "" 2
 132              	#NO_APP
 133 00a4 233CF4FC 		sd	a5,-40(s0)
 134              		.loc 2 179 5 is_stmt 1
 135              		.loc 2 179 12 is_stmt 0
 136 00a8 833784FD 		ld	a5,-40(s0)
 137              	.LBE32:
 138              	.LBE31:
  46:src/syscall_c.cpp **** 
 139              		.loc 1 46 51
 140 00ac 2338F4FC 		sd	a5,-48(s0)
  48:src/syscall_c.cpp ****         __asm__ volatile("mv %0, a0": "=r" (opCode));
 141              		.loc 1 48 9 is_stmt 1
  49:src/syscall_c.cpp **** 
 142              		.loc 1 49 9
  49:src/syscall_c.cpp **** 
GAS LISTING /tmp/ccALIodx.s 			page 10


 143              		.loc 1 49 53 is_stmt 0
 144              	#APP
 145              	# 49 "src/syscall_c.cpp" 1
 146              		mv a5, a0
 147              	# 0 "" 2
 148              	.LVL4:
  51:src/syscall_c.cpp ****             case MEM_ALLOC:
 149              		.loc 1 51 9 is_stmt 1
 150              	#NO_APP
 151 00b4 13072004 		li	a4,66
 152              	.LVL5:
 153 00b8 6360F704 		bgtu	a5,a4,.L5
 154 00bc 93972700 		slli	a5,a5,2
 155              	.LVL6:
 156 00c0 17070000 		lla	a4,.L7
 156      13070700 
 157 00c8 B387E700 		add	a5,a5,a4
 158 00cc 83A70700 		lw	a5,0(a5)
 159 00d0 B387E700 		add	a5,a5,a4
 160 00d4 67800700 		jr	a5
 161              		.section	.rodata
 162              		.align	2
 163              		.align	2
 164              	.L7:
 165 0000 00000000 		.word	.L5-.L7
 166 0004 00000000 		.word	.L19-.L7
 167 0008 00000000 		.word	.L18-.L7
 168 000c 00000000 		.word	.L5-.L7
 169 0010 00000000 		.word	.L5-.L7
 170 0014 00000000 		.word	.L5-.L7
 171 0018 00000000 		.word	.L5-.L7
 172 001c 00000000 		.word	.L5-.L7
 173 0020 00000000 		.word	.L5-.L7
 174 0024 00000000 		.word	.L5-.L7
 175 0028 00000000 		.word	.L5-.L7
 176 002c 00000000 		.word	.L5-.L7
 177 0030 00000000 		.word	.L5-.L7
 178 0034 00000000 		.word	.L5-.L7
 179 0038 00000000 		.word	.L5-.L7
 180 003c 00000000 		.word	.L5-.L7
 181 0040 00000000 		.word	.L5-.L7
 182 0044 00000000 		.word	.L17-.L7
 183 0048 00000000 		.word	.L16-.L7
 184 004c 00000000 		.word	.L15-.L7
 185 0050 00000000 		.word	.L14-.L7
 186 0054 00000000 		.word	.L13-.L7
 187 0058 00000000 		.word	.L5-.L7
 188 005c 00000000 		.word	.L5-.L7
 189 0060 00000000 		.word	.L5-.L7
 190 0064 00000000 		.word	.L5-.L7
 191 0068 00000000 		.word	.L5-.L7
 192 006c 00000000 		.word	.L5-.L7
 193 0070 00000000 		.word	.L5-.L7
 194 0074 00000000 		.word	.L5-.L7
 195 0078 00000000 		.word	.L5-.L7
 196 007c 00000000 		.word	.L5-.L7
 197 0080 00000000 		.word	.L5-.L7
GAS LISTING /tmp/ccALIodx.s 			page 11


 198 0084 00000000 		.word	.L12-.L7
 199 0088 00000000 		.word	.L11-.L7
 200 008c 00000000 		.word	.L10-.L7
 201 0090 00000000 		.word	.L9-.L7
 202 0094 00000000 		.word	.L5-.L7
 203 0098 00000000 		.word	.L5-.L7
 204 009c 00000000 		.word	.L5-.L7
 205 00a0 00000000 		.word	.L5-.L7
 206 00a4 00000000 		.word	.L5-.L7
 207 00a8 00000000 		.word	.L5-.L7
 208 00ac 00000000 		.word	.L5-.L7
 209 00b0 00000000 		.word	.L5-.L7
 210 00b4 00000000 		.word	.L5-.L7
 211 00b8 00000000 		.word	.L5-.L7
 212 00bc 00000000 		.word	.L5-.L7
 213 00c0 00000000 		.word	.L5-.L7
 214 00c4 00000000 		.word	.L5-.L7
 215 00c8 00000000 		.word	.L5-.L7
 216 00cc 00000000 		.word	.L5-.L7
 217 00d0 00000000 		.word	.L5-.L7
 218 00d4 00000000 		.word	.L5-.L7
 219 00d8 00000000 		.word	.L5-.L7
 220 00dc 00000000 		.word	.L5-.L7
 221 00e0 00000000 		.word	.L5-.L7
 222 00e4 00000000 		.word	.L5-.L7
 223 00e8 00000000 		.word	.L5-.L7
 224 00ec 00000000 		.word	.L5-.L7
 225 00f0 00000000 		.word	.L5-.L7
 226 00f4 00000000 		.word	.L5-.L7
 227 00f8 00000000 		.word	.L5-.L7
 228 00fc 00000000 		.word	.L5-.L7
 229 0100 00000000 		.word	.L5-.L7
 230 0104 00000000 		.word	.L8-.L7
 231 0108 00000000 		.word	.L6-.L7
 232              		.text
 233              	.L19:
 234              	.LBB33:
 235              	.LBB34:
  52:src/syscall_c.cpp ****             {
 236              		.loc 1 52 13
  53:src/syscall_c.cpp ****                 size_t size;
 237              		.loc 1 53 13
 238              	.LBB35:
  54:src/syscall_c.cpp ****                 __asm__ volatile("mv %0, a1": "=r"(size));
 239              		.loc 1 54 17
  55:src/syscall_c.cpp **** 
 240              		.loc 1 55 17
  55:src/syscall_c.cpp **** 
 241              		.loc 1 55 58 is_stmt 0
 242              	#APP
 243              	# 55 "src/syscall_c.cpp" 1
 244              		mv s1, a1
 245              	# 0 "" 2
 246              	.LVL7:
  57:src/syscall_c.cpp ****                 __asm__ volatile("sd a0, 10*8(fp)");
 247              		.loc 1 57 17 is_stmt 1
  57:src/syscall_c.cpp ****                 __asm__ volatile("sd a0, 10*8(fp)");
GAS LISTING /tmp/ccALIodx.s 			page 12


 248              		.loc 1 57 57 is_stmt 0
 249              	#NO_APP
 250 00dc 97000000 		call	_ZN15MemoryAllocator11getInstanceEv@plt
 250      E7800000 
 251              	.LVL8:
  57:src/syscall_c.cpp ****                 __asm__ volatile("sd a0, 10*8(fp)");
 252              		.loc 1 57 75
 253 00e4 13850400 		mv	a0,s1
 254 00e8 97000000 		call	_ZN15MemoryAllocator9mem_allocEm@plt
 254      E7800000 
 255              	.LVL9:
  58:src/syscall_c.cpp **** 
 256              		.loc 1 58 17 is_stmt 1
  58:src/syscall_c.cpp **** 
 257              		.loc 1 58 52 is_stmt 0
 258              	#APP
 259              	# 58 "src/syscall_c.cpp" 1
  60:src/syscall_c.cpp ****                 break;}
 260              		sd a0, 10*8(fp)
 261              	# 0 "" 2
 262              		.loc 1 60 17 is_stmt 1
  60:src/syscall_c.cpp ****                 break;}
 263              		.loc 1 60 59 is_stmt 0
 264              	# 60 "src/syscall_c.cpp" 1
  61:src/syscall_c.cpp ****             case MEM_FREE:
 265              		mv a0, a0
 266              	# 0 "" 2
 267              		.loc 1 61 17 is_stmt 1
 268              	.LVL10:
 269              	#NO_APP
 270              	.L5:
 271              	.LBE35:
 272              	.LBE34:
 273              	.LBE33:
 169:src/syscall_c.cpp ****         Riscv::w_sstatus(status);
 274              		.loc 1 169 9
 169:src/syscall_c.cpp ****         Riscv::w_sstatus(status);
 275              		.loc 1 169 22 is_stmt 0
 276 00f8 833784FC 		ld	a5,-56(s0)
 277              	.LVL11:
 278              	.LBB47:
 279              	.LBB48:
 116:src/../h/riscv.h **** }
 280              		.loc 2 116 5 is_stmt 1
 116:src/../h/riscv.h **** }
 281              		.loc 2 116 65 is_stmt 0
 282              	#APP
 283              	# 116 "src/../h/riscv.h" 1
 284              		csrw sepc, a5
 285              	# 0 "" 2
 286              	.LVL12:
 287              	#NO_APP
 288              	.LBE48:
 289              	.LBE47:
 170:src/syscall_c.cpp ****     }
 290              		.loc 1 170 9 is_stmt 1
 170:src/syscall_c.cpp ****     }
GAS LISTING /tmp/ccALIodx.s 			page 13


 291              		.loc 1 170 25 is_stmt 0
 292 0100 833704FD 		ld	a5,-48(s0)
 293              	.LVL13:
 294              	.LBB49:
 295              	.LBB50:
 180:src/../h/riscv.h **** }
 181:src/../h/riscv.h **** 
 182:src/../h/riscv.h **** inline void Riscv::w_sstatus(uint64 sstatus)
 183:src/../h/riscv.h **** {
 184:src/../h/riscv.h ****     __asm__ volatile ("csrw sstatus, %[sstatus]" : : [sstatus] "r"(sstatus));
 296              		.loc 2 184 5 is_stmt 1
 297              		.loc 2 184 77 is_stmt 0
 298              	#APP
 299              	# 184 "src/../h/riscv.h" 1
 185              	}
 300              		csrw sstatus, a5
 301              	# 0 "" 2
 302              	.LVL14:
 303              	#NO_APP
 304              	.L3:
 305              	.LBE50:
 306              	.LBE49:
 307              	.LBE30:
 308              	.LBE55:
 309              		.loc 1 183 1
 310 0108 83308103 		ld	ra,56(sp)
 311              		.cfi_remember_state
 312              		.cfi_restore 1
 313 010c 03340103 		ld	s0,48(sp)
 314              		.cfi_restore 8
 315              		.cfi_def_cfa 2, 64
 316 0110 83348102 		ld	s1,40(sp)
 317              		.cfi_restore 9
 318 0114 13010104 		addi	sp,sp,64
 319              		.cfi_def_cfa_offset 0
 320 0118 67800000 		jr	ra
 321              	.LVL15:
 322              	.L18:
 323              		.cfi_restore_state
 324              	.LBB56:
 325              	.LBB52:
 326              	.LBB51:
 327              	.LBB46:
  62:src/syscall_c.cpp ****             {
 328              		.loc 1 62 13 is_stmt 1
  63:src/syscall_c.cpp ****                 void *p;
 329              		.loc 1 63 13
 330              	.LBB36:
  64:src/syscall_c.cpp ****                 __asm__ volatile("mv %0, a1": "=r"(p));
 331              		.loc 1 64 17
  65:src/syscall_c.cpp ****                 MemoryAllocator::mem_free(p);
 332              		.loc 1 65 17
  65:src/syscall_c.cpp ****                 MemoryAllocator::mem_free(p);
 333              		.loc 1 65 55 is_stmt 0
 334              	#APP
 335              	# 65 "src/syscall_c.cpp" 1
 336              		mv a0, a1
GAS LISTING /tmp/ccALIodx.s 			page 14


 337              	# 0 "" 2
 338              	.LVL16:
  66:src/syscall_c.cpp ****                 break;}
 339              		.loc 1 66 17 is_stmt 1
  66:src/syscall_c.cpp ****                 break;}
 340              		.loc 1 66 42 is_stmt 0
 341              	#NO_APP
 342 0120 97000000 		call	_ZN15MemoryAllocator8mem_freeEPv@plt
 342      E7800000 
 343              	.LVL17:
  67:src/syscall_c.cpp ****             case THREAD_CREATE:
 344              		.loc 1 67 17 is_stmt 1
 345 0128 6FF01FFD 		j	.L5
 346              	.LVL18:
 347              	.L17:
 348              	.LBE36:
  68:src/syscall_c.cpp ****             {
 349              		.loc 1 68 13
  69:src/syscall_c.cpp ****                 __asm__ volatile("ld s1, 11*8(fp)");
 350              		.loc 1 69 13
 351              	.LBB37:
  70:src/syscall_c.cpp ****                 __asm__ volatile("ld s2, 12*8(fp)");
 352              		.loc 1 70 17
  70:src/syscall_c.cpp ****                 __asm__ volatile("ld s2, 12*8(fp)");
 353              		.loc 1 70 52 is_stmt 0
 354              	#APP
 355              	# 70 "src/syscall_c.cpp" 1
  71:src/syscall_c.cpp ****                 __asm__ volatile("ld s3, 13*8(fp)");
 356              		ld s1, 11*8(fp)
 357              	# 0 "" 2
 358              		.loc 1 71 17 is_stmt 1
  71:src/syscall_c.cpp ****                 __asm__ volatile("ld s3, 13*8(fp)");
 359              		.loc 1 71 52 is_stmt 0
 360              	# 71 "src/syscall_c.cpp" 1
  72:src/syscall_c.cpp ****                 thread_t* handle = nullptr;
 361              		ld s2, 12*8(fp)
 362              	# 0 "" 2
 363              		.loc 1 72 17 is_stmt 1
  72:src/syscall_c.cpp ****                 thread_t* handle = nullptr;
 364              		.loc 1 72 52 is_stmt 0
 365              	# 72 "src/syscall_c.cpp" 1
  73:src/syscall_c.cpp ****                 __asm__ volatile("mv %0, s1": "=r"(handle));
 366              		ld s3, 13*8(fp)
 367              	# 0 "" 2
 368              		.loc 1 73 17 is_stmt 1
 369              	.LVL19:
  74:src/syscall_c.cpp ****                 _thread::Body body;
 370              		.loc 1 74 17
  74:src/syscall_c.cpp ****                 _thread::Body body;
 371              		.loc 1 74 60 is_stmt 0
 372              	# 74 "src/syscall_c.cpp" 1
 373              		mv s1, s1
 374              	# 0 "" 2
 375              	.LVL20:
  75:src/syscall_c.cpp ****                 __asm__ volatile("mv %0, s2": "=r"(body));
 376              		.loc 1 75 17 is_stmt 1
  76:src/syscall_c.cpp ****                 void* arg;
GAS LISTING /tmp/ccALIodx.s 			page 15


 377              		.loc 1 76 17
  76:src/syscall_c.cpp ****                 void* arg;
 378              		.loc 1 76 58 is_stmt 0
 379              	# 76 "src/syscall_c.cpp" 1
 380              		mv a0, s2
 381              	# 0 "" 2
 382              	.LVL21:
  77:src/syscall_c.cpp ****                 __asm__ volatile("mv %0, s3": "=r"(arg));
 383              		.loc 1 77 17 is_stmt 1
  78:src/syscall_c.cpp **** 
 384              		.loc 1 78 17
  78:src/syscall_c.cpp **** 
 385              		.loc 1 78 57 is_stmt 0
 386              	# 78 "src/syscall_c.cpp" 1
 387              		mv a1, s3
 388              	# 0 "" 2
 389              	.LVL22:
  80:src/syscall_c.cpp ****                 (*handle)->start();
 390              		.loc 1 80 17 is_stmt 1
  80:src/syscall_c.cpp ****                 (*handle)->start();
 391              		.loc 1 80 48 is_stmt 0
 392              	#NO_APP
 393 0144 97000000 		call	_ZN7_thread12createThreadEPFvPvES0_@plt
 393      E7800000 
 394              	.LVL23:
  80:src/syscall_c.cpp ****                 (*handle)->start();
 395              		.loc 1 80 25
 396 014c 23B0A400 		sd	a0,0(s1)
  81:src/syscall_c.cpp **** 
 397              		.loc 1 81 17 is_stmt 1
  81:src/syscall_c.cpp **** 
 398              		.loc 1 81 33 is_stmt 0
 399 0150 97000000 		call	_ZN7_thread5startEv@plt
 399      E7800000 
 400              	.LVL24:
  83:src/syscall_c.cpp ****                 if (!handle) { ret = -1;}
 401              		.loc 1 83 17 is_stmt 1
  84:src/syscall_c.cpp **** 
 402              		.loc 1 84 17
 403 0158 63880400 		beqz	s1,.L24
  83:src/syscall_c.cpp ****                 if (!handle) { ret = -1;}
 404              		.loc 1 83 21 is_stmt 0
 405 015c 93070000 		li	a5,0
 406              	.L20:
 407              	.LVL25:
  86:src/syscall_c.cpp ****                 break;
 408              		.loc 1 86 17 is_stmt 1
  86:src/syscall_c.cpp ****                 break;
 409              		.loc 1 86 58 is_stmt 0
 410              	#APP
 411              	# 86 "src/syscall_c.cpp" 1
  87:src/syscall_c.cpp ****             }
 412              		mv a0, a5
 413              	# 0 "" 2
 414              		.loc 1 87 17 is_stmt 1
 415              	#NO_APP
 416 0164 6FF05FF9 		j	.L5
GAS LISTING /tmp/ccALIodx.s 			page 16


 417              	.LVL26:
 418              	.L24:
  84:src/syscall_c.cpp **** 
 419              		.loc 1 84 36 is_stmt 0
 420 0168 9307F0FF 		li	a5,-1
 421 016c 6FF05FFF 		j	.L20
 422              	.LVL27:
 423              	.L16:
 424              	.LBE37:
  89:src/syscall_c.cpp ****             {
 425              		.loc 1 89 13 is_stmt 1
  90:src/syscall_c.cpp ****                 _thread::threadExit();
 426              		.loc 1 90 13
  91:src/syscall_c.cpp ****                 break;}
 427              		.loc 1 91 17
  91:src/syscall_c.cpp ****                 break;}
 428              		.loc 1 91 36 is_stmt 0
 429 0170 97000000 		call	_ZN7_thread10threadExitEv@plt
 429      E7800000 
 430              	.LVL28:
  92:src/syscall_c.cpp ****             case THREAD_DISPATCH:
 431              		.loc 1 92 17 is_stmt 1
 432 0178 6FF01FF8 		j	.L5
 433              	.LVL29:
 434              	.L15:
  93:src/syscall_c.cpp ****             {
 435              		.loc 1 93 13
  94:src/syscall_c.cpp ****                 _thread::dispatch();
 436              		.loc 1 94 13
  95:src/syscall_c.cpp ****                 break;
 437              		.loc 1 95 17
  95:src/syscall_c.cpp ****                 break;
 438              		.loc 1 95 34 is_stmt 0
 439 017c 97000000 		call	_ZN7_thread8dispatchEv@plt
 439      E7800000 
 440              	.LVL30:
  96:src/syscall_c.cpp ****             }
 441              		.loc 1 96 17 is_stmt 1
 442 0184 6FF05FF7 		j	.L5
 443              	.LVL31:
 444              	.L14:
  98:src/syscall_c.cpp ****                 __asm__ volatile("ld s1, 11*8(fp)");
 445              		.loc 1 98 13
  98:src/syscall_c.cpp ****                 __asm__ volatile("ld s1, 11*8(fp)");
 446              		.loc 1 98 37
 447              	.LBB38:
  99:src/syscall_c.cpp ****                 __asm__ volatile("ld s2, 12*8(fp)");
 448              		.loc 1 99 17
  99:src/syscall_c.cpp ****                 __asm__ volatile("ld s2, 12*8(fp)");
 449              		.loc 1 99 52 is_stmt 0
 450              	#APP
 451              	# 99 "src/syscall_c.cpp" 1
 100:src/syscall_c.cpp ****                 __asm__ volatile("ld s3, 13*8(fp)");
 452              		ld s1, 11*8(fp)
 453              	# 0 "" 2
 454              		.loc 1 100 17 is_stmt 1
 100:src/syscall_c.cpp ****                 __asm__ volatile("ld s3, 13*8(fp)");
GAS LISTING /tmp/ccALIodx.s 			page 17


 455              		.loc 1 100 52 is_stmt 0
 456              	# 100 "src/syscall_c.cpp" 1
 101:src/syscall_c.cpp ****                 thread_t* handle = nullptr;
 457              		ld s2, 12*8(fp)
 458              	# 0 "" 2
 459              		.loc 1 101 17 is_stmt 1
 101:src/syscall_c.cpp ****                 thread_t* handle = nullptr;
 460              		.loc 1 101 52 is_stmt 0
 461              	# 101 "src/syscall_c.cpp" 1
 102:src/syscall_c.cpp ****                 __asm__ volatile("mv %0, s1": "=r"(handle));
 462              		ld s3, 13*8(fp)
 463              	# 0 "" 2
 464              		.loc 1 102 17 is_stmt 1
 465              	.LVL32:
 103:src/syscall_c.cpp ****                 _thread::Body body;
 466              		.loc 1 103 17
 103:src/syscall_c.cpp ****                 _thread::Body body;
 467              		.loc 1 103 60 is_stmt 0
 468              	# 103 "src/syscall_c.cpp" 1
 469              		mv s1, s1
 470              	# 0 "" 2
 471              	.LVL33:
 104:src/syscall_c.cpp ****                 __asm__ volatile("mv %0, s2": "=r"(body));
 472              		.loc 1 104 17 is_stmt 1
 105:src/syscall_c.cpp ****                 void* arg;
 473              		.loc 1 105 17
 105:src/syscall_c.cpp ****                 void* arg;
 474              		.loc 1 105 58 is_stmt 0
 475              	# 105 "src/syscall_c.cpp" 1
 476              		mv a0, s2
 477              	# 0 "" 2
 478              	.LVL34:
 106:src/syscall_c.cpp ****                 __asm__ volatile("mv %0, s3": "=r"(arg));
 479              		.loc 1 106 17 is_stmt 1
 107:src/syscall_c.cpp **** 
 480              		.loc 1 107 17
 107:src/syscall_c.cpp **** 
 481              		.loc 1 107 57 is_stmt 0
 482              	# 107 "src/syscall_c.cpp" 1
 483              		mv a1, s3
 484              	# 0 "" 2
 485              	.LVL35:
 109:src/syscall_c.cpp **** 
 486              		.loc 1 109 17 is_stmt 1
 109:src/syscall_c.cpp **** 
 487              		.loc 1 109 48 is_stmt 0
 488              	#NO_APP
 489 01a0 97000000 		call	_ZN7_thread12createThreadEPFvPvES0_@plt
 489      E7800000 
 490              	.LVL36:
 109:src/syscall_c.cpp **** 
 491              		.loc 1 109 25
 492 01a8 23B0A400 		sd	a0,0(s1)
 111:src/syscall_c.cpp ****                 if (!handle) {ret = -1;}
 493              		.loc 1 111 17 is_stmt 1
 494              	.LVL37:
 112:src/syscall_c.cpp ****                 __asm__ volatile("mv a0, %0" : :"r"(ret));
GAS LISTING /tmp/ccALIodx.s 			page 18


 495              		.loc 1 112 17
 496 01ac 63880400 		beqz	s1,.L25
 111:src/syscall_c.cpp ****                 if (!handle) {ret = -1;}
 497              		.loc 1 111 21 is_stmt 0
 498 01b0 93070000 		li	a5,0
 499              	.L21:
 500              	.LVL38:
 113:src/syscall_c.cpp ****                 break;}
 501              		.loc 1 113 17 is_stmt 1
 113:src/syscall_c.cpp ****                 break;}
 502              		.loc 1 113 58 is_stmt 0
 503              	#APP
 504              	# 113 "src/syscall_c.cpp" 1
 114:src/syscall_c.cpp ****             case THREAD_START:{
 505              		mv a0, a5
 506              	# 0 "" 2
 507              		.loc 1 114 17 is_stmt 1
 508              	#NO_APP
 509 01b8 6FF01FF4 		j	.L5
 510              	.LVL39:
 511              	.L25:
 112:src/syscall_c.cpp ****                 __asm__ volatile("mv a0, %0" : :"r"(ret));
 512              		.loc 1 112 35 is_stmt 0
 513 01bc 9307F0FF 		li	a5,-1
 514 01c0 6FF05FFF 		j	.L21
 515              	.LVL40:
 516              	.L13:
 517              	.LBE38:
 115:src/syscall_c.cpp ****                 thread_t handle = nullptr;
 518              		.loc 1 115 13 is_stmt 1
 115:src/syscall_c.cpp ****                 thread_t handle = nullptr;
 519              		.loc 1 115 31
 520              	.LBB39:
 116:src/syscall_c.cpp ****                 __asm__ volatile("mv %0, a1": "=r"(handle));
 521              		.loc 1 116 17
 117:src/syscall_c.cpp **** 
 522              		.loc 1 117 17
 117:src/syscall_c.cpp **** 
 523              		.loc 1 117 60 is_stmt 0
 524              	#APP
 525              	# 117 "src/syscall_c.cpp" 1
 526              		mv a0, a1
 527              	# 0 "" 2
 528              	.LVL41:
 119:src/syscall_c.cpp ****                 break;}
 529              		.loc 1 119 17 is_stmt 1
 119:src/syscall_c.cpp ****                 break;}
 530              		.loc 1 119 30 is_stmt 0
 531              	#NO_APP
 532 01c8 97000000 		call	_ZN7_thread5startEv@plt
 532      E7800000 
 533              	.LVL42:
 120:src/syscall_c.cpp ****             case SEM_OPEN:{
 534              		.loc 1 120 17 is_stmt 1
 535 01d0 6FF09FF2 		j	.L5
 536              	.LVL43:
 537              	.L12:
GAS LISTING /tmp/ccALIodx.s 			page 19


 538              	.LBE39:
 121:src/syscall_c.cpp ****                 sem_t* handle = nullptr;
 539              		.loc 1 121 13
 121:src/syscall_c.cpp ****                 sem_t* handle = nullptr;
 540              		.loc 1 121 27
 541              	.LBB40:
 122:src/syscall_c.cpp ****                 __asm__ volatile("mv %0, a1": "=r"(handle));
 542              		.loc 1 122 17
 123:src/syscall_c.cpp ****                 unsigned init = 0;
 543              		.loc 1 123 17
 123:src/syscall_c.cpp ****                 unsigned init = 0;
 544              		.loc 1 123 60 is_stmt 0
 545              	#APP
 546              	# 123 "src/syscall_c.cpp" 1
 547              		mv s1, a1
 548              	# 0 "" 2
 549              	.LVL44:
 124:src/syscall_c.cpp ****                 __asm__ volatile("mv %0, a2": "=r"(init));
 550              		.loc 1 124 17 is_stmt 1
 125:src/syscall_c.cpp **** 
 551              		.loc 1 125 17
 125:src/syscall_c.cpp **** 
 552              		.loc 1 125 58 is_stmt 0
 553              	# 125 "src/syscall_c.cpp" 1
 554              		mv a0, a2
 555              	# 0 "" 2
 556              	.LVL45:
 127:src/syscall_c.cpp ****                 __asm__ volatile("mv a0, %0" : :"r"(handle));
 557              		.loc 1 127 17 is_stmt 1
 127:src/syscall_c.cpp ****                 __asm__ volatile("mv a0, %0" : :"r"(handle));
 558              		.loc 1 127 40 is_stmt 0
 559              	#NO_APP
 560 01dc 1B050500 		sext.w	a0,a0
 561 01e0 97000000 		call	_ZN4_sem7semOpenEj@plt
 561      E7800000 
 562              	.LVL46:
 127:src/syscall_c.cpp ****                 __asm__ volatile("mv a0, %0" : :"r"(handle));
 563              		.loc 1 127 25
 564 01e8 23B0A400 		sd	a0,0(s1)
 128:src/syscall_c.cpp ****                 break;
 565              		.loc 1 128 17 is_stmt 1
 128:src/syscall_c.cpp ****                 break;
 566              		.loc 1 128 61 is_stmt 0
 567              	#APP
 568              	# 128 "src/syscall_c.cpp" 1
 129:src/syscall_c.cpp ****             }
 569              		mv a0, s1
 570              	# 0 "" 2
 571              		.loc 1 129 17 is_stmt 1
 572              	#NO_APP
 573 01f0 6FF09FF0 		j	.L5
 574              	.LVL47:
 575              	.L11:
 576              	.LBE40:
 131:src/syscall_c.cpp ****                 sem_t handle = nullptr;
 577              		.loc 1 131 13
 131:src/syscall_c.cpp ****                 sem_t handle = nullptr;
GAS LISTING /tmp/ccALIodx.s 			page 20


 578              		.loc 1 131 28
 579              	.LBB41:
 132:src/syscall_c.cpp ****                 __asm__ volatile("mv %0, a1": "=r"(handle));
 580              		.loc 1 132 17
 133:src/syscall_c.cpp **** 
 581              		.loc 1 133 17
 133:src/syscall_c.cpp **** 
 582              		.loc 1 133 60 is_stmt 0
 583              	#APP
 584              	# 133 "src/syscall_c.cpp" 1
 585              		mv a0, a1
 586              	# 0 "" 2
 587              	.LVL48:
 135:src/syscall_c.cpp ****                 __asm__ volatile("mv a0, %0" : :"r"(ret));
 588              		.loc 1 135 17 is_stmt 1
 135:src/syscall_c.cpp ****                 __asm__ volatile("mv a0, %0" : :"r"(ret));
 589              		.loc 1 135 41 is_stmt 0
 590              	#NO_APP
 591 01f8 97000000 		call	_ZN4_sem8semCloseEPS_@plt
 591      E7800000 
 592              	.LVL49:
 136:src/syscall_c.cpp ****                 break;
 593              		.loc 1 136 17 is_stmt 1
 136:src/syscall_c.cpp ****                 break;
 594              		.loc 1 136 58 is_stmt 0
 595              	#APP
 596              	# 136 "src/syscall_c.cpp" 1
 137:src/syscall_c.cpp ****             }
 597              		mv a0, a0
 598              	# 0 "" 2
 599              		.loc 1 137 17 is_stmt 1
 600              	#NO_APP
 601 0204 6FF05FEF 		j	.L5
 602              	.LVL50:
 603              	.L10:
 604              	.LBE41:
 139:src/syscall_c.cpp ****                 sem_t id = nullptr;
 605              		.loc 1 139 13
 139:src/syscall_c.cpp ****                 sem_t id = nullptr;
 606              		.loc 1 139 27
 607              	.LBB42:
 140:src/syscall_c.cpp ****                 __asm__ volatile("mv %0, a1": "=r"(id));
 608              		.loc 1 140 17
 141:src/syscall_c.cpp **** 
 609              		.loc 1 141 17
 141:src/syscall_c.cpp **** 
 610              		.loc 1 141 56 is_stmt 0
 611              	#APP
 612              	# 141 "src/syscall_c.cpp" 1
 613              		mv a0, a1
 614              	# 0 "" 2
 615              	.LVL51:
 143:src/syscall_c.cpp ****                 __asm__ volatile("mv a0, %0" : :"r"(ret));
 616              		.loc 1 143 17 is_stmt 1
 143:src/syscall_c.cpp ****                 __asm__ volatile("mv a0, %0" : :"r"(ret));
 617              		.loc 1 143 40 is_stmt 0
 618              	#NO_APP
GAS LISTING /tmp/ccALIodx.s 			page 21


 619 020c 97000000 		call	_ZN4_sem7semWaitEPS_@plt
 619      E7800000 
 620              	.LVL52:
 144:src/syscall_c.cpp ****                 break;
 621              		.loc 1 144 17 is_stmt 1
 144:src/syscall_c.cpp ****                 break;
 622              		.loc 1 144 58 is_stmt 0
 623              	#APP
 624              	# 144 "src/syscall_c.cpp" 1
 145:src/syscall_c.cpp ****             }
 625              		mv a0, a0
 626              	# 0 "" 2
 627              		.loc 1 145 17 is_stmt 1
 628              	#NO_APP
 629 0218 6FF01FEE 		j	.L5
 630              	.LVL53:
 631              	.L9:
 632              	.LBE42:
 147:src/syscall_c.cpp ****                 sem_t id = nullptr;
 633              		.loc 1 147 13
 147:src/syscall_c.cpp ****                 sem_t id = nullptr;
 634              		.loc 1 147 29
 635              	.LBB43:
 148:src/syscall_c.cpp ****                 __asm__ volatile("mv %0, a1": "=r"(id));
 636              		.loc 1 148 17
 149:src/syscall_c.cpp **** 
 637              		.loc 1 149 17
 149:src/syscall_c.cpp **** 
 638              		.loc 1 149 56 is_stmt 0
 639              	#APP
 640              	# 149 "src/syscall_c.cpp" 1
 641              		mv a0, a1
 642              	# 0 "" 2
 643              	.LVL54:
 151:src/syscall_c.cpp ****                 __asm__ volatile("mv a0, %0" : :"r"(ret));
 644              		.loc 1 151 17 is_stmt 1
 151:src/syscall_c.cpp ****                 __asm__ volatile("mv a0, %0" : :"r"(ret));
 645              		.loc 1 151 42 is_stmt 0
 646              	#NO_APP
 647 0220 97000000 		call	_ZN4_sem9semSignalEPS_@plt
 647      E7800000 
 648              	.LVL55:
 152:src/syscall_c.cpp ****                 break;
 649              		.loc 1 152 17 is_stmt 1
 152:src/syscall_c.cpp ****                 break;
 650              		.loc 1 152 58 is_stmt 0
 651              	#APP
 652              	# 152 "src/syscall_c.cpp" 1
 153:src/syscall_c.cpp ****             }
 653              		mv a0, a0
 654              	# 0 "" 2
 655              		.loc 1 153 17 is_stmt 1
 656              	#NO_APP
 657 022c 6FF0DFEC 		j	.L5
 658              	.LVL56:
 659              	.L6:
 660              	.LBE43:
GAS LISTING /tmp/ccALIodx.s 			page 22


 155:src/syscall_c.cpp ****                 char c;
 661              		.loc 1 155 13
 155:src/syscall_c.cpp ****                 char c;
 662              		.loc 1 155 23
 663              	.LBB44:
 156:src/syscall_c.cpp ****                 __asm__ volatile("mv %0, a1": "=r"(c));
 664              		.loc 1 156 17
 157:src/syscall_c.cpp ****                 __putc(c);
 665              		.loc 1 157 17
 157:src/syscall_c.cpp ****                 __putc(c);
 666              		.loc 1 157 55 is_stmt 0
 667              	#APP
 668              	# 157 "src/syscall_c.cpp" 1
 669              		mv a0, a1
 670              	# 0 "" 2
 671              	.LVL57:
 158:src/syscall_c.cpp ****                 break;
 672              		.loc 1 158 17 is_stmt 1
 158:src/syscall_c.cpp ****                 break;
 673              		.loc 1 158 23 is_stmt 0
 674              	#NO_APP
 675 0234 1375F50F 		andi	a0,a0,0xff
 676 0238 97000000 		call	__putc@plt
 676      E7800000 
 677              	.LVL58:
 159:src/syscall_c.cpp ****             }
 678              		.loc 1 159 17 is_stmt 1
 679 0240 6FF09FEB 		j	.L5
 680              	.LVL59:
 681              	.L8:
 682              	.LBE44:
 161:src/syscall_c.cpp ****                 char c = __getc();
 683              		.loc 1 161 13
 161:src/syscall_c.cpp ****                 char c = __getc();
 684              		.loc 1 161 23
 685              	.LBB45:
 162:src/syscall_c.cpp ****                 __asm__ volatile("sd a0, 10*8(fp)");
 686              		.loc 1 162 17
 162:src/syscall_c.cpp ****                 __asm__ volatile("sd a0, 10*8(fp)");
 687              		.loc 1 162 32 is_stmt 0
 688 0244 97000000 		call	__getc@plt
 688      E7800000 
 689              	.LVL60:
 163:src/syscall_c.cpp ****                 __asm__ volatile("mv a0, %0" : : "r"(c));
 690              		.loc 1 163 17 is_stmt 1
 163:src/syscall_c.cpp ****                 __asm__ volatile("mv a0, %0" : : "r"(c));
 691              		.loc 1 163 52 is_stmt 0
 692              	#APP
 693              	# 163 "src/syscall_c.cpp" 1
 164:src/syscall_c.cpp ****                 //__asm__ volatile("mv a0, %0" : :"r"(c));
 694              		sd a0, 10*8(fp)
 695              	# 0 "" 2
 696              		.loc 1 164 17 is_stmt 1
 164:src/syscall_c.cpp ****                 //__asm__ volatile("mv a0, %0" : :"r"(c));
 697              		.loc 1 164 57 is_stmt 0
 698              	# 164 "src/syscall_c.cpp" 1
 166:src/syscall_c.cpp ****             }
GAS LISTING /tmp/ccALIodx.s 			page 23


 699              		mv a0, a0
 700              	# 0 "" 2
 701              		.loc 1 166 17 is_stmt 1
 702              	#NO_APP
 703 0254 6FF05FEA 		j	.L5
 704              	.LVL61:
 705              	.L28:
 706              	.LBE45:
 707              	.LBE46:
 708              	.LBE51:
 709              	.LBE52:
 174:src/syscall_c.cpp ****     } else if (scause == 0x8000000000000009UL)
 710              		.loc 1 174 9
 711              	.LBB53:
 712              	.LBB54:
 150:src/../h/riscv.h **** }
 713              		.loc 2 150 5
 150:src/../h/riscv.h **** }
 714              		.loc 2 150 64 is_stmt 0
 715 0258 93072000 		li	a5,2
 716              	#APP
 717              	# 150 "src/../h/riscv.h" 1
 151:src/../h/riscv.h **** 
 718              		csrc sip, a5
 719              	# 0 "" 2
 720              		.loc 2 151 1
 721              	#NO_APP
 722 0260 6FF09FEA 		j	.L3
 723              	.LBE54:
 724              	.LBE53:
 725              	.LBE56:
 726              		.cfi_endproc
 727              	.LFE47:
 729              		.align	2
 730              		.globl	_Z9mem_allocm
 732              	_Z9mem_allocm:
 733              	.LFB48:
 184:src/syscall_c.cpp **** 
 185:src/syscall_c.cpp **** void* mem_alloc(size_t size){
 734              		.loc 1 185 29 is_stmt 1
 735              		.cfi_startproc
 736              	.LVL62:
 737 0264 130101FF 		addi	sp,sp,-16
 738              		.cfi_def_cfa_offset 16
 739 0268 23341100 		sd	ra,8(sp)
 740 026c 23308100 		sd	s0,0(sp)
 741              		.cfi_offset 1, -8
 742              		.cfi_offset 8, -16
 743 0270 13040101 		addi	s0,sp,16
 744              		.cfi_def_cfa 8, 0
 186:src/syscall_c.cpp ****     //upis broja blokova
 187:src/syscall_c.cpp ****     size_t numOfBlocks = (size+sizeof(MemoryAllocator::FullMem))/MEM_BLOCK_SIZE
 745              		.loc 1 187 5
 746              		.loc 1 187 31 is_stmt 0
 747 0274 13058501 		addi	a0,a0,24
 748              	.LVL63:
 749              		.loc 1 187 65
GAS LISTING /tmp/ccALIodx.s 			page 24


 750 0278 93556500 		srli	a1,a0,6
 188:src/syscall_c.cpp ****                          + ((size+sizeof(MemoryAllocator::FullMem))%MEM_BLOCK_SIZE?1:0);
 751              		.loc 1 188 68
 752 027c 1375F503 		andi	a0,a0,63
 753              	.LVL64:
 754              		.loc 1 188 83
 755 0280 63040500 		beqz	a0,.L30
 756 0284 13051000 		li	a0,1
 757              	.L30:
 758              	.LVL65:
 189:src/syscall_c.cpp **** 
 190:src/syscall_c.cpp ****     abi_invoker(MEM_ALLOC, numOfBlocks);
 759              		.loc 1 190 5 is_stmt 1
 760              		.loc 1 190 16 is_stmt 0
 761 0288 B385A500 		add	a1,a1,a0
 762              	.LVL66:
 763 028c 13051000 		li	a0,1
 764 0290 97000000 		call	_Z11abi_invokeriz
 764      E7800000 
 765              	.LVL67:
 191:src/syscall_c.cpp **** 
 192:src/syscall_c.cpp ****     //povratak
 193:src/syscall_c.cpp ****     void* p = nullptr;
 766              		.loc 1 193 5 is_stmt 1
 194:src/syscall_c.cpp ****     __asm__ volatile("mv a0, %0": "=r"(p));
 767              		.loc 1 194 5
 768              		.loc 1 194 43 is_stmt 0
 769              	#APP
 770              	# 194 "src/syscall_c.cpp" 1
 195              	    return p;
 771              		mv a0, a0
 772              	# 0 "" 2
 773              	.LVL68:
 774              		.loc 1 195 5 is_stmt 1
 196:src/syscall_c.cpp **** 
 197:src/syscall_c.cpp **** }
 775              		.loc 1 197 1 is_stmt 0
 776              	#NO_APP
 777 029c 83308100 		ld	ra,8(sp)
 778              		.cfi_restore 1
 779 02a0 03340100 		ld	s0,0(sp)
 780              		.cfi_restore 8
 781              		.cfi_def_cfa 2, 16
 782 02a4 13010101 		addi	sp,sp,16
 783              		.cfi_def_cfa_offset 0
 784 02a8 67800000 		jr	ra
 785              		.cfi_endproc
 786              	.LFE48:
 788              		.align	2
 789              		.globl	_Z8mem_freePv
 791              	_Z8mem_freePv:
 792              	.LFB49:
 198:src/syscall_c.cpp **** 
 199:src/syscall_c.cpp **** int mem_free(void *p){
 793              		.loc 1 199 22 is_stmt 1
 794              		.cfi_startproc
 795              	.LVL69:
GAS LISTING /tmp/ccALIodx.s 			page 25


 796 02ac 130101FF 		addi	sp,sp,-16
 797              		.cfi_def_cfa_offset 16
 798 02b0 23341100 		sd	ra,8(sp)
 799 02b4 23308100 		sd	s0,0(sp)
 800              		.cfi_offset 1, -8
 801              		.cfi_offset 8, -16
 802 02b8 13040101 		addi	s0,sp,16
 803              		.cfi_def_cfa 8, 0
 804 02bc 93050500 		mv	a1,a0
 200:src/syscall_c.cpp ****     abi_invoker(MEM_FREE, p);
 805              		.loc 1 200 5
 806              		.loc 1 200 16 is_stmt 0
 807 02c0 13052000 		li	a0,2
 808              	.LVL70:
 809 02c4 97000000 		call	_Z11abi_invokeriz
 809      E7800000 
 810              	.LVL71:
 201:src/syscall_c.cpp **** 
 202:src/syscall_c.cpp ****     //povratak
 203:src/syscall_c.cpp ****     size_t ret;
 811              		.loc 1 203 5 is_stmt 1
 204:src/syscall_c.cpp ****     __asm__ volatile("mv a0, %0": "=r"(ret));
 812              		.loc 1 204 5
 813              		.loc 1 204 45 is_stmt 0
 814              	#APP
 815              	# 204 "src/syscall_c.cpp" 1
 205              	    return ret;
 816              		mv a0, a0
 817              	# 0 "" 2
 818              	.LVL72:
 819              		.loc 1 205 5 is_stmt 1
 206:src/syscall_c.cpp **** }
 820              		.loc 1 206 1 is_stmt 0
 821              	#NO_APP
 822 02d0 1B050500 		sext.w	a0,a0
 823              	.LVL73:
 824 02d4 83308100 		ld	ra,8(sp)
 825              		.cfi_restore 1
 826 02d8 03340100 		ld	s0,0(sp)
 827              		.cfi_restore 8
 828              		.cfi_def_cfa 2, 16
 829 02dc 13010101 		addi	sp,sp,16
 830              		.cfi_def_cfa_offset 0
 831 02e0 67800000 		jr	ra
 832              		.cfi_endproc
 833              	.LFE49:
 835              		.align	2
 836              		.globl	_Z11thread_exitv
 838              	_Z11thread_exitv:
 839              	.LFB50:
 207:src/syscall_c.cpp **** 
 208:src/syscall_c.cpp **** int thread_exit(){
 840              		.loc 1 208 18 is_stmt 1
 841              		.cfi_startproc
 842 02e4 130101FF 		addi	sp,sp,-16
 843              		.cfi_def_cfa_offset 16
 844 02e8 23341100 		sd	ra,8(sp)
GAS LISTING /tmp/ccALIodx.s 			page 26


 845 02ec 23308100 		sd	s0,0(sp)
 846              		.cfi_offset 1, -8
 847              		.cfi_offset 8, -16
 848 02f0 13040101 		addi	s0,sp,16
 849              		.cfi_def_cfa 8, 0
 209:src/syscall_c.cpp ****     //__asm__ volatile("csrw stvec, %[vector] ": : [vector] "r" (&trap));
 210:src/syscall_c.cpp ****     abi_invoker(THREAD_EXIT);
 850              		.loc 1 210 5
 851              		.loc 1 210 16 is_stmt 0
 852 02f4 13052001 		li	a0,18
 853 02f8 97000000 		call	_Z11abi_invokeriz
 853      E7800000 
 854              	.LVL74:
 211:src/syscall_c.cpp **** 
 212:src/syscall_c.cpp ****     //povratak
 213:src/syscall_c.cpp ****     size_t ret;
 855              		.loc 1 213 5 is_stmt 1
 214:src/syscall_c.cpp ****     __asm__ volatile("mv a0, %0": "=r"(ret));
 856              		.loc 1 214 5
 857              		.loc 1 214 45 is_stmt 0
 858              	#APP
 859              	# 214 "src/syscall_c.cpp" 1
 215              	    return ret;
 860              		mv a0, a0
 861              	# 0 "" 2
 862              	.LVL75:
 863              		.loc 1 215 5 is_stmt 1
 216:src/syscall_c.cpp **** }
 864              		.loc 1 216 1 is_stmt 0
 865              	#NO_APP
 866 0304 1B050500 		sext.w	a0,a0
 867              	.LVL76:
 868 0308 83308100 		ld	ra,8(sp)
 869              		.cfi_restore 1
 870 030c 03340100 		ld	s0,0(sp)
 871              		.cfi_restore 8
 872              		.cfi_def_cfa 2, 16
 873 0310 13010101 		addi	sp,sp,16
 874              		.cfi_def_cfa_offset 0
 875 0314 67800000 		jr	ra
 876              		.cfi_endproc
 877              	.LFE50:
 879              		.align	2
 880              		.globl	_Z13thread_createPP7_threadPFvPvES2_
 882              	_Z13thread_createPP7_threadPFvPvES2_:
 883              	.LFB51:
 217:src/syscall_c.cpp **** 
 218:src/syscall_c.cpp **** int thread_create(thread_t* handle, void(*start_routine)(void*), void* arg){
 884              		.loc 1 218 76 is_stmt 1
 885              		.cfi_startproc
 886              	.LVL77:
 887 0318 130101FD 		addi	sp,sp,-48
 888              		.cfi_def_cfa_offset 48
 889 031c 23341102 		sd	ra,40(sp)
 890 0320 23308102 		sd	s0,32(sp)
 891 0324 233C9100 		sd	s1,24(sp)
 892 0328 23382101 		sd	s2,16(sp)
GAS LISTING /tmp/ccALIodx.s 			page 27


 893 032c 23343101 		sd	s3,8(sp)
 894              		.cfi_offset 1, -8
 895              		.cfi_offset 8, -16
 896              		.cfi_offset 9, -24
 897              		.cfi_offset 18, -32
 898              		.cfi_offset 19, -40
 899 0330 13040103 		addi	s0,sp,48
 900              		.cfi_def_cfa 8, 0
 901 0334 93040500 		mv	s1,a0
 902 0338 13890500 		mv	s2,a1
 903 033c 93090600 		mv	s3,a2
 219:src/syscall_c.cpp ****     void * stack = MemoryAllocator::mem_alloc((DEFAULT_STACK_SIZE+MEM_BLOCK_SIZE-1+sizeof(MemoryAll
 904              		.loc 1 219 5
 905              		.loc 1 219 46 is_stmt 0
 906 0340 13051004 		li	a0,65
 907              	.LVL78:
 908 0344 97000000 		call	_ZN15MemoryAllocator9mem_allocEm@plt
 908      E7800000 
 909              	.LVL79:
 220:src/syscall_c.cpp ****     if (!stack) return -1;
 910              		.loc 1 220 5 is_stmt 1
 911 034c 63020504 		beqz	a0,.L38
 912 0350 13070500 		mv	a4,a0
 221:src/syscall_c.cpp **** 
 222:src/syscall_c.cpp ****     abi_invoker(THREAD_CREATE, handle, start_routine, arg, stack);
 913              		.loc 1 222 5
 914              		.loc 1 222 16 is_stmt 0
 915 0354 93860900 		mv	a3,s3
 916 0358 13060900 		mv	a2,s2
 917 035c 93850400 		mv	a1,s1
 918 0360 13051001 		li	a0,17
 919              	.LVL80:
 920 0364 97000000 		call	_Z11abi_invokeriz
 920      E7800000 
 921              	.LVL81:
 223:src/syscall_c.cpp **** 
 224:src/syscall_c.cpp ****     int ret;
 922              		.loc 1 224 5 is_stmt 1
 225:src/syscall_c.cpp ****     __asm__ volatile("mv a0, %0": "=r"(ret));
 923              		.loc 1 225 5
 924              		.loc 1 225 45 is_stmt 0
 925              	#APP
 926              	# 225 "src/syscall_c.cpp" 1
 226              	    return ret;
 927              		mv a0, a0
 928              	# 0 "" 2
 929              	#NO_APP
 930 0370 1B050500 		sext.w	a0,a0
 931              	.LVL82:
 932              		.loc 1 226 5 is_stmt 1
 933              	.L37:
 227:src/syscall_c.cpp **** }
 934              		.loc 1 227 1 is_stmt 0
 935 0374 83308102 		ld	ra,40(sp)
 936              		.cfi_remember_state
 937              		.cfi_restore 1
 938 0378 03340102 		ld	s0,32(sp)
GAS LISTING /tmp/ccALIodx.s 			page 28


 939              		.cfi_restore 8
 940              		.cfi_def_cfa 2, 48
 941 037c 83348101 		ld	s1,24(sp)
 942              		.cfi_restore 9
 943              	.LVL83:
 944 0380 03390101 		ld	s2,16(sp)
 945              		.cfi_restore 18
 946              	.LVL84:
 947 0384 83398100 		ld	s3,8(sp)
 948              		.cfi_restore 19
 949              	.LVL85:
 950 0388 13010103 		addi	sp,sp,48
 951              		.cfi_def_cfa_offset 0
 952 038c 67800000 		jr	ra
 953              	.LVL86:
 954              	.L38:
 955              		.cfi_restore_state
 220:src/syscall_c.cpp **** 
 956              		.loc 1 220 25
 957 0390 1305F0FF 		li	a0,-1
 958              	.LVL87:
 959 0394 6FF01FFE 		j	.L37
 960              		.cfi_endproc
 961              	.LFE51:
 963              		.align	2
 964              		.globl	_Z15thread_dispatchv
 966              	_Z15thread_dispatchv:
 967              	.LFB52:
 228:src/syscall_c.cpp **** 
 229:src/syscall_c.cpp **** void thread_dispatch(){
 968              		.loc 1 229 23 is_stmt 1
 969              		.cfi_startproc
 970 0398 130101FF 		addi	sp,sp,-16
 971              		.cfi_def_cfa_offset 16
 972 039c 23341100 		sd	ra,8(sp)
 973 03a0 23308100 		sd	s0,0(sp)
 974              		.cfi_offset 1, -8
 975              		.cfi_offset 8, -16
 976 03a4 13040101 		addi	s0,sp,16
 977              		.cfi_def_cfa 8, 0
 230:src/syscall_c.cpp ****     abi_invoker(THREAD_DISPATCH);
 978              		.loc 1 230 5
 979              		.loc 1 230 16 is_stmt 0
 980 03a8 13053001 		li	a0,19
 981 03ac 97000000 		call	_Z11abi_invokeriz
 981      E7800000 
 982              	.LVL88:
 231:src/syscall_c.cpp **** }
 983              		.loc 1 231 1
 984 03b4 83308100 		ld	ra,8(sp)
 985              		.cfi_restore 1
 986 03b8 03340100 		ld	s0,0(sp)
 987              		.cfi_restore 8
 988              		.cfi_def_cfa 2, 16
 989 03bc 13010101 		addi	sp,sp,16
 990              		.cfi_def_cfa_offset 0
 991 03c0 67800000 		jr	ra
GAS LISTING /tmp/ccALIodx.s 			page 29


 992              		.cfi_endproc
 993              	.LFE52:
 995              		.align	2
 996              		.globl	_Z18thread_create_onlyPP7_threadPFvPvES2_
 998              	_Z18thread_create_onlyPP7_threadPFvPvES2_:
 999              	.LFB53:
 232:src/syscall_c.cpp **** 
 233:src/syscall_c.cpp **** void thread_create_only(thread_t* handle,
 234:src/syscall_c.cpp ****                         void(*start_routine)(void*),
 235:src/syscall_c.cpp ****                         void* arg){
 1000              		.loc 1 235 35 is_stmt 1
 1001              		.cfi_startproc
 1002              	.LVL89:
 1003 03c4 130101FD 		addi	sp,sp,-48
 1004              		.cfi_def_cfa_offset 48
 1005 03c8 23341102 		sd	ra,40(sp)
 1006 03cc 23308102 		sd	s0,32(sp)
 1007 03d0 233C9100 		sd	s1,24(sp)
 1008 03d4 23382101 		sd	s2,16(sp)
 1009 03d8 23343101 		sd	s3,8(sp)
 1010              		.cfi_offset 1, -8
 1011              		.cfi_offset 8, -16
 1012              		.cfi_offset 9, -24
 1013              		.cfi_offset 18, -32
 1014              		.cfi_offset 19, -40
 1015 03dc 13040103 		addi	s0,sp,48
 1016              		.cfi_def_cfa 8, 0
 1017 03e0 93040500 		mv	s1,a0
 1018 03e4 13890500 		mv	s2,a1
 1019 03e8 93090600 		mv	s3,a2
 236:src/syscall_c.cpp ****     void * stack = MemoryAllocator::mem_alloc((DEFAULT_STACK_SIZE+MEM_BLOCK_SIZE-1+sizeof(MemoryAll
 1020              		.loc 1 236 5
 1021              		.loc 1 236 46 is_stmt 0
 1022 03ec 13051004 		li	a0,65
 1023              	.LVL90:
 1024 03f0 97000000 		call	_ZN15MemoryAllocator9mem_allocEm@plt
 1024      E7800000 
 1025              	.LVL91:
 237:src/syscall_c.cpp ****     if (!stack) return ;
 1026              		.loc 1 237 5 is_stmt 1
 1027 03f8 63020502 		beqz	a0,.L42
 1028 03fc 13070500 		mv	a4,a0
 238:src/syscall_c.cpp **** 
 239:src/syscall_c.cpp ****     abi_invoker(THREAD_CREATE_ONLY, handle, start_routine, arg, stack);
 1029              		.loc 1 239 5
 1030              		.loc 1 239 16 is_stmt 0
 1031 0400 93860900 		mv	a3,s3
 1032 0404 13060900 		mv	a2,s2
 1033 0408 93850400 		mv	a1,s1
 1034 040c 13054001 		li	a0,20
 1035              	.LVL92:
 1036 0410 97000000 		call	_Z11abi_invokeriz
 1036      E7800000 
 1037              	.LVL93:
 240:src/syscall_c.cpp **** 
 241:src/syscall_c.cpp ****     int ret;
 1038              		.loc 1 241 5 is_stmt 1
GAS LISTING /tmp/ccALIodx.s 			page 30


 242:src/syscall_c.cpp ****     __asm__ volatile("mv a0, %0": "=r"(ret));
 1039              		.loc 1 242 5
 1040              		.loc 1 242 45 is_stmt 0
 1041              	#APP
 1042              	# 242 "src/syscall_c.cpp" 1
 243              	}
 1043              		mv a0, a5
 1044              	# 0 "" 2
 1045              	.LVL94:
 1046              	#NO_APP
 1047              	.L42:
 1048              		.loc 1 243 1
 1049 041c 83308102 		ld	ra,40(sp)
 1050              		.cfi_restore 1
 1051 0420 03340102 		ld	s0,32(sp)
 1052              		.cfi_restore 8
 1053              		.cfi_def_cfa 2, 48
 1054 0424 83348101 		ld	s1,24(sp)
 1055              		.cfi_restore 9
 1056              	.LVL95:
 1057 0428 03390101 		ld	s2,16(sp)
 1058              		.cfi_restore 18
 1059              	.LVL96:
 1060 042c 83398100 		ld	s3,8(sp)
 1061              		.cfi_restore 19
 1062              	.LVL97:
 1063 0430 13010103 		addi	sp,sp,48
 1064              		.cfi_def_cfa_offset 0
 1065 0434 67800000 		jr	ra
 1066              		.cfi_endproc
 1067              	.LFE53:
 1069              		.align	2
 1070              		.globl	_Z12thread_startP7_thread
 1072              	_Z12thread_startP7_thread:
 1073              	.LFB54:
 244:src/syscall_c.cpp **** 
 245:src/syscall_c.cpp **** void thread_start(thread_t handle){
 1074              		.loc 1 245 35 is_stmt 1
 1075              		.cfi_startproc
 1076              	.LVL98:
 1077 0438 130101FF 		addi	sp,sp,-16
 1078              		.cfi_def_cfa_offset 16
 1079 043c 23341100 		sd	ra,8(sp)
 1080 0440 23308100 		sd	s0,0(sp)
 1081              		.cfi_offset 1, -8
 1082              		.cfi_offset 8, -16
 1083 0444 13040101 		addi	s0,sp,16
 1084              		.cfi_def_cfa 8, 0
 1085 0448 93050500 		mv	a1,a0
 246:src/syscall_c.cpp ****     abi_invoker(THREAD_START, handle);
 1086              		.loc 1 246 5
 1087              		.loc 1 246 16 is_stmt 0
 1088 044c 13055001 		li	a0,21
 1089              	.LVL99:
 1090 0450 97000000 		call	_Z11abi_invokeriz
 1090      E7800000 
 1091              	.LVL100:
GAS LISTING /tmp/ccALIodx.s 			page 31


 247:src/syscall_c.cpp **** }
 1092              		.loc 1 247 1
 1093 0458 83308100 		ld	ra,8(sp)
 1094              		.cfi_restore 1
 1095 045c 03340100 		ld	s0,0(sp)
 1096              		.cfi_restore 8
 1097              		.cfi_def_cfa 2, 16
 1098 0460 13010101 		addi	sp,sp,16
 1099              		.cfi_def_cfa_offset 0
 1100 0464 67800000 		jr	ra
 1101              		.cfi_endproc
 1102              	.LFE54:
 1104              		.align	2
 1105              		.globl	_Z8sem_openPP4_semj
 1107              	_Z8sem_openPP4_semj:
 1108              	.LFB55:
 248:src/syscall_c.cpp **** 
 249:src/syscall_c.cpp **** int sem_open(sem_t* handle, unsigned init){
 1109              		.loc 1 249 43 is_stmt 1
 1110              		.cfi_startproc
 1111              	.LVL101:
 1112 0468 130101FF 		addi	sp,sp,-16
 1113              		.cfi_def_cfa_offset 16
 1114 046c 23341100 		sd	ra,8(sp)
 1115 0470 23308100 		sd	s0,0(sp)
 1116              		.cfi_offset 1, -8
 1117              		.cfi_offset 8, -16
 1118 0474 13040101 		addi	s0,sp,16
 1119              		.cfi_def_cfa 8, 0
 1120 0478 13860500 		mv	a2,a1
 250:src/syscall_c.cpp ****     abi_invoker(SEM_OPEN, handle, init);
 1121              		.loc 1 250 5
 1122              		.loc 1 250 16 is_stmt 0
 1123 047c 93050500 		mv	a1,a0
 1124              	.LVL102:
 1125 0480 13051002 		li	a0,33
 1126              	.LVL103:
 1127 0484 97000000 		call	_Z11abi_invokeriz
 1127      E7800000 
 1128              	.LVL104:
 251:src/syscall_c.cpp **** 
 252:src/syscall_c.cpp ****     int ret;
 1129              		.loc 1 252 5 is_stmt 1
 253:src/syscall_c.cpp ****     __asm__ volatile("mv a0, %0": "=r"(ret));
 1130              		.loc 1 253 5
 1131              		.loc 1 253 45 is_stmt 0
 1132              	#APP
 1133              	# 253 "src/syscall_c.cpp" 1
 254              	    return ret;
 1134              		mv a0, a0
 1135              	# 0 "" 2
 1136              	.LVL105:
 1137              		.loc 1 254 5 is_stmt 1
 255:src/syscall_c.cpp **** }
 1138              		.loc 1 255 1 is_stmt 0
 1139              	#NO_APP
 1140 0490 1B050500 		sext.w	a0,a0
GAS LISTING /tmp/ccALIodx.s 			page 32


 1141 0494 83308100 		ld	ra,8(sp)
 1142              		.cfi_restore 1
 1143 0498 03340100 		ld	s0,0(sp)
 1144              		.cfi_restore 8
 1145              		.cfi_def_cfa 2, 16
 1146 049c 13010101 		addi	sp,sp,16
 1147              		.cfi_def_cfa_offset 0
 1148 04a0 67800000 		jr	ra
 1149              		.cfi_endproc
 1150              	.LFE55:
 1152              		.align	2
 1153              		.globl	_Z9sem_closeP4_sem
 1155              	_Z9sem_closeP4_sem:
 1156              	.LFB56:
 256:src/syscall_c.cpp **** 
 257:src/syscall_c.cpp **** int sem_close(sem_t handle){
 1157              		.loc 1 257 28 is_stmt 1
 1158              		.cfi_startproc
 1159              	.LVL106:
 1160 04a4 130101FF 		addi	sp,sp,-16
 1161              		.cfi_def_cfa_offset 16
 1162 04a8 23341100 		sd	ra,8(sp)
 1163 04ac 23308100 		sd	s0,0(sp)
 1164              		.cfi_offset 1, -8
 1165              		.cfi_offset 8, -16
 1166 04b0 13040101 		addi	s0,sp,16
 1167              		.cfi_def_cfa 8, 0
 1168 04b4 93050500 		mv	a1,a0
 258:src/syscall_c.cpp ****     abi_invoker(SEM_CLOSE, handle);
 1169              		.loc 1 258 5
 1170              		.loc 1 258 16 is_stmt 0
 1171 04b8 13052002 		li	a0,34
 1172              	.LVL107:
 1173 04bc 97000000 		call	_Z11abi_invokeriz
 1173      E7800000 
 1174              	.LVL108:
 259:src/syscall_c.cpp **** 
 260:src/syscall_c.cpp ****     int ret;
 1175              		.loc 1 260 5 is_stmt 1
 261:src/syscall_c.cpp ****     __asm__ volatile ("mv a0, %0": "=r"(ret));
 1176              		.loc 1 261 5
 1177              		.loc 1 261 46 is_stmt 0
 1178              	#APP
 1179              	# 261 "src/syscall_c.cpp" 1
 262              	    return ret;
 1180              		mv a0, a0
 1181              	# 0 "" 2
 1182              	.LVL109:
 1183              		.loc 1 262 5 is_stmt 1
 263:src/syscall_c.cpp **** }
 1184              		.loc 1 263 1 is_stmt 0
 1185              	#NO_APP
 1186 04c8 1B050500 		sext.w	a0,a0
 1187 04cc 83308100 		ld	ra,8(sp)
 1188              		.cfi_restore 1
 1189 04d0 03340100 		ld	s0,0(sp)
 1190              		.cfi_restore 8
GAS LISTING /tmp/ccALIodx.s 			page 33


 1191              		.cfi_def_cfa 2, 16
 1192 04d4 13010101 		addi	sp,sp,16
 1193              		.cfi_def_cfa_offset 0
 1194 04d8 67800000 		jr	ra
 1195              		.cfi_endproc
 1196              	.LFE56:
 1198              		.align	2
 1199              		.globl	_Z8sem_waitP4_sem
 1201              	_Z8sem_waitP4_sem:
 1202              	.LFB57:
 264:src/syscall_c.cpp **** 
 265:src/syscall_c.cpp **** int sem_wait(sem_t id){
 1203              		.loc 1 265 23 is_stmt 1
 1204              		.cfi_startproc
 1205              	.LVL110:
 1206 04dc 130101FF 		addi	sp,sp,-16
 1207              		.cfi_def_cfa_offset 16
 1208 04e0 23341100 		sd	ra,8(sp)
 1209 04e4 23308100 		sd	s0,0(sp)
 1210              		.cfi_offset 1, -8
 1211              		.cfi_offset 8, -16
 1212 04e8 13040101 		addi	s0,sp,16
 1213              		.cfi_def_cfa 8, 0
 1214 04ec 93050500 		mv	a1,a0
 266:src/syscall_c.cpp ****     abi_invoker(SEM_WAIT, id);
 1215              		.loc 1 266 5
 1216              		.loc 1 266 16 is_stmt 0
 1217 04f0 13053002 		li	a0,35
 1218              	.LVL111:
 1219 04f4 97000000 		call	_Z11abi_invokeriz
 1219      E7800000 
 1220              	.LVL112:
 267:src/syscall_c.cpp **** 
 268:src/syscall_c.cpp ****     int ret;
 1221              		.loc 1 268 5 is_stmt 1
 269:src/syscall_c.cpp ****     __asm__ volatile ("mv a0, %0": "=r"(ret));
 1222              		.loc 1 269 5
 1223              		.loc 1 269 46 is_stmt 0
 1224              	#APP
 1225              	# 269 "src/syscall_c.cpp" 1
 270              	    return ret;
 1226              		mv a0, a0
 1227              	# 0 "" 2
 1228              	.LVL113:
 1229              		.loc 1 270 5 is_stmt 1
 271:src/syscall_c.cpp **** }
 1230              		.loc 1 271 1 is_stmt 0
 1231              	#NO_APP
 1232 0500 1B050500 		sext.w	a0,a0
 1233 0504 83308100 		ld	ra,8(sp)
 1234              		.cfi_restore 1
 1235 0508 03340100 		ld	s0,0(sp)
 1236              		.cfi_restore 8
 1237              		.cfi_def_cfa 2, 16
 1238 050c 13010101 		addi	sp,sp,16
 1239              		.cfi_def_cfa_offset 0
 1240 0510 67800000 		jr	ra
GAS LISTING /tmp/ccALIodx.s 			page 34


 1241              		.cfi_endproc
 1242              	.LFE57:
 1244              		.align	2
 1245              		.globl	_Z10sem_signalP4_sem
 1247              	_Z10sem_signalP4_sem:
 1248              	.LFB58:
 272:src/syscall_c.cpp **** 
 273:src/syscall_c.cpp **** int sem_signal(sem_t id){
 1249              		.loc 1 273 25 is_stmt 1
 1250              		.cfi_startproc
 1251              	.LVL114:
 1252 0514 130101FF 		addi	sp,sp,-16
 1253              		.cfi_def_cfa_offset 16
 1254 0518 23341100 		sd	ra,8(sp)
 1255 051c 23308100 		sd	s0,0(sp)
 1256              		.cfi_offset 1, -8
 1257              		.cfi_offset 8, -16
 1258 0520 13040101 		addi	s0,sp,16
 1259              		.cfi_def_cfa 8, 0
 1260 0524 93050500 		mv	a1,a0
 274:src/syscall_c.cpp ****     abi_invoker(SEM_SIGNAL, id);
 1261              		.loc 1 274 5
 1262              		.loc 1 274 16 is_stmt 0
 1263 0528 13054002 		li	a0,36
 1264              	.LVL115:
 1265 052c 97000000 		call	_Z11abi_invokeriz
 1265      E7800000 
 1266              	.LVL116:
 275:src/syscall_c.cpp **** 
 276:src/syscall_c.cpp ****     int ret;
 1267              		.loc 1 276 5 is_stmt 1
 277:src/syscall_c.cpp ****     __asm__ volatile ("mv a0, %0": "=r"(ret));
 1268              		.loc 1 277 5
 1269              		.loc 1 277 46 is_stmt 0
 1270              	#APP
 1271              	# 277 "src/syscall_c.cpp" 1
 278              	    return ret;
 1272              		mv a0, a0
 1273              	# 0 "" 2
 1274              	.LVL117:
 1275              		.loc 1 278 5 is_stmt 1
 279:src/syscall_c.cpp **** }
 1276              		.loc 1 279 1 is_stmt 0
 1277              	#NO_APP
 1278 0538 1B050500 		sext.w	a0,a0
 1279 053c 83308100 		ld	ra,8(sp)
 1280              		.cfi_restore 1
 1281 0540 03340100 		ld	s0,0(sp)
 1282              		.cfi_restore 8
 1283              		.cfi_def_cfa 2, 16
 1284 0544 13010101 		addi	sp,sp,16
 1285              		.cfi_def_cfa_offset 0
 1286 0548 67800000 		jr	ra
 1287              		.cfi_endproc
 1288              	.LFE58:
 1290              		.align	2
 1291              		.globl	_Z4putcc
GAS LISTING /tmp/ccALIodx.s 			page 35


 1293              	_Z4putcc:
 1294              	.LFB59:
 280:src/syscall_c.cpp **** 
 281:src/syscall_c.cpp **** void putc(char c){
 1295              		.loc 1 281 18 is_stmt 1
 1296              		.cfi_startproc
 1297              	.LVL118:
 1298 054c 130101FF 		addi	sp,sp,-16
 1299              		.cfi_def_cfa_offset 16
 1300 0550 23341100 		sd	ra,8(sp)
 1301 0554 23308100 		sd	s0,0(sp)
 1302              		.cfi_offset 1, -8
 1303              		.cfi_offset 8, -16
 1304 0558 13040101 		addi	s0,sp,16
 1305              		.cfi_def_cfa 8, 0
 1306 055c 93050500 		mv	a1,a0
 282:src/syscall_c.cpp ****     abi_invoker(PUTC, c);
 1307              		.loc 1 282 5
 1308              		.loc 1 282 16 is_stmt 0
 1309 0560 13052004 		li	a0,66
 1310              	.LVL119:
 1311 0564 97000000 		call	_Z11abi_invokeriz
 1311      E7800000 
 1312              	.LVL120:
 283:src/syscall_c.cpp **** }
 1313              		.loc 1 283 1
 1314 056c 83308100 		ld	ra,8(sp)
 1315              		.cfi_restore 1
 1316 0570 03340100 		ld	s0,0(sp)
 1317              		.cfi_restore 8
 1318              		.cfi_def_cfa 2, 16
 1319 0574 13010101 		addi	sp,sp,16
 1320              		.cfi_def_cfa_offset 0
 1321 0578 67800000 		jr	ra
 1322              		.cfi_endproc
 1323              	.LFE59:
 1325              		.align	2
 1326              		.globl	_Z4getcv
 1328              	_Z4getcv:
 1329              	.LFB60:
 284:src/syscall_c.cpp **** 
 285:src/syscall_c.cpp **** char getc(){
 1330              		.loc 1 285 12 is_stmt 1
 1331              		.cfi_startproc
 1332 057c 130101FF 		addi	sp,sp,-16
 1333              		.cfi_def_cfa_offset 16
 1334 0580 23341100 		sd	ra,8(sp)
 1335 0584 23308100 		sd	s0,0(sp)
 1336              		.cfi_offset 1, -8
 1337              		.cfi_offset 8, -16
 1338 0588 13040101 		addi	s0,sp,16
 1339              		.cfi_def_cfa 8, 0
 286:src/syscall_c.cpp ****     abi_invoker(GETC);
 1340              		.loc 1 286 5
 1341              		.loc 1 286 16 is_stmt 0
 1342 058c 13051004 		li	a0,65
 1343 0590 97000000 		call	_Z11abi_invokeriz
GAS LISTING /tmp/ccALIodx.s 			page 36


 1343      E7800000 
 1344              	.LVL121:
 287:src/syscall_c.cpp ****     char ret;
 1345              		.loc 1 287 5 is_stmt 1
 288:src/syscall_c.cpp ****     __asm__ volatile ("mv %0, a0": "=r"(ret));
 1346              		.loc 1 288 5
 1347              		.loc 1 288 46 is_stmt 0
 1348              	#APP
 1349              	# 288 "src/syscall_c.cpp" 1
 289              	    return ret;
 1350              		mv a0, a0
 1351              	# 0 "" 2
 1352              	.LVL122:
 1353              		.loc 1 289 5 is_stmt 1
 290:src/syscall_c.cpp **** }...
 1354              		.loc 1 290 1 is_stmt 0
 1355              	#NO_APP
 1356 059c 1375F50F 		andi	a0,a0,0xff
 1357 05a0 83308100 		ld	ra,8(sp)
 1358              		.cfi_restore 1
 1359 05a4 03340100 		ld	s0,0(sp)
 1360              		.cfi_restore 8
 1361              		.cfi_def_cfa 2, 16
 1362 05a8 13010101 		addi	sp,sp,16
 1363              		.cfi_def_cfa_offset 0
 1364 05ac 67800000 		jr	ra
 1365              		.cfi_endproc
 1366              	.LFE60:
 1368              	.Letext0:
 1369              		.file 3 "src/../h/../lib/hw.h"
 1370              		.file 4 "src/../h/MemoryAllocator.h"
 1371              		.file 5 "src/../h/_thread.h"
 1372              		.file 6 "src/../h/syscall_c.h"
 1373              		.file 7 "src/../h/_sem.h"
 1374              		.file 8 "src/../h/Blocked.h"
 1375              		.file 9 "src/../lib/console.h"
GAS LISTING /tmp/ccALIodx.s 			page 37


DEFINED SYMBOLS
                            *ABS*:0000000000000000 syscall_c.cpp
     /tmp/ccALIodx.s:9      .text:0000000000000000 _Z11abi_invokeriz
     /tmp/ccALIodx.s:13     .text:0000000000000000 .L0 
     /tmp/ccALIodx.s:15     .text:0000000000000000 .L0 
     /tmp/ccALIodx.s:16     .text:0000000000000004 .L0 
     /tmp/ccALIodx.s:18     .text:0000000000000008 .L0 
     /tmp/ccALIodx.s:20     .text:000000000000000c .L0 
     /tmp/ccALIodx.s:29     .text:0000000000000028 .L0 
   src/syscall_c.cpp:33     .text:0000000000000028 .L0 
     /tmp/ccALIodx.s:36     .text:000000000000002c .L0 
     /tmp/ccALIodx.s:37     .text:0000000000000030 .L0 
     /tmp/ccALIodx.s:38     .text:0000000000000030 .L0 
     /tmp/ccALIodx.s:40     .text:0000000000000034 .L0 
     /tmp/ccALIodx.s:42     .text:0000000000000038 .L0 
     /tmp/ccALIodx.s:48     .text:0000000000000038 trapHandler
     /tmp/ccALIodx.s:51     .text:0000000000000038 .L0 
     /tmp/ccALIodx.s:52     .text:0000000000000038 .L0 
     /tmp/ccALIodx.s:53     .text:000000000000003c .L0 
     /tmp/ccALIodx.s:57     .text:0000000000000048 .L0 
     /tmp/ccALIodx.s:58     .text:0000000000000048 .L0 
     /tmp/ccALIodx.s:59     .text:0000000000000048 .L0 
     /tmp/ccALIodx.s:61     .text:000000000000004c .L0 
     /tmp/ccALIodx.s:66     .text:000000000000004c .L0 
     /tmp/ccALIodx.s:67     .text:000000000000004c .L0 
     /tmp/ccALIodx.s:68     .text:000000000000004c .L0 
    src/../h/riscv.h:98     .text:000000000000004c .L0 
     /tmp/ccALIodx.s:78     .text:0000000000000050 .L0 
     /tmp/ccALIodx.s:80     .text:0000000000000050 .L0 
     /tmp/ccALIodx.s:81     .text:0000000000000050 .L0 
     /tmp/ccALIodx.s:83     .text:0000000000000054 .L0 
     /tmp/ccALIodx.s:86     .text:000000000000005c .L0 
     /tmp/ccALIodx.s:91     .text:000000000000006c .L0 
     /tmp/ccALIodx.s:96     .text:000000000000007c .L0 
     /tmp/ccALIodx.s:97     .text:000000000000007c .L0 
     /tmp/ccALIodx.s:101    .text:0000000000000084 .L0 
     /tmp/ccALIodx.s:107    .text:0000000000000088 .L0 
     /tmp/ccALIodx.s:108    .text:0000000000000088 .L0 
     /tmp/ccALIodx.s:110    .text:000000000000008c .L0 
   src/syscall_c.cpp:43     .text:000000000000008c .L0 
     /tmp/ccALIodx.s:118    .text:0000000000000094 .L0 
     /tmp/ccALIodx.s:119    .text:0000000000000094 .L0 
     /tmp/ccALIodx.s:125    .text:00000000000000a0 .L0 
     /tmp/ccALIodx.s:126    .text:00000000000000a0 .L0 
     /tmp/ccALIodx.s:127    .text:00000000000000a0 .L0 
    src/../h/riscv.h:178    .text:00000000000000a0 .L0 
     /tmp/ccALIodx.s:135    .text:00000000000000a8 .L0 
     /tmp/ccALIodx.s:136    .text:00000000000000a8 .L0 
     /tmp/ccALIodx.s:140    .text:00000000000000ac .L0 
     /tmp/ccALIodx.s:142    .text:00000000000000b0 .L0 
     /tmp/ccALIodx.s:143    .text:00000000000000b0 .L0 
   src/syscall_c.cpp:49     .text:00000000000000b0 .L0 
     /tmp/ccALIodx.s:151    .text:00000000000000b4 .L0 
     /tmp/ccALIodx.s:237    .text:00000000000000d8 .L0 
     /tmp/ccALIodx.s:239    .text:00000000000000d8 .L0 
     /tmp/ccALIodx.s:240    .text:00000000000000d8 .L0 
     /tmp/ccALIodx.s:241    .text:00000000000000d8 .L0 
GAS LISTING /tmp/ccALIodx.s 			page 38


   src/syscall_c.cpp:55     .text:00000000000000d8 .L0 
     /tmp/ccALIodx.s:248    .text:00000000000000dc .L0 
     /tmp/ccALIodx.s:250    .text:00000000000000dc .L0 
     /tmp/ccALIodx.s:253    .text:00000000000000e4 .L0 
     /tmp/ccALIodx.s:257    .text:00000000000000f0 .L0 
   src/syscall_c.cpp:58     .text:00000000000000f0 .L0 
     /tmp/ccALIodx.s:263    .text:00000000000000f4 .L0 
   src/syscall_c.cpp:60     .text:00000000000000f4 .L0 
     /tmp/ccALIodx.s:274    .text:00000000000000f8 .L0 
     /tmp/ccALIodx.s:275    .text:00000000000000f8 .L0 
     /tmp/ccALIodx.s:276    .text:00000000000000f8 .L0 
     /tmp/ccALIodx.s:281    .text:00000000000000fc .L0 
    src/../h/riscv.h:116    .text:00000000000000fc .L0 
     /tmp/ccALIodx.s:291    .text:0000000000000100 .L0 
     /tmp/ccALIodx.s:292    .text:0000000000000100 .L0 
     /tmp/ccALIodx.s:297    .text:0000000000000104 .L0 
    src/../h/riscv.h:184    .text:0000000000000104 .L0 
     /tmp/ccALIodx.s:310    .text:0000000000000108 .L0 
     /tmp/ccALIodx.s:311    .text:000000000000010c .L0 
     /tmp/ccALIodx.s:312    .text:000000000000010c .L0 
     /tmp/ccALIodx.s:314    .text:0000000000000110 .L0 
     /tmp/ccALIodx.s:315    .text:0000000000000110 .L0 
     /tmp/ccALIodx.s:317    .text:0000000000000114 .L0 
     /tmp/ccALIodx.s:319    .text:0000000000000118 .L0 
     /tmp/ccALIodx.s:323    .text:000000000000011c .L0 
     /tmp/ccALIodx.s:329    .text:000000000000011c .L0 
     /tmp/ccALIodx.s:331    .text:000000000000011c .L0 
     /tmp/ccALIodx.s:332    .text:000000000000011c .L0 
     /tmp/ccALIodx.s:333    .text:000000000000011c .L0 
   src/syscall_c.cpp:65     .text:000000000000011c .L0 
     /tmp/ccALIodx.s:340    .text:0000000000000120 .L0 
     /tmp/ccALIodx.s:342    .text:0000000000000120 .L0 
     /tmp/ccALIodx.s:345    .text:0000000000000128 .L0 
     /tmp/ccALIodx.s:350    .text:000000000000012c .L0 
     /tmp/ccALIodx.s:352    .text:000000000000012c .L0 
     /tmp/ccALIodx.s:353    .text:000000000000012c .L0 
   src/syscall_c.cpp:70     .text:000000000000012c .L0 
     /tmp/ccALIodx.s:359    .text:0000000000000130 .L0 
   src/syscall_c.cpp:71     .text:0000000000000130 .L0 
     /tmp/ccALIodx.s:364    .text:0000000000000134 .L0 
   src/syscall_c.cpp:72     .text:0000000000000134 .L0 
     /tmp/ccALIodx.s:370    .text:0000000000000138 .L0 
     /tmp/ccALIodx.s:371    .text:0000000000000138 .L0 
   src/syscall_c.cpp:74     .text:0000000000000138 .L0 
     /tmp/ccALIodx.s:377    .text:000000000000013c .L0 
     /tmp/ccALIodx.s:378    .text:000000000000013c .L0 
   src/syscall_c.cpp:76     .text:000000000000013c .L0 
     /tmp/ccALIodx.s:384    .text:0000000000000140 .L0 
     /tmp/ccALIodx.s:385    .text:0000000000000140 .L0 
   src/syscall_c.cpp:78     .text:0000000000000140 .L0 
     /tmp/ccALIodx.s:391    .text:0000000000000144 .L0 
     /tmp/ccALIodx.s:393    .text:0000000000000144 .L0 
     /tmp/ccALIodx.s:396    .text:000000000000014c .L0 
     /tmp/ccALIodx.s:398    .text:0000000000000150 .L0 
     /tmp/ccALIodx.s:399    .text:0000000000000150 .L0 
     /tmp/ccALIodx.s:402    .text:0000000000000158 .L0 
     /tmp/ccALIodx.s:403    .text:0000000000000158 .L0 
GAS LISTING /tmp/ccALIodx.s 			page 39


     /tmp/ccALIodx.s:405    .text:000000000000015c .L0 
     /tmp/ccALIodx.s:409    .text:0000000000000160 .L0 
   src/syscall_c.cpp:86     .text:0000000000000160 .L0 
     /tmp/ccALIodx.s:416    .text:0000000000000164 .L0 
     /tmp/ccALIodx.s:420    .text:0000000000000168 .L0 
     /tmp/ccALIodx.s:426    .text:0000000000000170 .L0 
     /tmp/ccALIodx.s:427    .text:0000000000000170 .L0 
     /tmp/ccALIodx.s:428    .text:0000000000000170 .L0 
     /tmp/ccALIodx.s:429    .text:0000000000000170 .L0 
     /tmp/ccALIodx.s:432    .text:0000000000000178 .L0 
     /tmp/ccALIodx.s:436    .text:000000000000017c .L0 
     /tmp/ccALIodx.s:437    .text:000000000000017c .L0 
     /tmp/ccALIodx.s:438    .text:000000000000017c .L0 
     /tmp/ccALIodx.s:439    .text:000000000000017c .L0 
     /tmp/ccALIodx.s:442    .text:0000000000000184 .L0 
     /tmp/ccALIodx.s:446    .text:0000000000000188 .L0 
     /tmp/ccALIodx.s:448    .text:0000000000000188 .L0 
     /tmp/ccALIodx.s:449    .text:0000000000000188 .L0 
   src/syscall_c.cpp:99     .text:0000000000000188 .L0 
     /tmp/ccALIodx.s:455    .text:000000000000018c .L0 
   src/syscall_c.cpp:100    .text:000000000000018c .L0 
     /tmp/ccALIodx.s:460    .text:0000000000000190 .L0 
   src/syscall_c.cpp:101    .text:0000000000000190 .L0 
     /tmp/ccALIodx.s:466    .text:0000000000000194 .L0 
     /tmp/ccALIodx.s:467    .text:0000000000000194 .L0 
   src/syscall_c.cpp:103    .text:0000000000000194 .L0 
     /tmp/ccALIodx.s:473    .text:0000000000000198 .L0 
     /tmp/ccALIodx.s:474    .text:0000000000000198 .L0 
   src/syscall_c.cpp:105    .text:0000000000000198 .L0 
     /tmp/ccALIodx.s:480    .text:000000000000019c .L0 
     /tmp/ccALIodx.s:481    .text:000000000000019c .L0 
   src/syscall_c.cpp:107    .text:000000000000019c .L0 
     /tmp/ccALIodx.s:487    .text:00000000000001a0 .L0 
     /tmp/ccALIodx.s:489    .text:00000000000001a0 .L0 
     /tmp/ccALIodx.s:492    .text:00000000000001a8 .L0 
     /tmp/ccALIodx.s:495    .text:00000000000001ac .L0 
     /tmp/ccALIodx.s:496    .text:00000000000001ac .L0 
     /tmp/ccALIodx.s:498    .text:00000000000001b0 .L0 
     /tmp/ccALIodx.s:502    .text:00000000000001b4 .L0 
   src/syscall_c.cpp:113    .text:00000000000001b4 .L0 
     /tmp/ccALIodx.s:509    .text:00000000000001b8 .L0 
     /tmp/ccALIodx.s:513    .text:00000000000001bc .L0 
     /tmp/ccALIodx.s:519    .text:00000000000001c4 .L0 
     /tmp/ccALIodx.s:521    .text:00000000000001c4 .L0 
     /tmp/ccALIodx.s:522    .text:00000000000001c4 .L0 
     /tmp/ccALIodx.s:523    .text:00000000000001c4 .L0 
   src/syscall_c.cpp:117    .text:00000000000001c4 .L0 
     /tmp/ccALIodx.s:530    .text:00000000000001c8 .L0 
     /tmp/ccALIodx.s:532    .text:00000000000001c8 .L0 
     /tmp/ccALIodx.s:535    .text:00000000000001d0 .L0 
     /tmp/ccALIodx.s:540    .text:00000000000001d4 .L0 
     /tmp/ccALIodx.s:542    .text:00000000000001d4 .L0 
     /tmp/ccALIodx.s:543    .text:00000000000001d4 .L0 
     /tmp/ccALIodx.s:544    .text:00000000000001d4 .L0 
   src/syscall_c.cpp:123    .text:00000000000001d4 .L0 
     /tmp/ccALIodx.s:551    .text:00000000000001d8 .L0 
     /tmp/ccALIodx.s:552    .text:00000000000001d8 .L0 
GAS LISTING /tmp/ccALIodx.s 			page 40


   src/syscall_c.cpp:125    .text:00000000000001d8 .L0 
     /tmp/ccALIodx.s:558    .text:00000000000001dc .L0 
     /tmp/ccALIodx.s:560    .text:00000000000001dc .L0 
     /tmp/ccALIodx.s:564    .text:00000000000001e8 .L0 
     /tmp/ccALIodx.s:566    .text:00000000000001ec .L0 
   src/syscall_c.cpp:128    .text:00000000000001ec .L0 
     /tmp/ccALIodx.s:573    .text:00000000000001f0 .L0 
     /tmp/ccALIodx.s:578    .text:00000000000001f4 .L0 
     /tmp/ccALIodx.s:580    .text:00000000000001f4 .L0 
     /tmp/ccALIodx.s:581    .text:00000000000001f4 .L0 
     /tmp/ccALIodx.s:582    .text:00000000000001f4 .L0 
   src/syscall_c.cpp:133    .text:00000000000001f4 .L0 
     /tmp/ccALIodx.s:589    .text:00000000000001f8 .L0 
     /tmp/ccALIodx.s:591    .text:00000000000001f8 .L0 
     /tmp/ccALIodx.s:594    .text:0000000000000200 .L0 
   src/syscall_c.cpp:136    .text:0000000000000200 .L0 
     /tmp/ccALIodx.s:601    .text:0000000000000204 .L0 
     /tmp/ccALIodx.s:606    .text:0000000000000208 .L0 
     /tmp/ccALIodx.s:608    .text:0000000000000208 .L0 
     /tmp/ccALIodx.s:609    .text:0000000000000208 .L0 
     /tmp/ccALIodx.s:610    .text:0000000000000208 .L0 
   src/syscall_c.cpp:141    .text:0000000000000208 .L0 
     /tmp/ccALIodx.s:617    .text:000000000000020c .L0 
     /tmp/ccALIodx.s:619    .text:000000000000020c .L0 
     /tmp/ccALIodx.s:622    .text:0000000000000214 .L0 
   src/syscall_c.cpp:144    .text:0000000000000214 .L0 
     /tmp/ccALIodx.s:629    .text:0000000000000218 .L0 
     /tmp/ccALIodx.s:634    .text:000000000000021c .L0 
     /tmp/ccALIodx.s:636    .text:000000000000021c .L0 
     /tmp/ccALIodx.s:637    .text:000000000000021c .L0 
     /tmp/ccALIodx.s:638    .text:000000000000021c .L0 
   src/syscall_c.cpp:149    .text:000000000000021c .L0 
     /tmp/ccALIodx.s:645    .text:0000000000000220 .L0 
     /tmp/ccALIodx.s:647    .text:0000000000000220 .L0 
     /tmp/ccALIodx.s:650    .text:0000000000000228 .L0 
   src/syscall_c.cpp:152    .text:0000000000000228 .L0 
     /tmp/ccALIodx.s:657    .text:000000000000022c .L0 
     /tmp/ccALIodx.s:662    .text:0000000000000230 .L0 
     /tmp/ccALIodx.s:664    .text:0000000000000230 .L0 
     /tmp/ccALIodx.s:665    .text:0000000000000230 .L0 
     /tmp/ccALIodx.s:666    .text:0000000000000230 .L0 
   src/syscall_c.cpp:157    .text:0000000000000230 .L0 
     /tmp/ccALIodx.s:673    .text:0000000000000234 .L0 
     /tmp/ccALIodx.s:675    .text:0000000000000234 .L0 
     /tmp/ccALIodx.s:679    .text:0000000000000240 .L0 
     /tmp/ccALIodx.s:684    .text:0000000000000244 .L0 
     /tmp/ccALIodx.s:686    .text:0000000000000244 .L0 
     /tmp/ccALIodx.s:687    .text:0000000000000244 .L0 
     /tmp/ccALIodx.s:688    .text:0000000000000244 .L0 
     /tmp/ccALIodx.s:691    .text:000000000000024c .L0 
   src/syscall_c.cpp:163    .text:000000000000024c .L0 
     /tmp/ccALIodx.s:697    .text:0000000000000250 .L0 
   src/syscall_c.cpp:164    .text:0000000000000250 .L0 
     /tmp/ccALIodx.s:703    .text:0000000000000254 .L0 
     /tmp/ccALIodx.s:713    .text:0000000000000258 .L0 
     /tmp/ccALIodx.s:714    .text:0000000000000258 .L0 
     /tmp/ccALIodx.s:715    .text:0000000000000258 .L0 
GAS LISTING /tmp/ccALIodx.s 			page 41


     /tmp/ccALIodx.s:722    .text:0000000000000260 .L0 
     /tmp/ccALIodx.s:726    .text:0000000000000264 .L0 
     /tmp/ccALIodx.s:732    .text:0000000000000264 _Z9mem_allocm
     /tmp/ccALIodx.s:735    .text:0000000000000264 .L0 
     /tmp/ccALIodx.s:737    .text:0000000000000264 .L0 
     /tmp/ccALIodx.s:738    .text:0000000000000268 .L0 
     /tmp/ccALIodx.s:741    .text:0000000000000270 .L0 
     /tmp/ccALIodx.s:742    .text:0000000000000270 .L0 
     /tmp/ccALIodx.s:744    .text:0000000000000274 .L0 
     /tmp/ccALIodx.s:746    .text:0000000000000274 .L0 
     /tmp/ccALIodx.s:747    .text:0000000000000274 .L0 
     /tmp/ccALIodx.s:750    .text:0000000000000278 .L0 
     /tmp/ccALIodx.s:752    .text:000000000000027c .L0 
     /tmp/ccALIodx.s:755    .text:0000000000000280 .L0 
     /tmp/ccALIodx.s:760    .text:0000000000000288 .L0 
     /tmp/ccALIodx.s:761    .text:0000000000000288 .L0 
     /tmp/ccALIodx.s:767    .text:0000000000000298 .L0 
     /tmp/ccALIodx.s:768    .text:0000000000000298 .L0 
   src/syscall_c.cpp:194    .text:0000000000000298 .L0 
     /tmp/ccALIodx.s:775    .text:000000000000029c .L0 
     /tmp/ccALIodx.s:777    .text:000000000000029c .L0 
     /tmp/ccALIodx.s:778    .text:00000000000002a0 .L0 
     /tmp/ccALIodx.s:780    .text:00000000000002a4 .L0 
     /tmp/ccALIodx.s:781    .text:00000000000002a4 .L0 
     /tmp/ccALIodx.s:783    .text:00000000000002a8 .L0 
     /tmp/ccALIodx.s:785    .text:00000000000002ac .L0 
     /tmp/ccALIodx.s:791    .text:00000000000002ac _Z8mem_freePv
     /tmp/ccALIodx.s:794    .text:00000000000002ac .L0 
     /tmp/ccALIodx.s:796    .text:00000000000002ac .L0 
     /tmp/ccALIodx.s:797    .text:00000000000002b0 .L0 
     /tmp/ccALIodx.s:800    .text:00000000000002b8 .L0 
     /tmp/ccALIodx.s:801    .text:00000000000002b8 .L0 
     /tmp/ccALIodx.s:803    .text:00000000000002bc .L0 
     /tmp/ccALIodx.s:806    .text:00000000000002c0 .L0 
     /tmp/ccALIodx.s:807    .text:00000000000002c0 .L0 
     /tmp/ccALIodx.s:812    .text:00000000000002cc .L0 
     /tmp/ccALIodx.s:813    .text:00000000000002cc .L0 
   src/syscall_c.cpp:204    .text:00000000000002cc .L0 
     /tmp/ccALIodx.s:820    .text:00000000000002d0 .L0 
     /tmp/ccALIodx.s:822    .text:00000000000002d0 .L0 
     /tmp/ccALIodx.s:825    .text:00000000000002d8 .L0 
     /tmp/ccALIodx.s:827    .text:00000000000002dc .L0 
     /tmp/ccALIodx.s:828    .text:00000000000002dc .L0 
     /tmp/ccALIodx.s:830    .text:00000000000002e0 .L0 
     /tmp/ccALIodx.s:832    .text:00000000000002e4 .L0 
     /tmp/ccALIodx.s:838    .text:00000000000002e4 _Z11thread_exitv
     /tmp/ccALIodx.s:841    .text:00000000000002e4 .L0 
     /tmp/ccALIodx.s:842    .text:00000000000002e4 .L0 
     /tmp/ccALIodx.s:843    .text:00000000000002e8 .L0 
     /tmp/ccALIodx.s:846    .text:00000000000002f0 .L0 
     /tmp/ccALIodx.s:847    .text:00000000000002f0 .L0 
     /tmp/ccALIodx.s:849    .text:00000000000002f4 .L0 
     /tmp/ccALIodx.s:851    .text:00000000000002f4 .L0 
     /tmp/ccALIodx.s:852    .text:00000000000002f4 .L0 
     /tmp/ccALIodx.s:856    .text:0000000000000300 .L0 
     /tmp/ccALIodx.s:857    .text:0000000000000300 .L0 
   src/syscall_c.cpp:214    .text:0000000000000300 .L0 
GAS LISTING /tmp/ccALIodx.s 			page 42


     /tmp/ccALIodx.s:864    .text:0000000000000304 .L0 
     /tmp/ccALIodx.s:866    .text:0000000000000304 .L0 
     /tmp/ccALIodx.s:869    .text:000000000000030c .L0 
     /tmp/ccALIodx.s:871    .text:0000000000000310 .L0 
     /tmp/ccALIodx.s:872    .text:0000000000000310 .L0 
     /tmp/ccALIodx.s:874    .text:0000000000000314 .L0 
     /tmp/ccALIodx.s:876    .text:0000000000000318 .L0 
     /tmp/ccALIodx.s:882    .text:0000000000000318 _Z13thread_createPP7_threadPFvPvES2_
     /tmp/ccALIodx.s:885    .text:0000000000000318 .L0 
     /tmp/ccALIodx.s:887    .text:0000000000000318 .L0 
     /tmp/ccALIodx.s:888    .text:000000000000031c .L0 
     /tmp/ccALIodx.s:894    .text:0000000000000330 .L0 
     /tmp/ccALIodx.s:895    .text:0000000000000330 .L0 
     /tmp/ccALIodx.s:896    .text:0000000000000330 .L0 
     /tmp/ccALIodx.s:897    .text:0000000000000330 .L0 
     /tmp/ccALIodx.s:898    .text:0000000000000330 .L0 
     /tmp/ccALIodx.s:900    .text:0000000000000334 .L0 
     /tmp/ccALIodx.s:905    .text:0000000000000340 .L0 
     /tmp/ccALIodx.s:906    .text:0000000000000340 .L0 
     /tmp/ccALIodx.s:911    .text:000000000000034c .L0 
     /tmp/ccALIodx.s:914    .text:0000000000000354 .L0 
     /tmp/ccALIodx.s:915    .text:0000000000000354 .L0 
     /tmp/ccALIodx.s:923    .text:000000000000036c .L0 
     /tmp/ccALIodx.s:924    .text:000000000000036c .L0 
   src/syscall_c.cpp:225    .text:000000000000036c .L0 
     /tmp/ccALIodx.s:934    .text:0000000000000374 .L0 
     /tmp/ccALIodx.s:935    .text:0000000000000374 .L0 
     /tmp/ccALIodx.s:936    .text:0000000000000378 .L0 
     /tmp/ccALIodx.s:937    .text:0000000000000378 .L0 
     /tmp/ccALIodx.s:939    .text:000000000000037c .L0 
     /tmp/ccALIodx.s:940    .text:000000000000037c .L0 
     /tmp/ccALIodx.s:942    .text:0000000000000380 .L0 
     /tmp/ccALIodx.s:945    .text:0000000000000384 .L0 
     /tmp/ccALIodx.s:948    .text:0000000000000388 .L0 
     /tmp/ccALIodx.s:951    .text:000000000000038c .L0 
     /tmp/ccALIodx.s:955    .text:0000000000000390 .L0 
     /tmp/ccALIodx.s:957    .text:0000000000000390 .L0 
     /tmp/ccALIodx.s:960    .text:0000000000000398 .L0 
     /tmp/ccALIodx.s:966    .text:0000000000000398 _Z15thread_dispatchv
     /tmp/ccALIodx.s:969    .text:0000000000000398 .L0 
     /tmp/ccALIodx.s:970    .text:0000000000000398 .L0 
     /tmp/ccALIodx.s:971    .text:000000000000039c .L0 
     /tmp/ccALIodx.s:974    .text:00000000000003a4 .L0 
     /tmp/ccALIodx.s:975    .text:00000000000003a4 .L0 
     /tmp/ccALIodx.s:977    .text:00000000000003a8 .L0 
     /tmp/ccALIodx.s:979    .text:00000000000003a8 .L0 
     /tmp/ccALIodx.s:980    .text:00000000000003a8 .L0 
     /tmp/ccALIodx.s:984    .text:00000000000003b4 .L0 
     /tmp/ccALIodx.s:985    .text:00000000000003b8 .L0 
     /tmp/ccALIodx.s:987    .text:00000000000003bc .L0 
     /tmp/ccALIodx.s:988    .text:00000000000003bc .L0 
     /tmp/ccALIodx.s:990    .text:00000000000003c0 .L0 
     /tmp/ccALIodx.s:992    .text:00000000000003c4 .L0 
     /tmp/ccALIodx.s:998    .text:00000000000003c4 _Z18thread_create_onlyPP7_threadPFvPvES2_
     /tmp/ccALIodx.s:1001   .text:00000000000003c4 .L0 
     /tmp/ccALIodx.s:1003   .text:00000000000003c4 .L0 
     /tmp/ccALIodx.s:1004   .text:00000000000003c8 .L0 
GAS LISTING /tmp/ccALIodx.s 			page 43


     /tmp/ccALIodx.s:1010   .text:00000000000003dc .L0 
     /tmp/ccALIodx.s:1011   .text:00000000000003dc .L0 
     /tmp/ccALIodx.s:1012   .text:00000000000003dc .L0 
     /tmp/ccALIodx.s:1013   .text:00000000000003dc .L0 
     /tmp/ccALIodx.s:1014   .text:00000000000003dc .L0 
     /tmp/ccALIodx.s:1016   .text:00000000000003e0 .L0 
     /tmp/ccALIodx.s:1021   .text:00000000000003ec .L0 
     /tmp/ccALIodx.s:1022   .text:00000000000003ec .L0 
     /tmp/ccALIodx.s:1027   .text:00000000000003f8 .L0 
     /tmp/ccALIodx.s:1030   .text:0000000000000400 .L0 
     /tmp/ccALIodx.s:1031   .text:0000000000000400 .L0 
     /tmp/ccALIodx.s:1039   .text:0000000000000418 .L0 
     /tmp/ccALIodx.s:1040   .text:0000000000000418 .L0 
   src/syscall_c.cpp:242    .text:0000000000000418 .L0 
     /tmp/ccALIodx.s:1049   .text:000000000000041c .L0 
     /tmp/ccALIodx.s:1050   .text:0000000000000420 .L0 
     /tmp/ccALIodx.s:1052   .text:0000000000000424 .L0 
     /tmp/ccALIodx.s:1053   .text:0000000000000424 .L0 
     /tmp/ccALIodx.s:1055   .text:0000000000000428 .L0 
     /tmp/ccALIodx.s:1058   .text:000000000000042c .L0 
     /tmp/ccALIodx.s:1061   .text:0000000000000430 .L0 
     /tmp/ccALIodx.s:1064   .text:0000000000000434 .L0 
     /tmp/ccALIodx.s:1066   .text:0000000000000438 .L0 
     /tmp/ccALIodx.s:1072   .text:0000000000000438 _Z12thread_startP7_thread
     /tmp/ccALIodx.s:1075   .text:0000000000000438 .L0 
     /tmp/ccALIodx.s:1077   .text:0000000000000438 .L0 
     /tmp/ccALIodx.s:1078   .text:000000000000043c .L0 
     /tmp/ccALIodx.s:1081   .text:0000000000000444 .L0 
     /tmp/ccALIodx.s:1082   .text:0000000000000444 .L0 
     /tmp/ccALIodx.s:1084   .text:0000000000000448 .L0 
     /tmp/ccALIodx.s:1087   .text:000000000000044c .L0 
     /tmp/ccALIodx.s:1088   .text:000000000000044c .L0 
     /tmp/ccALIodx.s:1093   .text:0000000000000458 .L0 
     /tmp/ccALIodx.s:1094   .text:000000000000045c .L0 
     /tmp/ccALIodx.s:1096   .text:0000000000000460 .L0 
     /tmp/ccALIodx.s:1097   .text:0000000000000460 .L0 
     /tmp/ccALIodx.s:1099   .text:0000000000000464 .L0 
     /tmp/ccALIodx.s:1101   .text:0000000000000468 .L0 
     /tmp/ccALIodx.s:1107   .text:0000000000000468 _Z8sem_openPP4_semj
     /tmp/ccALIodx.s:1110   .text:0000000000000468 .L0 
     /tmp/ccALIodx.s:1112   .text:0000000000000468 .L0 
     /tmp/ccALIodx.s:1113   .text:000000000000046c .L0 
     /tmp/ccALIodx.s:1116   .text:0000000000000474 .L0 
     /tmp/ccALIodx.s:1117   .text:0000000000000474 .L0 
     /tmp/ccALIodx.s:1119   .text:0000000000000478 .L0 
     /tmp/ccALIodx.s:1122   .text:000000000000047c .L0 
     /tmp/ccALIodx.s:1123   .text:000000000000047c .L0 
     /tmp/ccALIodx.s:1130   .text:000000000000048c .L0 
     /tmp/ccALIodx.s:1131   .text:000000000000048c .L0 
   src/syscall_c.cpp:253    .text:000000000000048c .L0 
     /tmp/ccALIodx.s:1138   .text:0000000000000490 .L0 
     /tmp/ccALIodx.s:1140   .text:0000000000000490 .L0 
     /tmp/ccALIodx.s:1142   .text:0000000000000498 .L0 
     /tmp/ccALIodx.s:1144   .text:000000000000049c .L0 
     /tmp/ccALIodx.s:1145   .text:000000000000049c .L0 
     /tmp/ccALIodx.s:1147   .text:00000000000004a0 .L0 
     /tmp/ccALIodx.s:1149   .text:00000000000004a4 .L0 
GAS LISTING /tmp/ccALIodx.s 			page 44


     /tmp/ccALIodx.s:1155   .text:00000000000004a4 _Z9sem_closeP4_sem
     /tmp/ccALIodx.s:1158   .text:00000000000004a4 .L0 
     /tmp/ccALIodx.s:1160   .text:00000000000004a4 .L0 
     /tmp/ccALIodx.s:1161   .text:00000000000004a8 .L0 
     /tmp/ccALIodx.s:1164   .text:00000000000004b0 .L0 
     /tmp/ccALIodx.s:1165   .text:00000000000004b0 .L0 
     /tmp/ccALIodx.s:1167   .text:00000000000004b4 .L0 
     /tmp/ccALIodx.s:1170   .text:00000000000004b8 .L0 
     /tmp/ccALIodx.s:1171   .text:00000000000004b8 .L0 
     /tmp/ccALIodx.s:1176   .text:00000000000004c4 .L0 
     /tmp/ccALIodx.s:1177   .text:00000000000004c4 .L0 
   src/syscall_c.cpp:261    .text:00000000000004c4 .L0 
     /tmp/ccALIodx.s:1184   .text:00000000000004c8 .L0 
     /tmp/ccALIodx.s:1186   .text:00000000000004c8 .L0 
     /tmp/ccALIodx.s:1188   .text:00000000000004d0 .L0 
     /tmp/ccALIodx.s:1190   .text:00000000000004d4 .L0 
     /tmp/ccALIodx.s:1191   .text:00000000000004d4 .L0 
     /tmp/ccALIodx.s:1193   .text:00000000000004d8 .L0 
     /tmp/ccALIodx.s:1195   .text:00000000000004dc .L0 
     /tmp/ccALIodx.s:1201   .text:00000000000004dc _Z8sem_waitP4_sem
     /tmp/ccALIodx.s:1204   .text:00000000000004dc .L0 
     /tmp/ccALIodx.s:1206   .text:00000000000004dc .L0 
     /tmp/ccALIodx.s:1207   .text:00000000000004e0 .L0 
     /tmp/ccALIodx.s:1210   .text:00000000000004e8 .L0 
     /tmp/ccALIodx.s:1211   .text:00000000000004e8 .L0 
     /tmp/ccALIodx.s:1213   .text:00000000000004ec .L0 
     /tmp/ccALIodx.s:1216   .text:00000000000004f0 .L0 
     /tmp/ccALIodx.s:1217   .text:00000000000004f0 .L0 
     /tmp/ccALIodx.s:1222   .text:00000000000004fc .L0 
     /tmp/ccALIodx.s:1223   .text:00000000000004fc .L0 
   src/syscall_c.cpp:269    .text:00000000000004fc .L0 
     /tmp/ccALIodx.s:1230   .text:0000000000000500 .L0 
     /tmp/ccALIodx.s:1232   .text:0000000000000500 .L0 
     /tmp/ccALIodx.s:1234   .text:0000000000000508 .L0 
     /tmp/ccALIodx.s:1236   .text:000000000000050c .L0 
     /tmp/ccALIodx.s:1237   .text:000000000000050c .L0 
     /tmp/ccALIodx.s:1239   .text:0000000000000510 .L0 
     /tmp/ccALIodx.s:1241   .text:0000000000000514 .L0 
     /tmp/ccALIodx.s:1247   .text:0000000000000514 _Z10sem_signalP4_sem
     /tmp/ccALIodx.s:1250   .text:0000000000000514 .L0 
     /tmp/ccALIodx.s:1252   .text:0000000000000514 .L0 
     /tmp/ccALIodx.s:1253   .text:0000000000000518 .L0 
     /tmp/ccALIodx.s:1256   .text:0000000000000520 .L0 
     /tmp/ccALIodx.s:1257   .text:0000000000000520 .L0 
     /tmp/ccALIodx.s:1259   .text:0000000000000524 .L0 
     /tmp/ccALIodx.s:1262   .text:0000000000000528 .L0 
     /tmp/ccALIodx.s:1263   .text:0000000000000528 .L0 
     /tmp/ccALIodx.s:1268   .text:0000000000000534 .L0 
     /tmp/ccALIodx.s:1269   .text:0000000000000534 .L0 
   src/syscall_c.cpp:277    .text:0000000000000534 .L0 
     /tmp/ccALIodx.s:1276   .text:0000000000000538 .L0 
     /tmp/ccALIodx.s:1278   .text:0000000000000538 .L0 
     /tmp/ccALIodx.s:1280   .text:0000000000000540 .L0 
     /tmp/ccALIodx.s:1282   .text:0000000000000544 .L0 
     /tmp/ccALIodx.s:1283   .text:0000000000000544 .L0 
     /tmp/ccALIodx.s:1285   .text:0000000000000548 .L0 
     /tmp/ccALIodx.s:1287   .text:000000000000054c .L0 
GAS LISTING /tmp/ccALIodx.s 			page 45


     /tmp/ccALIodx.s:1293   .text:000000000000054c _Z4putcc
     /tmp/ccALIodx.s:1296   .text:000000000000054c .L0 
     /tmp/ccALIodx.s:1298   .text:000000000000054c .L0 
     /tmp/ccALIodx.s:1299   .text:0000000000000550 .L0 
     /tmp/ccALIodx.s:1302   .text:0000000000000558 .L0 
     /tmp/ccALIodx.s:1303   .text:0000000000000558 .L0 
     /tmp/ccALIodx.s:1305   .text:000000000000055c .L0 
     /tmp/ccALIodx.s:1308   .text:0000000000000560 .L0 
     /tmp/ccALIodx.s:1309   .text:0000000000000560 .L0 
     /tmp/ccALIodx.s:1314   .text:000000000000056c .L0 
     /tmp/ccALIodx.s:1315   .text:0000000000000570 .L0 
     /tmp/ccALIodx.s:1317   .text:0000000000000574 .L0 
     /tmp/ccALIodx.s:1318   .text:0000000000000574 .L0 
     /tmp/ccALIodx.s:1320   .text:0000000000000578 .L0 
     /tmp/ccALIodx.s:1322   .text:000000000000057c .L0 
     /tmp/ccALIodx.s:1328   .text:000000000000057c _Z4getcv
     /tmp/ccALIodx.s:1331   .text:000000000000057c .L0 
     /tmp/ccALIodx.s:1332   .text:000000000000057c .L0 
     /tmp/ccALIodx.s:1333   .text:0000000000000580 .L0 
     /tmp/ccALIodx.s:1336   .text:0000000000000588 .L0 
     /tmp/ccALIodx.s:1337   .text:0000000000000588 .L0 
     /tmp/ccALIodx.s:1339   .text:000000000000058c .L0 
     /tmp/ccALIodx.s:1341   .text:000000000000058c .L0 
     /tmp/ccALIodx.s:1342   .text:000000000000058c .L0 
     /tmp/ccALIodx.s:1346   .text:0000000000000598 .L0 
     /tmp/ccALIodx.s:1347   .text:0000000000000598 .L0 
   src/syscall_c.cpp:288    .text:0000000000000598 .L0 
     /tmp/ccALIodx.s:1354   .text:000000000000059c .L0 
     /tmp/ccALIodx.s:1356   .text:000000000000059c .L0 
     /tmp/ccALIodx.s:1358   .text:00000000000005a4 .L0 
     /tmp/ccALIodx.s:1360   .text:00000000000005a8 .L0 
     /tmp/ccALIodx.s:1361   .text:00000000000005a8 .L0 
     /tmp/ccALIodx.s:1363   .text:00000000000005ac .L0 
     /tmp/ccALIodx.s:1365   .text:00000000000005b0 .L0 
     /tmp/ccALIodx.s:1376   .text:00000000000005b0 .L0 
     /tmp/ccALIodx.s:164    .rodata:0000000000000000 .L7
     /tmp/ccALIodx.s:156    .text:00000000000000c0 .L0 
     /tmp/ccALIodx.s:103    .text:0000000000000088 .L27
     /tmp/ccALIodx.s:705    .text:0000000000000258 .L28
     /tmp/ccALIodx.s:304    .text:0000000000000108 .L3
     /tmp/ccALIodx.s:270    .text:00000000000000f8 .L5
     /tmp/ccALIodx.s:418    .text:0000000000000168 .L24
     /tmp/ccALIodx.s:406    .text:0000000000000160 .L20
     /tmp/ccALIodx.s:511    .text:00000000000001bc .L25
     /tmp/ccALIodx.s:499    .text:00000000000001b4 .L21
     /tmp/ccALIodx.s:757    .text:0000000000000288 .L30
     /tmp/ccALIodx.s:954    .text:0000000000000390 .L38
     /tmp/ccALIodx.s:933    .text:0000000000000374 .L37
     /tmp/ccALIodx.s:1047   .text:000000000000041c .L42
     /tmp/ccALIodx.s:233    .text:00000000000000d8 .L19
     /tmp/ccALIodx.s:322    .text:000000000000011c .L18
     /tmp/ccALIodx.s:347    .text:000000000000012c .L17
     /tmp/ccALIodx.s:423    .text:0000000000000170 .L16
     /tmp/ccALIodx.s:434    .text:000000000000017c .L15
     /tmp/ccALIodx.s:444    .text:0000000000000188 .L14
     /tmp/ccALIodx.s:516    .text:00000000000001c4 .L13
     /tmp/ccALIodx.s:537    .text:00000000000001d4 .L12
GAS LISTING /tmp/ccALIodx.s 			page 46


     /tmp/ccALIodx.s:575    .text:00000000000001f4 .L11
     /tmp/ccALIodx.s:603    .text:0000000000000208 .L10
     /tmp/ccALIodx.s:631    .text:000000000000021c .L9
     /tmp/ccALIodx.s:681    .text:0000000000000244 .L8
     /tmp/ccALIodx.s:659    .text:0000000000000230 .L6
     /tmp/ccALIodx.s:3588   .debug_abbrev:0000000000000000 .Ldebug_abbrev0
     /tmp/ccALIodx.s:5923   .debug_str:00000000000009a2 .LASF201
     /tmp/ccALIodx.s:5777   .debug_str:00000000000005b1 .LASF202
     /tmp/ccALIodx.s:5639   .debug_str:000000000000019b .LASF203
     /tmp/ccALIodx.s:5      .text:0000000000000000 .Ltext0
     /tmp/ccALIodx.s:1368   .text:00000000000005b0 .Letext0
     /tmp/ccALIodx.s:5583   .debug_line:0000000000000000 .Ldebug_line0
     /tmp/ccALIodx.s:5721   .debug_str:0000000000000436 .LASF0
     /tmp/ccALIodx.s:5751   .debug_str:000000000000051c .LASF1
     /tmp/ccALIodx.s:5851   .debug_str:00000000000007c4 .LASF2
     /tmp/ccALIodx.s:5865   .debug_str:0000000000000838 .LASF4
     /tmp/ccALIodx.s:5729   .debug_str:000000000000046a .LASF3
     /tmp/ccALIodx.s:5591   .debug_str:0000000000000026 .LASF5
     /tmp/ccALIodx.s:5815   .debug_str:00000000000006a9 .LASF6
     /tmp/ccALIodx.s:5739   .debug_str:00000000000004cc .LASF7
     /tmp/ccALIodx.s:5699   .debug_str:00000000000003a4 .LASF8
     /tmp/ccALIodx.s:5703   .debug_str:00000000000003c4 .LASF9
     /tmp/ccALIodx.s:5629   .debug_str:0000000000000158 .LASF10
     /tmp/ccALIodx.s:5691   .debug_str:000000000000036d .LASF11
     /tmp/ccALIodx.s:5647   .debug_str:00000000000001dd .LASF12
     /tmp/ccALIodx.s:5627   .debug_str:0000000000000148 .LASF13
     /tmp/ccALIodx.s:5899   .debug_str:0000000000000931 .LASF14
     /tmp/ccALIodx.s:5677   .debug_str:00000000000002dd .LASF15
     /tmp/ccALIodx.s:5885   .debug_str:00000000000008ce .LASF16
     /tmp/ccALIodx.s:5811   .debug_str:0000000000000691 .LASF25
     /tmp/ccALIodx.s:5919   .debug_str:000000000000098f .LASF20
     /tmp/ccALIodx.s:5631   .debug_str:0000000000000167 .LASF17
     /tmp/ccALIodx.s:5603   .debug_str:00000000000000b1 .LASF18
     /tmp/ccALIodx.s:5749   .debug_str:0000000000000517 .LASF19
     /tmp/ccALIodx.s:5611   .debug_str:00000000000000cd .LASF21
     /tmp/ccALIodx.s:5599   .debug_str:000000000000006e .LASF30
     /tmp/ccALIodx.s:5747   .debug_str:0000000000000507 .LASF22
     /tmp/ccALIodx.s:5881   .debug_str:00000000000008a9 .LASF23
     /tmp/ccALIodx.s:5607   .debug_str:00000000000000be .LASF24
     /tmp/ccALIodx.s:5883   .debug_str:00000000000008b3 .LASF27
     /tmp/ccALIodx.s:5853   .debug_str:00000000000007d2 .LASF26
     /tmp/ccALIodx.s:5945   .debug_str:0000000000000afb .LASF28
     /tmp/ccALIodx.s:5981   .debug_str:0000000000000bfb .LASF57
     /tmp/ccALIodx.s:5783   .debug_str:00000000000005e3 .LASF59
     /tmp/ccALIodx.s:5781   .debug_str:00000000000005d9 .LASF43
     /tmp/ccALIodx.s:5595   .debug_str:0000000000000038 .LASF45
     /tmp/ccALIodx.s:5909   .debug_str:0000000000000966 .LASF29
     /tmp/ccALIodx.s:5689   .debug_str:000000000000034c .LASF31
     /tmp/ccALIodx.s:5605   .debug_str:00000000000000b6 .LASF32
     /tmp/ccALIodx.s:5799   .debug_str:0000000000000644 .LASF204
     /tmp/ccALIodx.s:5621   .debug_str:0000000000000109 .LASF33
     /tmp/ccALIodx.s:5807   .debug_str:000000000000067f .LASF205
     /tmp/ccALIodx.s:5587   .debug_str:0000000000000011 .LASF34
     /tmp/ccALIodx.s:5999   .debug_str:0000000000000c66 .LASF35
     /tmp/ccALIodx.s:5929   .debug_str:0000000000000a8b .LASF36
     /tmp/ccALIodx.s:5907   .debug_str:000000000000095d .LASF37
     /tmp/ccALIodx.s:5803   .debug_str:0000000000000662 .LASF38
GAS LISTING /tmp/ccALIodx.s 			page 47


     /tmp/ccALIodx.s:5931   .debug_str:0000000000000a95 .LASF39
     /tmp/ccALIodx.s:5617   .debug_str:00000000000000eb .LASF206
     /tmp/ccALIodx.s:5837   .debug_str:000000000000074f .LASF207
     /tmp/ccALIodx.s:5873   .debug_str:0000000000000867 .LASF40
     /tmp/ccALIodx.s:5861   .debug_str:0000000000000822 .LASF41
     /tmp/ccALIodx.s:5987   .debug_str:0000000000000c26 .LASF42
     /tmp/ccALIodx.s:5903   .debug_str:0000000000000946 .LASF44
     /tmp/ccALIodx.s:5743   .debug_str:00000000000004f2 .LASF46
     /tmp/ccALIodx.s:5911   .debug_str:000000000000096f .LASF47
     /tmp/ccALIodx.s:5895   .debug_str:0000000000000909 .LASF48
     /tmp/ccALIodx.s:5613   .debug_str:00000000000000d5 .LASF49
     /tmp/ccALIodx.s:5949   .debug_str:0000000000000b27 .LASF50
     /tmp/ccALIodx.s:5977   .debug_str:0000000000000be9 .LASF51
     /tmp/ccALIodx.s:5759   .debug_str:000000000000054c .LASF52
     /tmp/ccALIodx.s:5913   .debug_str:000000000000097a .LASF53
     /tmp/ccALIodx.s:5857   .debug_str:00000000000007f4 .LASF54
     /tmp/ccALIodx.s:5755   .debug_str:0000000000000535 .LASF55
     /tmp/ccALIodx.s:5625   .debug_str:000000000000012b .LASF56
     /tmp/ccALIodx.s:5801   .debug_str:000000000000064c .LASF63
     /tmp/ccALIodx.s:5675   .debug_str:00000000000002b8 .LASF65
     /tmp/ccALIodx.s:5921   .debug_str:0000000000000997 .LASF58
     /tmp/ccALIodx.s:5771   .debug_str:000000000000058a .LASF60
     /tmp/ccALIodx.s:5897   .debug_str:0000000000000924 .LASF61
     /tmp/ccALIodx.s:5937   .debug_str:0000000000000abb .LASF62
     /tmp/ccALIodx.s:5753   .debug_str:000000000000052f .LASF64
     /tmp/ccALIodx.s:5793   .debug_str:0000000000000622 .LASF66
     /tmp/ccALIodx.s:5667   .debug_str:0000000000000277 .LASF67
     /tmp/ccALIodx.s:5657   .debug_str:000000000000022f .LASF68
     /tmp/ccALIodx.s:5653   .debug_str:0000000000000217 .LASF69
     /tmp/ccALIodx.s:5731   .debug_str:000000000000047c .LASF70
     /tmp/ccALIodx.s:5995   .debug_str:0000000000000c58 .LASF71
     /tmp/ccALIodx.s:5823   .debug_str:00000000000006e6 .LASF72
     /tmp/ccALIodx.s:5697   .debug_str:000000000000039c .LASF208
     /tmp/ccALIodx.s:6003   .debug_str:0000000000000c7f .LASF73
     /tmp/ccALIodx.s:5841   .debug_str:000000000000077e .LASF74
     /tmp/ccALIodx.s:5619   .debug_str:00000000000000f9 .LASF75
     /tmp/ccALIodx.s:5831   .debug_str:0000000000000720 .LASF76
     /tmp/ccALIodx.s:5589   .debug_str:0000000000000016 .LASF77
     /tmp/ccALIodx.s:5925   .debug_str:0000000000000a66 .LASF78
     /tmp/ccALIodx.s:6001   .debug_str:0000000000000c6c .LASF137
     /tmp/ccALIodx.s:5585   .debug_str:0000000000000000 .LASF139
     /tmp/ccALIodx.s:5957   .debug_str:0000000000000b57 .LASF79
     /tmp/ccALIodx.s:5989   .debug_str:0000000000000c31 .LASF80
     /tmp/ccALIodx.s:5915   .debug_str:0000000000000985 .LASF81
     /tmp/ccALIodx.s:5665   .debug_str:000000000000026f .LASF82
     /tmp/ccALIodx.s:5875   .debug_str:0000000000000878 .LASF83
     /tmp/ccALIodx.s:5733   .debug_str:00000000000004a8 .LASF84
     /tmp/ccALIodx.s:5983   .debug_str:0000000000000c07 .LASF85
     /tmp/ccALIodx.s:5813   .debug_str:00000000000006a1 .LASF86
     /tmp/ccALIodx.s:6005   .debug_str:0000000000000c8c .LASF87
     /tmp/ccALIodx.s:5615   .debug_str:00000000000000e1 .LASF88
     /tmp/ccALIodx.s:5649   .debug_str:00000000000001ed .LASF89
     /tmp/ccALIodx.s:5719   .debug_str:0000000000000430 .LASF90
     /tmp/ccALIodx.s:5687   .debug_str:000000000000033b .LASF91
     /tmp/ccALIodx.s:5997   .debug_str:0000000000000c5e .LASF92
     /tmp/ccALIodx.s:5961   .debug_str:0000000000000b6a .LASF93
     /tmp/ccALIodx.s:5809   .debug_str:0000000000000684 .LASF94
GAS LISTING /tmp/ccALIodx.s 			page 48


     /tmp/ccALIodx.s:5609   .debug_str:00000000000000c8 .LASF95
     /tmp/ccALIodx.s:5819   .debug_str:00000000000006c9 .LASF96
     /tmp/ccALIodx.s:5963   .debug_str:0000000000000b7d .LASF97
     /tmp/ccALIodx.s:5835   .debug_str:0000000000000744 .LASF209
     /tmp/ccALIodx.s:5735   .debug_str:00000000000004b1 .LASF98
     /tmp/ccALIodx.s:5683   .debug_str:0000000000000328 .LASF99
     /tmp/ccALIodx.s:5985   .debug_str:0000000000000c1d .LASF100
     /tmp/ccALIodx.s:5711   .debug_str:00000000000003f4 .LASF101
     /tmp/ccALIodx.s:5717   .debug_str:0000000000000418 .LASF102
     /tmp/ccALIodx.s:5871   .debug_str:0000000000000859 .LASF103
     /tmp/ccALIodx.s:5679   .debug_str:00000000000002f3 .LASF104
     /tmp/ccALIodx.s:5723   .debug_str:0000000000000443 .LASF105
     /tmp/ccALIodx.s:5975   .debug_str:0000000000000bcf .LASF106
     /tmp/ccALIodx.s:5939   .debug_str:0000000000000adf .LASF107
     /tmp/ccALIodx.s:5933   .debug_str:0000000000000a9d .LASF108
     /tmp/ccALIodx.s:5845   .debug_str:000000000000079b .LASF109
     /tmp/ccALIodx.s:5805   .debug_str:000000000000066a .LASF110
     /tmp/ccALIodx.s:5827   .debug_str:0000000000000706 .LASF111
     /tmp/ccALIodx.s:5829   .debug_str:000000000000070d .LASF112
     /tmp/ccALIodx.s:5795   .debug_str:0000000000000636 .LASF113
     /tmp/ccALIodx.s:5741   .debug_str:00000000000004df .LASF114
     /tmp/ccALIodx.s:5979   .debug_str:0000000000000bf3 .LASF115
     /tmp/ccALIodx.s:5927   .debug_str:0000000000000a77 .LASF116
     /tmp/ccALIodx.s:5791   .debug_str:000000000000061a .LASF117
     /tmp/ccALIodx.s:5695   .debug_str:0000000000000388 .LASF118
     /tmp/ccALIodx.s:5761   .debug_str:0000000000000565 .LASF119
     /tmp/ccALIodx.s:5833   .debug_str:0000000000000730 .LASF120
     /tmp/ccALIodx.s:5889   .debug_str:00000000000008f5 .LASF121
     /tmp/ccALIodx.s:5727   .debug_str:0000000000000456 .LASF122
     /tmp/ccALIodx.s:5659   .debug_str:0000000000000246 .LASF123
     /tmp/ccALIodx.s:5867   .debug_str:000000000000083f .LASF124
     /tmp/ccALIodx.s:5869   .debug_str:0000000000000852 .LASF125
     /tmp/ccALIodx.s:5637   .debug_str:0000000000000188 .LASF126
     /tmp/ccALIodx.s:5673   .debug_str:00000000000002b2 .LASF127
     /tmp/ccALIodx.s:5715   .debug_str:0000000000000406 .LASF128
     /tmp/ccALIodx.s:5725   .debug_str:0000000000000450 .LASF129
     /tmp/ccALIodx.s:5663   .debug_str:000000000000025d .LASF130
     /tmp/ccALIodx.s:5593   .debug_str:000000000000002d .LASF131
     /tmp/ccALIodx.s:5855   .debug_str:00000000000007dc .LASF132
     /tmp/ccALIodx.s:5849   .debug_str:00000000000007b9 .LASF133
     /tmp/ccALIodx.s:5671   .debug_str:000000000000029a .LASF134
     /tmp/ccALIodx.s:5967   .debug_str:0000000000000b88 .LASF135
     /tmp/ccALIodx.s:5645   .debug_str:00000000000001c7 .LASF136
     /tmp/ccALIodx.s:5959   .debug_str:0000000000000b60 .LASF138
     /tmp/ccALIodx.s:5779   .debug_str:00000000000005c3 .LASF140
     /tmp/ccALIodx.s:5917   .debug_str:000000000000098a .LASF141
     /tmp/ccALIodx.s:5767   .debug_str:0000000000000579 .LASF142
     /tmp/ccALIodx.s:5773   .debug_str:00000000000005a4 .LASF143
     /tmp/ccALIodx.s:5941   .debug_str:0000000000000ae8 .LASF144
     /tmp/ccALIodx.s:5745   .debug_str:0000000000000502 .LASF145
     /tmp/ccALIodx.s:5839   .debug_str:000000000000076c .LASF210
     /tmp/ccALIodx.s:5669   .debug_str:0000000000000280 .LASF211
     /tmp/ccALIodx.s:5893   .debug_str:0000000000000904 .LASF146
     /tmp/ccALIodx.s:5763   .debug_str:000000000000056d .LASF147
     /tmp/ccALIodx.s:5969   .debug_str:0000000000000b92 .LASF148
     /tmp/ccALIodx.s:5685   .debug_str:0000000000000331 .LASF212
     /tmp/ccALIodx.s:6009   .debug_str:0000000000000cad .LASF149
GAS LISTING /tmp/ccALIodx.s 			page 49


     /tmp/ccALIodx.s:5705   .debug_str:00000000000003d2 .LASF150
     /tmp/ccALIodx.s:5905   .debug_str:000000000000094f .LASF151
     /tmp/ccALIodx.s:5825   .debug_str:00000000000006fa .LASF152
     /tmp/ccALIodx.s:5661   .debug_str:000000000000024d .LASF153
     /tmp/ccALIodx.s:5991   .debug_str:0000000000000c37 .LASF154
     /tmp/ccALIodx.s:5843   .debug_str:000000000000078e .LASF155
     /tmp/ccALIodx.s:5633   .debug_str:000000000000016c .LASF156
     /tmp/ccALIodx.s:5643   .debug_str:00000000000001bd .LASF157
     /tmp/ccALIodx.s:5789   .debug_str:0000000000000611 .LASF158
     /tmp/ccALIodx.s:5863   .debug_str:000000000000082d .LASF159
     /tmp/ccALIodx.s:5785   .debug_str:0000000000000607 .LASF160
     /tmp/ccALIodx.s:5787   .debug_str:000000000000060c .LASF161
     /tmp/ccALIodx.s:5641   .debug_str:00000000000001b8 .LASF163
     /tmp/ccALIodx.s:5953   .debug_str:0000000000000b47 .LASF165
     /tmp/ccALIodx.s:1329   .text:000000000000057c .LFB60
     /tmp/ccALIodx.s:1366   .text:00000000000005b0 .LFE60
     /tmp/ccALIodx.s:1344   .text:0000000000000598 .LVL121
     /tmp/ccALIodx.s:5775   .debug_str:00000000000005ac .LASF162
     /tmp/ccALIodx.s:5901   .debug_str:000000000000093d .LASF213
     /tmp/ccALIodx.s:1294   .text:000000000000054c .LFB59
     /tmp/ccALIodx.s:1323   .text:000000000000057c .LFE59
     /tmp/ccALIodx.s:4890   .debug_loc:0000000000000000 .LLST46
     /tmp/ccALIodx.s:1312   .text:000000000000056c .LVL120
     /tmp/ccALIodx.s:5709   .debug_str:00000000000003e9 .LASF164
     /tmp/ccALIodx.s:5847   .debug_str:00000000000007a4 .LASF166
     /tmp/ccALIodx.s:1248   .text:0000000000000514 .LFB58
     /tmp/ccALIodx.s:1288   .text:000000000000054c .LFE58
     /tmp/ccALIodx.s:4904   .debug_loc:0000000000000039 .LLST45
     /tmp/ccALIodx.s:1266   .text:0000000000000534 .LVL116
     /tmp/ccALIodx.s:5623   .debug_str:0000000000000122 .LASF167
     /tmp/ccALIodx.s:5879   .debug_str:0000000000000897 .LASF168
     /tmp/ccALIodx.s:1202   .text:00000000000004dc .LFB57
     /tmp/ccALIodx.s:1242   .text:0000000000000514 .LFE57
     /tmp/ccALIodx.s:4922   .debug_loc:0000000000000085 .LLST44
     /tmp/ccALIodx.s:1220   .text:00000000000004fc .LVL112
     /tmp/ccALIodx.s:5757   .debug_str:0000000000000542 .LASF169
     /tmp/ccALIodx.s:5635   .debug_str:0000000000000175 .LASF170
     /tmp/ccALIodx.s:1156   .text:00000000000004a4 .LFB56
     /tmp/ccALIodx.s:1196   .text:00000000000004dc .LFE56
     /tmp/ccALIodx.s:6011   .debug_str:0000000000000cb7 .LASF171
     /tmp/ccALIodx.s:4940   .debug_loc:00000000000000d1 .LLST43
     /tmp/ccALIodx.s:1174   .text:00000000000004c4 .LVL108
     /tmp/ccALIodx.s:5935   .debug_str:0000000000000ab2 .LASF172
     /tmp/ccALIodx.s:5859   .debug_str:000000000000080e .LASF181
     /tmp/ccALIodx.s:1108   .text:0000000000000468 .LFB55
     /tmp/ccALIodx.s:1150   .text:00000000000004a4 .LFE55
     /tmp/ccALIodx.s:4958   .debug_loc:000000000000011d .LLST41
     /tmp/ccALIodx.s:4976   .debug_loc:0000000000000169 .LLST42
     /tmp/ccALIodx.s:1128   .text:000000000000048c .LVL104
     /tmp/ccALIodx.s:5817   .debug_str:00000000000006bc .LASF173
     /tmp/ccALIodx.s:5681   .debug_str:000000000000030e .LASF174
     /tmp/ccALIodx.s:1073   .text:0000000000000438 .LFB54
     /tmp/ccALIodx.s:1102   .text:0000000000000468 .LFE54
     /tmp/ccALIodx.s:4990   .debug_loc:00000000000001a2 .LLST40
     /tmp/ccALIodx.s:1091   .text:0000000000000458 .LVL100
     /tmp/ccALIodx.s:5651   .debug_str:0000000000000204 .LASF175
     /tmp/ccALIodx.s:5601   .debug_str:0000000000000087 .LASF176
GAS LISTING /tmp/ccALIodx.s 			page 50


     /tmp/ccALIodx.s:999    .text:00000000000003c4 .LFB53
     /tmp/ccALIodx.s:1067   .text:0000000000000438 .LFE53
     /tmp/ccALIodx.s:5008   .debug_loc:00000000000001ee .LLST36
     /tmp/ccALIodx.s:5821   .debug_str:00000000000006d8 .LASF177
     /tmp/ccALIodx.s:5026   .debug_loc:000000000000023a .LLST37
     /tmp/ccALIodx.s:5044   .debug_loc:0000000000000286 .LLST38
     /tmp/ccALIodx.s:5062   .debug_loc:00000000000002d2 .LLST39
     /tmp/ccALIodx.s:1025   .text:00000000000003f8 .LVL91
     /tmp/ccALIodx.s:1037   .text:0000000000000418 .LVL93
     /tmp/ccALIodx.s:5947   .debug_str:0000000000000b17 .LASF178
     /tmp/ccALIodx.s:5597   .debug_str:0000000000000059 .LASF179
     /tmp/ccALIodx.s:967    .text:0000000000000398 .LFB52
     /tmp/ccALIodx.s:993    .text:00000000000003c4 .LFE52
     /tmp/ccALIodx.s:982    .text:00000000000003b4 .LVL88
     /tmp/ccALIodx.s:5943   .debug_str:0000000000000aed .LASF180
     /tmp/ccALIodx.s:5973   .debug_str:0000000000000baa .LASF182
     /tmp/ccALIodx.s:883    .text:0000000000000318 .LFB51
     /tmp/ccALIodx.s:961    .text:0000000000000398 .LFE51
     /tmp/ccALIodx.s:5073   .debug_loc:0000000000000308 .LLST32
     /tmp/ccALIodx.s:5095   .debug_loc:0000000000000367 .LLST33
     /tmp/ccALIodx.s:5117   .debug_loc:00000000000003c6 .LLST34
     /tmp/ccALIodx.s:5139   .debug_loc:0000000000000425 .LLST35
     /tmp/ccALIodx.s:909    .text:000000000000034c .LVL79
     /tmp/ccALIodx.s:921    .text:000000000000036c .LVL81
     /tmp/ccALIodx.s:5693   .debug_str:000000000000037c .LASF183
     /tmp/ccALIodx.s:5887   .debug_str:00000000000008e4 .LASF184
     /tmp/ccALIodx.s:839    .text:00000000000002e4 .LFB50
     /tmp/ccALIodx.s:877    .text:0000000000000318 .LFE50
     /tmp/ccALIodx.s:5154   .debug_loc:000000000000046e .LLST31
     /tmp/ccALIodx.s:854    .text:0000000000000300 .LVL74
     /tmp/ccALIodx.s:5993   .debug_str:0000000000000c4a .LASF185
     /tmp/ccALIodx.s:792    .text:00000000000002ac .LFB49
     /tmp/ccALIodx.s:833    .text:00000000000002e4 .LFE49
     /tmp/ccALIodx.s:5161   .debug_loc:0000000000000491 .LLST29
     /tmp/ccALIodx.s:5179   .debug_loc:00000000000004dd .LLST30
     /tmp/ccALIodx.s:810    .text:00000000000002cc .LVL71
     /tmp/ccALIodx.s:5707   .debug_str:00000000000003db .LASF186
     /tmp/ccALIodx.s:733    .text:0000000000000264 .LFB48
     /tmp/ccALIodx.s:786    .text:00000000000002ac .LFE48
     /tmp/ccALIodx.s:5186   .debug_loc:0000000000000500 .LLST26
     /tmp/ccALIodx.s:5769   .debug_str:000000000000057e .LASF187
     /tmp/ccALIodx.s:5206   .debug_loc:000000000000054e .LLST27
     /tmp/ccALIodx.s:5222   .debug_loc:0000000000000589 .LLST28
     /tmp/ccALIodx.s:765    .text:0000000000000298 .LVL67
     /tmp/ccALIodx.s:5877   .debug_str:000000000000088b .LASF188
     /tmp/ccALIodx.s:49     .text:0000000000000038 .LFB47
     /tmp/ccALIodx.s:727    .text:0000000000000264 .LFE47
     /tmp/ccALIodx.s:5891   .debug_str:00000000000008fd .LASF189
     /tmp/ccALIodx.s:5234   .debug_loc:00000000000005c0 .LLST0
     /tmp/ccALIodx.s:5575   .debug_ranges:0000000000000000 .Ldebug_ranges0
     /tmp/ccALIodx.s:5965   .debug_str:0000000000000b83 .LASF190
     /tmp/ccALIodx.s:5955   .debug_str:0000000000000b50 .LASF191
     /tmp/ccALIodx.s:5797   .debug_str:000000000000063d .LASF192
     /tmp/ccALIodx.s:5327   .debug_loc:000000000000071a .LLST1
     /tmp/ccALIodx.s:238    .text:00000000000000d8 .LBB35
     /tmp/ccALIodx.s:271    .text:00000000000000f8 .LBE35
     /tmp/ccALIodx.s:5334   .debug_loc:000000000000073d .LLST2
GAS LISTING /tmp/ccALIodx.s 			page 51


     /tmp/ccALIodx.s:5341   .debug_loc:0000000000000760 .LLST3
     /tmp/ccALIodx.s:251    .text:00000000000000e4 .LVL8
     /tmp/ccALIodx.s:255    .text:00000000000000f0 .LVL9
     /tmp/ccALIodx.s:330    .text:000000000000011c .LBB36
     /tmp/ccALIodx.s:348    .text:000000000000012c .LBE36
     /tmp/ccALIodx.s:5348   .debug_loc:0000000000000783 .LLST4
     /tmp/ccALIodx.s:343    .text:0000000000000128 .LVL17
     /tmp/ccALIodx.s:351    .text:000000000000012c .LBB37
     /tmp/ccALIodx.s:424    .text:0000000000000170 .LBE37
     /tmp/ccALIodx.s:5355   .debug_loc:00000000000007a6 .LLST5
     /tmp/ccALIodx.s:5367   .debug_loc:00000000000007dd .LLST6
     /tmp/ccALIodx.s:5374   .debug_loc:0000000000000800 .LLST7
     /tmp/ccALIodx.s:5381   .debug_loc:0000000000000823 .LLST8
     /tmp/ccALIodx.s:394    .text:000000000000014c .LVL23
     /tmp/ccALIodx.s:400    .text:0000000000000158 .LVL24
     /tmp/ccALIodx.s:447    .text:0000000000000188 .LBB38
     /tmp/ccALIodx.s:517    .text:00000000000001c4 .LBE38
     /tmp/ccALIodx.s:5398   .debug_loc:000000000000086e .LLST9
     /tmp/ccALIodx.s:5410   .debug_loc:00000000000008a5 .LLST10
     /tmp/ccALIodx.s:5417   .debug_loc:00000000000008c8 .LLST11
     /tmp/ccALIodx.s:5424   .debug_loc:00000000000008eb .LLST12
     /tmp/ccALIodx.s:490    .text:00000000000001a8 .LVL36
     /tmp/ccALIodx.s:520    .text:00000000000001c4 .LBB39
     /tmp/ccALIodx.s:538    .text:00000000000001d4 .LBE39
     /tmp/ccALIodx.s:5441   .debug_loc:0000000000000936 .LLST13
     /tmp/ccALIodx.s:533    .text:00000000000001d0 .LVL42
     /tmp/ccALIodx.s:541    .text:00000000000001d4 .LBB40
     /tmp/ccALIodx.s:576    .text:00000000000001f4 .LBE40
     /tmp/ccALIodx.s:5453   .debug_loc:000000000000096d .LLST14
     /tmp/ccALIodx.s:5465   .debug_loc:00000000000009a4 .LLST15
     /tmp/ccALIodx.s:562    .text:00000000000001e8 .LVL46
     /tmp/ccALIodx.s:579    .text:00000000000001f4 .LBB41
     /tmp/ccALIodx.s:604    .text:0000000000000208 .LBE41
     /tmp/ccALIodx.s:5477   .debug_loc:00000000000009db .LLST16
     /tmp/ccALIodx.s:5489   .debug_loc:0000000000000a12 .LLST17
     /tmp/ccALIodx.s:592    .text:0000000000000200 .LVL49
     /tmp/ccALIodx.s:607    .text:0000000000000208 .LBB42
     /tmp/ccALIodx.s:632    .text:000000000000021c .LBE42
     /tmp/ccALIodx.s:5496   .debug_loc:0000000000000a35 .LLST18
     /tmp/ccALIodx.s:5508   .debug_loc:0000000000000a6c .LLST19
     /tmp/ccALIodx.s:620    .text:0000000000000214 .LVL52
     /tmp/ccALIodx.s:635    .text:000000000000021c .LBB43
     /tmp/ccALIodx.s:660    .text:0000000000000230 .LBE43
     /tmp/ccALIodx.s:5515   .debug_loc:0000000000000a8f .LLST20
     /tmp/ccALIodx.s:5527   .debug_loc:0000000000000ac6 .LLST21
     /tmp/ccALIodx.s:648    .text:0000000000000228 .LVL55
     /tmp/ccALIodx.s:663    .text:0000000000000230 .LBB44
     /tmp/ccALIodx.s:682    .text:0000000000000244 .LBE44
     /tmp/ccALIodx.s:5534   .debug_loc:0000000000000ae9 .LLST22
     /tmp/ccALIodx.s:677    .text:0000000000000240 .LVL58
     /tmp/ccALIodx.s:685    .text:0000000000000244 .LBB45
     /tmp/ccALIodx.s:706    .text:0000000000000258 .LBE45
     /tmp/ccALIodx.s:5541   .debug_loc:0000000000000b0c .LLST23
     /tmp/ccALIodx.s:689    .text:000000000000024c .LVL60
     /tmp/ccALIodx.s:123    .text:00000000000000a0 .LBB31
     /tmp/ccALIodx.s:138    .text:00000000000000ac .LBE31
     /tmp/ccALIodx.s:278    .text:00000000000000fc .LBB47
GAS LISTING /tmp/ccALIodx.s 			page 52


     /tmp/ccALIodx.s:289    .text:0000000000000100 .LBE47
     /tmp/ccALIodx.s:5548   .debug_loc:0000000000000b2f .LLST24
     /tmp/ccALIodx.s:294    .text:0000000000000104 .LBB49
     /tmp/ccALIodx.s:306    .text:0000000000000108 .LBE49
     /tmp/ccALIodx.s:5555   .debug_loc:0000000000000b52 .LLST25
     /tmp/ccALIodx.s:430    .text:0000000000000178 .LVL28
     /tmp/ccALIodx.s:440    .text:0000000000000184 .LVL30
     /tmp/ccALIodx.s:63     .text:000000000000004c .LBB27
     /tmp/ccALIodx.s:77     .text:0000000000000050 .LBE27
     /tmp/ccALIodx.s:711    .text:0000000000000258 .LBB53
     /tmp/ccALIodx.s:724    .text:0000000000000264 .LBE53
     /tmp/ccALIodx.s:98     .text:0000000000000084 .LVL2
     /tmp/ccALIodx.s:6007   .debug_str:0000000000000ca1 .LASF193
     /tmp/ccALIodx.s:5737   .debug_str:00000000000004ba .LASF194
     /tmp/ccALIodx.s:10     .text:0000000000000000 .LFB46
     /tmp/ccALIodx.s:43     .text:0000000000000038 .LFE46
     /tmp/ccALIodx.s:5655   .debug_str:0000000000000225 .LASF195
     /tmp/ccALIodx.s:5971   .debug_str:0000000000000ba2 .LASF196
     /tmp/ccALIodx.s:5951   .debug_str:0000000000000b42 .LASF197
     /tmp/ccALIodx.s:5765   .debug_str:0000000000000572 .LASF198
     /tmp/ccALIodx.s:5713   .debug_str:00000000000003ff .LASF199
     /tmp/ccALIodx.s:5701   .debug_str:00000000000003b4 .LASF200
     /tmp/ccALIodx.s:1297   .text:000000000000054c .LVL118
     /tmp/ccALIodx.s:1310   .text:0000000000000564 .LVL119
     /tmp/ccALIodx.s:1251   .text:0000000000000514 .LVL114
     /tmp/ccALIodx.s:1264   .text:000000000000052c .LVL115
     /tmp/ccALIodx.s:1205   .text:00000000000004dc .LVL110
     /tmp/ccALIodx.s:1218   .text:00000000000004f4 .LVL111
     /tmp/ccALIodx.s:1159   .text:00000000000004a4 .LVL106
     /tmp/ccALIodx.s:1172   .text:00000000000004bc .LVL107
     /tmp/ccALIodx.s:1111   .text:0000000000000468 .LVL101
     /tmp/ccALIodx.s:1126   .text:0000000000000484 .LVL103
     /tmp/ccALIodx.s:1124   .text:0000000000000480 .LVL102
     /tmp/ccALIodx.s:1076   .text:0000000000000438 .LVL98
     /tmp/ccALIodx.s:1089   .text:0000000000000450 .LVL99
     /tmp/ccALIodx.s:1002   .text:00000000000003c4 .LVL89
     /tmp/ccALIodx.s:1023   .text:00000000000003f0 .LVL90
     /tmp/ccALIodx.s:1056   .text:0000000000000428 .LVL95
     /tmp/ccALIodx.s:1059   .text:000000000000042c .LVL96
     /tmp/ccALIodx.s:1062   .text:0000000000000430 .LVL97
     /tmp/ccALIodx.s:1035   .text:0000000000000410 .LVL92
     /tmp/ccALIodx.s:886    .text:0000000000000318 .LVL77
     /tmp/ccALIodx.s:907    .text:0000000000000344 .LVL78
     /tmp/ccALIodx.s:943    .text:0000000000000380 .LVL83
     /tmp/ccALIodx.s:953    .text:0000000000000390 .LVL86
     /tmp/ccALIodx.s:946    .text:0000000000000384 .LVL84
     /tmp/ccALIodx.s:949    .text:0000000000000388 .LVL85
     /tmp/ccALIodx.s:919    .text:0000000000000364 .LVL80
     /tmp/ccALIodx.s:958    .text:0000000000000394 .LVL87
     /tmp/ccALIodx.s:862    .text:0000000000000304 .LVL75
     /tmp/ccALIodx.s:867    .text:0000000000000308 .LVL76
     /tmp/ccALIodx.s:795    .text:00000000000002ac .LVL69
     /tmp/ccALIodx.s:808    .text:00000000000002c4 .LVL70
     /tmp/ccALIodx.s:818    .text:00000000000002d0 .LVL72
     /tmp/ccALIodx.s:823    .text:00000000000002d4 .LVL73
     /tmp/ccALIodx.s:736    .text:0000000000000264 .LVL62
     /tmp/ccALIodx.s:748    .text:0000000000000278 .LVL63
GAS LISTING /tmp/ccALIodx.s 			page 53


     /tmp/ccALIodx.s:753    .text:0000000000000280 .LVL64
     /tmp/ccALIodx.s:758    .text:0000000000000288 .LVL65
     /tmp/ccALIodx.s:762    .text:000000000000028c .LVL66
     /tmp/ccALIodx.s:773    .text:000000000000029c .LVL68
     /tmp/ccALIodx.s:73     .text:0000000000000050 .LVL1
     /tmp/ccALIodx.s:102    .text:0000000000000088 .LVL3
     /tmp/ccALIodx.s:152    .text:00000000000000b8 .LVL5
     /tmp/ccALIodx.s:321    .text:000000000000011c .LVL15
     /tmp/ccALIodx.s:346    .text:000000000000012c .LVL18
     /tmp/ccALIodx.s:422    .text:0000000000000170 .LVL27
     /tmp/ccALIodx.s:433    .text:000000000000017c .LVL29
     /tmp/ccALIodx.s:443    .text:0000000000000188 .LVL31
     /tmp/ccALIodx.s:515    .text:00000000000001c4 .LVL40
     /tmp/ccALIodx.s:536    .text:00000000000001d4 .LVL43
     /tmp/ccALIodx.s:574    .text:00000000000001f4 .LVL47
     /tmp/ccALIodx.s:602    .text:0000000000000208 .LVL50
     /tmp/ccALIodx.s:630    .text:000000000000021c .LVL53
     /tmp/ccALIodx.s:658    .text:0000000000000230 .LVL56
     /tmp/ccALIodx.s:680    .text:0000000000000244 .LVL59
     /tmp/ccALIodx.s:704    .text:0000000000000258 .LVL61
     /tmp/ccALIodx.s:148    .text:00000000000000b4 .LVL4
     /tmp/ccALIodx.s:155    .text:00000000000000c0 .LVL6
     /tmp/ccALIodx.s:246    .text:00000000000000dc .LVL7
     /tmp/ccALIodx.s:268    .text:00000000000000f8 .LVL10
     /tmp/ccALIodx.s:338    .text:0000000000000120 .LVL16
     /tmp/ccALIodx.s:369    .text:0000000000000138 .LVL19
     /tmp/ccALIodx.s:375    .text:000000000000013c .LVL20
     /tmp/ccALIodx.s:382    .text:0000000000000140 .LVL21
     /tmp/ccALIodx.s:389    .text:0000000000000144 .LVL22
     /tmp/ccALIodx.s:407    .text:0000000000000160 .LVL25
     /tmp/ccALIodx.s:417    .text:0000000000000168 .LVL26
     /tmp/ccALIodx.s:465    .text:0000000000000194 .LVL32
     /tmp/ccALIodx.s:471    .text:0000000000000198 .LVL33
     /tmp/ccALIodx.s:478    .text:000000000000019c .LVL34
     /tmp/ccALIodx.s:485    .text:00000000000001a0 .LVL35
     /tmp/ccALIodx.s:494    .text:00000000000001ac .LVL37
     /tmp/ccALIodx.s:500    .text:00000000000001b4 .LVL38
     /tmp/ccALIodx.s:510    .text:00000000000001bc .LVL39
     /tmp/ccALIodx.s:528    .text:00000000000001c8 .LVL41
     /tmp/ccALIodx.s:549    .text:00000000000001d8 .LVL44
     /tmp/ccALIodx.s:556    .text:00000000000001dc .LVL45
     /tmp/ccALIodx.s:587    .text:00000000000001f8 .LVL48
     /tmp/ccALIodx.s:615    .text:000000000000020c .LVL51
     /tmp/ccALIodx.s:643    .text:0000000000000220 .LVL54
     /tmp/ccALIodx.s:671    .text:0000000000000234 .LVL57
     /tmp/ccALIodx.s:277    .text:00000000000000fc .LVL11
     /tmp/ccALIodx.s:286    .text:0000000000000100 .LVL12
     /tmp/ccALIodx.s:293    .text:0000000000000104 .LVL13
     /tmp/ccALIodx.s:302    .text:0000000000000108 .LVL14
     /tmp/ccALIodx.s:1377   .debug_info:0000000000000000 .Ldebug_info0
     /tmp/ccALIodx.s:105    .text:0000000000000088 .LBB30
     /tmp/ccALIodx.s:307    .text:0000000000000108 .LBE30
     /tmp/ccALIodx.s:325    .text:000000000000011c .LBB52
     /tmp/ccALIodx.s:709    .text:0000000000000258 .LBE52

UNDEFINED SYMBOLS
console_handler
GAS LISTING /tmp/ccALIodx.s 			page 54


_ZN15MemoryAllocator11getInstanceEv
_ZN15MemoryAllocator9mem_allocEm
_ZN15MemoryAllocator8mem_freeEPv
_ZN7_thread12createThreadEPFvPvES0_
_ZN7_thread5startEv
_ZN7_thread10threadExitEv
_ZN7_thread8dispatchEv
_ZN4_sem7semOpenEj
_ZN4_sem8semCloseEPS_
_ZN4_sem7semWaitEPS_
_ZN4_sem9semSignalEPS_
__putc
__getc
