GAS LISTING /tmp/cc01RLuf.s 			page 1


   1              		.file	"syscall_cpp.cpp"
   2              		.option pic
   3              		.option norelax
   4              		.text
   5              	.Ltext0:
   6              		.section	.text._ZN6Thread3runEv,"axG",@progbits,_ZN6Thread3runEv,comdat
   7              		.align	2
   8              		.weak	_ZN6Thread3runEv
  10              	_ZN6Thread3runEv:
  11              	.LFB11:
  12              		.file 1 "src/../h/syscall_cpp.h"
   1:src/../h/syscall_cpp.h **** //
   2:src/../h/syscall_cpp.h **** // Created by os on 6/21/22.
   3:src/../h/syscall_cpp.h **** //
   4:src/../h/syscall_cpp.h **** 
   5:src/../h/syscall_cpp.h **** #ifndef OS_PROJEKAT_SYSCALL_CPP_H
   6:src/../h/syscall_cpp.h **** #define OS_PROJEKAT_SYSCALL_CPP_H
   7:src/../h/syscall_cpp.h **** 
   8:src/../h/syscall_cpp.h **** #include "syscall_c.h"
   9:src/../h/syscall_cpp.h **** 
  10:src/../h/syscall_cpp.h **** void* operator new(size_t);
  11:src/../h/syscall_cpp.h **** void* operator new[](size_t);
  12:src/../h/syscall_cpp.h **** void operator delete(void*);
  13:src/../h/syscall_cpp.h **** void operator delete[](void*);
  14:src/../h/syscall_cpp.h **** 
  15:src/../h/syscall_cpp.h **** class Thread{
  16:src/../h/syscall_cpp.h **** public:
  17:src/../h/syscall_cpp.h ****     Thread (void (*body)(void*), void* arg);
  18:src/../h/syscall_cpp.h ****     virtual ~Thread();
  19:src/../h/syscall_cpp.h **** 
  20:src/../h/syscall_cpp.h ****     int start();
  21:src/../h/syscall_cpp.h **** 
  22:src/../h/syscall_cpp.h ****     static void dispatch();
  23:src/../h/syscall_cpp.h ****     static int sleep(time_t);
  24:src/../h/syscall_cpp.h **** 
  25:src/../h/syscall_cpp.h ****     friend void wrapperRun(void* p);
  26:src/../h/syscall_cpp.h **** protected:
  27:src/../h/syscall_cpp.h ****     Thread();
  28:src/../h/syscall_cpp.h ****     virtual void run(){};
  13              		.loc 1 28 18
  14              		.cfi_startproc
  15              	.LVL0:
  16 0000 130101FF 		addi	sp,sp,-16
  17              		.cfi_def_cfa_offset 16
  18 0004 23348100 		sd	s0,8(sp)
  19              		.cfi_offset 8, -8
  20 0008 13040101 		addi	s0,sp,16
  21              		.cfi_def_cfa 8, 0
  22              		.loc 1 28 24 is_stmt 0
  23 000c 03348100 		ld	s0,8(sp)
  24              		.cfi_restore 8
  25              		.cfi_def_cfa 2, 16
  26 0010 13010101 		addi	sp,sp,16
  27              		.cfi_def_cfa_offset 0
  28 0014 67800000 		jr	ra
  29              		.cfi_endproc
  30              	.LFE11:
GAS LISTING /tmp/cc01RLuf.s 			page 2


  32              		.text
  33              		.align	2
  34              		.globl	_Z10wrapperRunPv
  36              	_Z10wrapperRunPv:
  37              	.LFB40:
  38              		.file 2 "src/syscall_cpp.cpp"
   1:src/syscall_cpp.cpp **** //
   2:src/syscall_cpp.cpp **** // Created by os on 6/21/22.
   3:src/syscall_cpp.cpp **** //
   4:src/syscall_cpp.cpp **** 
   5:src/syscall_cpp.cpp **** 
   6:src/syscall_cpp.cpp **** #include "../h/syscall_cpp.h"
   7:src/syscall_cpp.cpp **** #include "../h/_thread.h"
   8:src/syscall_cpp.cpp **** #include "../lib/hw.h"
   9:src/syscall_cpp.cpp **** 
  10:src/syscall_cpp.cpp **** typedef  void (Thread::*ptrOnFun)();
  11:src/syscall_cpp.cpp **** struct Wrapper {
  12:src/syscall_cpp.cpp ****     ptrOnFun func;
  13:src/syscall_cpp.cpp **** };
  14:src/syscall_cpp.cpp **** 
  15:src/syscall_cpp.cpp **** void wrapperRun(void* p){
  39              		.loc 2 15 25 is_stmt 1
  40              		.cfi_startproc
  41              	.LVL1:
  16:src/syscall_cpp.cpp ****     if(p == nullptr) return;
  42              		.loc 2 16 5
  43 0000 63080502 		beqz	a0,.L6
  15:src/syscall_cpp.cpp ****     if(p == nullptr) return;
  44              		.loc 2 15 25 is_stmt 0
  45 0004 130101FF 		addi	sp,sp,-16
  46              		.cfi_def_cfa_offset 16
  47 0008 23341100 		sd	ra,8(sp)
  48 000c 23308100 		sd	s0,0(sp)
  49              		.cfi_offset 1, -8
  50              		.cfi_offset 8, -16
  51 0010 13040101 		addi	s0,sp,16
  52              		.cfi_def_cfa 8, 0
  17:src/syscall_cpp.cpp ****     ((Thread*)p)->run();
  53              		.loc 2 17 5 is_stmt 1
  54              		.loc 2 17 23 is_stmt 0
  55 0014 83370500 		ld	a5,0(a0)
  56 0018 83B70701 		ld	a5,16(a5)
  57              		.loc 2 17 22
  58 001c E7800700 		jalr	a5
  59              	.LVL2:
  18:src/syscall_cpp.cpp **** }
  60              		.loc 2 18 1
  61 0020 83308100 		ld	ra,8(sp)
  62              		.cfi_restore 1
  63 0024 03340100 		ld	s0,0(sp)
  64              		.cfi_restore 8
  65              		.cfi_def_cfa 2, 16
  66 0028 13010101 		addi	sp,sp,16
  67              		.cfi_def_cfa_offset 0
  68 002c 67800000 		jr	ra
  69              	.LVL3:
  70              	.L6:
GAS LISTING /tmp/cc01RLuf.s 			page 3


  71 0030 67800000 		ret
  72              		.cfi_endproc
  73              	.LFE40:
  75              		.align	2
  76              		.globl	_ZN6ThreadD2Ev
  78              	_ZN6ThreadD2Ev:
  79              	.LFB49:
  19:src/syscall_cpp.cpp **** 
  20:src/syscall_cpp.cpp **** void* operator new(size_t size){
  21:src/syscall_cpp.cpp ****     void* p = mem_alloc(size);
  22:src/syscall_cpp.cpp ****     return p;
  23:src/syscall_cpp.cpp **** }
  24:src/syscall_cpp.cpp **** 
  25:src/syscall_cpp.cpp **** void* operator new[](size_t size){
  26:src/syscall_cpp.cpp ****     void* p = mem_alloc(size);
  27:src/syscall_cpp.cpp ****     return p;
  28:src/syscall_cpp.cpp **** }
  29:src/syscall_cpp.cpp **** 
  30:src/syscall_cpp.cpp **** 
  31:src/syscall_cpp.cpp **** void operator delete(void * p){
  32:src/syscall_cpp.cpp ****     mem_free(p);
  33:src/syscall_cpp.cpp **** }
  34:src/syscall_cpp.cpp **** 
  35:src/syscall_cpp.cpp **** void operator delete[](void * p){
  36:src/syscall_cpp.cpp ****     mem_free(p);
  37:src/syscall_cpp.cpp **** }
  38:src/syscall_cpp.cpp **** 
  39:src/syscall_cpp.cpp **** Thread::Thread(void (*body)(void *), void *arg) {
  40:src/syscall_cpp.cpp ****     thread_create(&myHandle, body, arg);
  41:src/syscall_cpp.cpp **** }
  42:src/syscall_cpp.cpp **** 
  43:src/syscall_cpp.cpp **** Thread::~Thread() {
  80              		.loc 2 43 1 is_stmt 1
  81              		.cfi_startproc
  82              		.cfi_personality 0x9b,DW.ref.__gxx_personality_v0
  83              		.cfi_lsda 0x1b,.LLSDA49
  84              	.LVL4:
  85 0034 130101FE 		addi	sp,sp,-32
  86              		.cfi_def_cfa_offset 32
  87 0038 233C1100 		sd	ra,24(sp)
  88 003c 23388100 		sd	s0,16(sp)
  89 0040 23349100 		sd	s1,8(sp)
  90              		.cfi_offset 1, -8
  91              		.cfi_offset 8, -16
  92              		.cfi_offset 9, -24
  93 0044 13040102 		addi	s0,sp,32
  94              		.cfi_def_cfa 8, 0
  95 0048 93040500 		mv	s1,a0
  96              	.LBB2:
  97              		.loc 2 43 17 is_stmt 0
  98 004c 97070000 		lla	a5,_ZTV6Thread+16
  98      93870700 
  99 0054 2330F500 		sd	a5,0(a0)
  44:src/syscall_cpp.cpp ****     thread_exit();
 100              		.loc 2 44 5 is_stmt 1
 101              		.loc 2 44 16 is_stmt 0
 102 0058 97000000 		call	_Z11thread_exitv@plt
GAS LISTING /tmp/cc01RLuf.s 			page 4


 102      E7800000 
 103              	.LVL5:
  45:src/syscall_cpp.cpp ****     mem_free(this);
 104              		.loc 2 45 5 is_stmt 1
 105              		.loc 2 45 13 is_stmt 0
 106 0060 13850400 		mv	a0,s1
 107 0064 97000000 		call	_Z8mem_freePv@plt
 107      E7800000 
 108              	.LVL6:
 109              	.LBE2:
  46:src/syscall_cpp.cpp **** }
 110              		.loc 2 46 1
 111 006c 83308101 		ld	ra,24(sp)
 112              		.cfi_restore 1
 113 0070 03340101 		ld	s0,16(sp)
 114              		.cfi_restore 8
 115              		.cfi_def_cfa 2, 32
 116 0074 83348100 		ld	s1,8(sp)
 117              		.cfi_restore 9
 118              	.LVL7:
 119 0078 13010102 		addi	sp,sp,32
 120              		.cfi_def_cfa_offset 0
 121 007c 67800000 		jr	ra
 122              		.cfi_endproc
 123              	.LFE49:
 124              		.globl	__gxx_personality_v0
 125              		.section	.gcc_except_table,"a",@progbits
 126              	.LLSDA49:
 127 0000 FF       		.byte	0xff
 128 0001 FF       		.byte	0xff
 129 0002 03       		.byte	0x3
 130 0003 00       		.byte	0
 131              		.text
 133              		.globl	_ZN6ThreadD1Ev
 134              		.set	_ZN6ThreadD1Ev,_ZN6ThreadD2Ev
 135              		.align	2
 136              		.globl	_ZN9SemaphoreD2Ev
 138              	_ZN9SemaphoreD2Ev:
 139              	.LFB62:
  47:src/syscall_cpp.cpp **** 
  48:src/syscall_cpp.cpp **** int Thread::start() {
  49:src/syscall_cpp.cpp ****     thread_start(myHandle);
  50:src/syscall_cpp.cpp ****     return 0;
  51:src/syscall_cpp.cpp **** }
  52:src/syscall_cpp.cpp **** 
  53:src/syscall_cpp.cpp **** void Thread::dispatch() {
  54:src/syscall_cpp.cpp ****     thread_dispatch();
  55:src/syscall_cpp.cpp **** }
  56:src/syscall_cpp.cpp **** 
  57:src/syscall_cpp.cpp **** int Thread::sleep(time_t) {
  58:src/syscall_cpp.cpp ****     return 0;
  59:src/syscall_cpp.cpp **** }
  60:src/syscall_cpp.cpp **** 
  61:src/syscall_cpp.cpp **** Thread::Thread() {
  62:src/syscall_cpp.cpp **** 
  63:src/syscall_cpp.cpp ****     thread_create_only(&myHandle,wrapperRun,this);
  64:src/syscall_cpp.cpp **** }
GAS LISTING /tmp/cc01RLuf.s 			page 5


  65:src/syscall_cpp.cpp **** 
  66:src/syscall_cpp.cpp **** 
  67:src/syscall_cpp.cpp **** Semaphore::Semaphore(unsigned int init) {
  68:src/syscall_cpp.cpp ****     sem_open(&myHandle, init);
  69:src/syscall_cpp.cpp **** }
  70:src/syscall_cpp.cpp **** 
  71:src/syscall_cpp.cpp **** Semaphore::~Semaphore() {
 140              		.loc 2 71 1 is_stmt 1
 141              		.cfi_startproc
 142              		.cfi_personality 0x9b,DW.ref.__gxx_personality_v0
 143              		.cfi_lsda 0x1b,.LLSDA62
 144              	.LVL8:
 145              	.LBB3:
 146              		.loc 2 71 23 is_stmt 0
 147 0080 97070000 		lla	a5,_ZTV9Semaphore+16
 147      93870700 
 148 0088 2330F500 		sd	a5,0(a0)
  72:src/syscall_cpp.cpp ****     if (myHandle != nullptr) {
 149              		.loc 2 72 5 is_stmt 1
 150              		.loc 2 72 9 is_stmt 0
 151 008c 03358500 		ld	a0,8(a0)
 152              	.LVL9:
 153              		.loc 2 72 5
 154 0090 63060502 		beqz	a0,.L14
 155              	.LBE3:
  71:src/syscall_cpp.cpp ****     if (myHandle != nullptr) {
 156              		.loc 2 71 1
 157 0094 130101FF 		addi	sp,sp,-16
 158              		.cfi_def_cfa_offset 16
 159 0098 23341100 		sd	ra,8(sp)
 160 009c 23308100 		sd	s0,0(sp)
 161              		.cfi_offset 1, -8
 162              		.cfi_offset 8, -16
 163 00a0 13040101 		addi	s0,sp,16
 164              		.cfi_def_cfa 8, 0
 165              	.LBB4:
  73:src/syscall_cpp.cpp ****         sem_close(myHandle);
 166              		.loc 2 73 9 is_stmt 1
 167              		.loc 2 73 18 is_stmt 0
 168 00a4 97000000 		call	_Z9sem_closeP4_sem@plt
 168      E7800000 
 169              	.LVL10:
 170              	.LBE4:
  74:src/syscall_cpp.cpp ****     }
  75:src/syscall_cpp.cpp **** }
 171              		.loc 2 75 1
 172 00ac 83308100 		ld	ra,8(sp)
 173              		.cfi_restore 1
 174 00b0 03340100 		ld	s0,0(sp)
 175              		.cfi_restore 8
 176              		.cfi_def_cfa 2, 16
 177 00b4 13010101 		addi	sp,sp,16
 178              		.cfi_def_cfa_offset 0
 179 00b8 67800000 		jr	ra
 180              	.L14:
 181 00bc 67800000 		ret
 182              		.cfi_endproc
GAS LISTING /tmp/cc01RLuf.s 			page 6


 183              	.LFE62:
 184              		.section	.gcc_except_table
 185              	.LLSDA62:
 186 0004 FF       		.byte	0xff
 187 0005 FF       		.byte	0xff
 188 0006 03       		.byte	0x3
 189 0007 00       		.byte	0
 190              		.text
 192              		.globl	_ZN9SemaphoreD1Ev
 193              		.set	_ZN9SemaphoreD1Ev,_ZN9SemaphoreD2Ev
 194              		.align	2
 195              		.globl	_Znwm
 197              	_Znwm:
 198              	.LFB41:
  20:src/syscall_cpp.cpp ****     void* p = mem_alloc(size);
 199              		.loc 2 20 32 is_stmt 1
 200              		.cfi_startproc
 201              	.LVL11:
 202 00c0 130101FF 		addi	sp,sp,-16
 203              		.cfi_def_cfa_offset 16
 204 00c4 23341100 		sd	ra,8(sp)
 205 00c8 23308100 		sd	s0,0(sp)
 206              		.cfi_offset 1, -8
 207              		.cfi_offset 8, -16
 208 00cc 13040101 		addi	s0,sp,16
 209              		.cfi_def_cfa 8, 0
  21:src/syscall_cpp.cpp ****     return p;
 210              		.loc 2 21 5
  21:src/syscall_cpp.cpp ****     return p;
 211              		.loc 2 21 24 is_stmt 0
 212 00d0 97000000 		call	_Z9mem_allocm@plt
 212      E7800000 
 213              	.LVL12:
  22:src/syscall_cpp.cpp **** }
 214              		.loc 2 22 5 is_stmt 1
  23:src/syscall_cpp.cpp **** 
 215              		.loc 2 23 1 is_stmt 0
 216 00d8 83308100 		ld	ra,8(sp)
 217              		.cfi_restore 1
 218 00dc 03340100 		ld	s0,0(sp)
 219              		.cfi_restore 8
 220              		.cfi_def_cfa 2, 16
 221 00e0 13010101 		addi	sp,sp,16
 222              		.cfi_def_cfa_offset 0
 223 00e4 67800000 		jr	ra
 224              		.cfi_endproc
 225              	.LFE41:
 227              		.align	2
 228              		.globl	_Znam
 230              	_Znam:
 231              	.LFB42:
  25:src/syscall_cpp.cpp ****     void* p = mem_alloc(size);
 232              		.loc 2 25 34 is_stmt 1
 233              		.cfi_startproc
 234              	.LVL13:
 235 00e8 130101FF 		addi	sp,sp,-16
 236              		.cfi_def_cfa_offset 16
GAS LISTING /tmp/cc01RLuf.s 			page 7


 237 00ec 23341100 		sd	ra,8(sp)
 238 00f0 23308100 		sd	s0,0(sp)
 239              		.cfi_offset 1, -8
 240              		.cfi_offset 8, -16
 241 00f4 13040101 		addi	s0,sp,16
 242              		.cfi_def_cfa 8, 0
  26:src/syscall_cpp.cpp ****     return p;
 243              		.loc 2 26 5
  26:src/syscall_cpp.cpp ****     return p;
 244              		.loc 2 26 24 is_stmt 0
 245 00f8 97000000 		call	_Z9mem_allocm@plt
 245      E7800000 
 246              	.LVL14:
  27:src/syscall_cpp.cpp **** }
 247              		.loc 2 27 5 is_stmt 1
  28:src/syscall_cpp.cpp **** 
 248              		.loc 2 28 1 is_stmt 0
 249 0100 83308100 		ld	ra,8(sp)
 250              		.cfi_restore 1
 251 0104 03340100 		ld	s0,0(sp)
 252              		.cfi_restore 8
 253              		.cfi_def_cfa 2, 16
 254 0108 13010101 		addi	sp,sp,16
 255              		.cfi_def_cfa_offset 0
 256 010c 67800000 		jr	ra
 257              		.cfi_endproc
 258              	.LFE42:
 260              		.align	2
 261              		.globl	_ZdlPv
 263              	_ZdlPv:
 264              	.LFB43:
  31:src/syscall_cpp.cpp ****     mem_free(p);
 265              		.loc 2 31 31 is_stmt 1
 266              		.cfi_startproc
 267              	.LVL15:
 268 0110 130101FF 		addi	sp,sp,-16
 269              		.cfi_def_cfa_offset 16
 270 0114 23341100 		sd	ra,8(sp)
 271 0118 23308100 		sd	s0,0(sp)
 272              		.cfi_offset 1, -8
 273              		.cfi_offset 8, -16
 274 011c 13040101 		addi	s0,sp,16
 275              		.cfi_def_cfa 8, 0
  32:src/syscall_cpp.cpp **** }
 276              		.loc 2 32 5
  32:src/syscall_cpp.cpp **** }
 277              		.loc 2 32 13 is_stmt 0
 278 0120 97000000 		call	_Z8mem_freePv@plt
 278      E7800000 
 279              	.LVL16:
  33:src/syscall_cpp.cpp **** 
 280              		.loc 2 33 1
 281 0128 83308100 		ld	ra,8(sp)
 282              		.cfi_restore 1
 283 012c 03340100 		ld	s0,0(sp)
 284              		.cfi_restore 8
 285              		.cfi_def_cfa 2, 16
GAS LISTING /tmp/cc01RLuf.s 			page 8


 286 0130 13010101 		addi	sp,sp,16
 287              		.cfi_def_cfa_offset 0
 288 0134 67800000 		jr	ra
 289              		.cfi_endproc
 290              	.LFE43:
 292              		.align	2
 293              		.globl	_ZN6ThreadD0Ev
 295              	_ZN6ThreadD0Ev:
 296              	.LFB51:
  43:src/syscall_cpp.cpp ****     thread_exit();
 297              		.loc 2 43 1 is_stmt 1
 298              		.cfi_startproc
 299              	.LVL17:
 300 0138 130101FE 		addi	sp,sp,-32
 301              		.cfi_def_cfa_offset 32
 302 013c 233C1100 		sd	ra,24(sp)
 303 0140 23388100 		sd	s0,16(sp)
 304 0144 23349100 		sd	s1,8(sp)
 305              		.cfi_offset 1, -8
 306              		.cfi_offset 8, -16
 307              		.cfi_offset 9, -24
 308 0148 13040102 		addi	s0,sp,32
 309              		.cfi_def_cfa 8, 0
 310 014c 93040500 		mv	s1,a0
  46:src/syscall_cpp.cpp **** 
 311              		.loc 2 46 1 is_stmt 0
 312 0150 97000000 		call	_ZN6ThreadD1Ev
 312      E7800000 
 313              	.LVL18:
 314 0158 13850400 		mv	a0,s1
 315 015c 97000000 		call	_ZdlPv
 315      E7800000 
 316              	.LVL19:
 317 0164 83308101 		ld	ra,24(sp)
 318              		.cfi_restore 1
 319 0168 03340101 		ld	s0,16(sp)
 320              		.cfi_restore 8
 321              		.cfi_def_cfa 2, 32
 322 016c 83348100 		ld	s1,8(sp)
 323              		.cfi_restore 9
 324              	.LVL20:
 325 0170 13010102 		addi	sp,sp,32
 326              		.cfi_def_cfa_offset 0
 327 0174 67800000 		jr	ra
 328              		.cfi_endproc
 329              	.LFE51:
 331              		.align	2
 332              		.globl	_ZN9SemaphoreD0Ev
 334              	_ZN9SemaphoreD0Ev:
 335              	.LFB64:
  71:src/syscall_cpp.cpp ****     if (myHandle != nullptr) {
 336              		.loc 2 71 1 is_stmt 1
 337              		.cfi_startproc
 338              	.LVL21:
 339 0178 130101FE 		addi	sp,sp,-32
 340              		.cfi_def_cfa_offset 32
 341 017c 233C1100 		sd	ra,24(sp)
GAS LISTING /tmp/cc01RLuf.s 			page 9


 342 0180 23388100 		sd	s0,16(sp)
 343 0184 23349100 		sd	s1,8(sp)
 344              		.cfi_offset 1, -8
 345              		.cfi_offset 8, -16
 346              		.cfi_offset 9, -24
 347 0188 13040102 		addi	s0,sp,32
 348              		.cfi_def_cfa 8, 0
 349 018c 93040500 		mv	s1,a0
 350              		.loc 2 75 1 is_stmt 0
 351 0190 97000000 		call	_ZN9SemaphoreD1Ev
 351      E7800000 
 352              	.LVL22:
 353 0198 13850400 		mv	a0,s1
 354 019c 97000000 		call	_ZdlPv
 354      E7800000 
 355              	.LVL23:
 356 01a4 83308101 		ld	ra,24(sp)
 357              		.cfi_restore 1
 358 01a8 03340101 		ld	s0,16(sp)
 359              		.cfi_restore 8
 360              		.cfi_def_cfa 2, 32
 361 01ac 83348100 		ld	s1,8(sp)
 362              		.cfi_restore 9
 363              	.LVL24:
 364 01b0 13010102 		addi	sp,sp,32
 365              		.cfi_def_cfa_offset 0
 366 01b4 67800000 		jr	ra
 367              		.cfi_endproc
 368              	.LFE64:
 370              		.align	2
 371              		.globl	_ZdaPv
 373              	_ZdaPv:
 374              	.LFB44:
  35:src/syscall_cpp.cpp ****     mem_free(p);
 375              		.loc 2 35 33 is_stmt 1
 376              		.cfi_startproc
 377              	.LVL25:
 378 01b8 130101FF 		addi	sp,sp,-16
 379              		.cfi_def_cfa_offset 16
 380 01bc 23341100 		sd	ra,8(sp)
 381 01c0 23308100 		sd	s0,0(sp)
 382              		.cfi_offset 1, -8
 383              		.cfi_offset 8, -16
 384 01c4 13040101 		addi	s0,sp,16
 385              		.cfi_def_cfa 8, 0
  36:src/syscall_cpp.cpp **** }
 386              		.loc 2 36 5
  36:src/syscall_cpp.cpp **** }
 387              		.loc 2 36 13 is_stmt 0
 388 01c8 97000000 		call	_Z8mem_freePv@plt
 388      E7800000 
 389              	.LVL26:
  37:src/syscall_cpp.cpp **** 
 390              		.loc 2 37 1
 391 01d0 83308100 		ld	ra,8(sp)
 392              		.cfi_restore 1
 393 01d4 03340100 		ld	s0,0(sp)
GAS LISTING /tmp/cc01RLuf.s 			page 10


 394              		.cfi_restore 8
 395              		.cfi_def_cfa 2, 16
 396 01d8 13010101 		addi	sp,sp,16
 397              		.cfi_def_cfa_offset 0
 398 01dc 67800000 		jr	ra
 399              		.cfi_endproc
 400              	.LFE44:
 402              		.align	2
 403              		.globl	_ZN6ThreadC2EPFvPvES0_
 405              	_ZN6ThreadC2EPFvPvES0_:
 406              	.LFB46:
  39:src/syscall_cpp.cpp ****     thread_create(&myHandle, body, arg);
 407              		.loc 2 39 1 is_stmt 1
 408              		.cfi_startproc
 409              	.LVL27:
 410 01e0 130101FF 		addi	sp,sp,-16
 411              		.cfi_def_cfa_offset 16
 412 01e4 23341100 		sd	ra,8(sp)
 413 01e8 23308100 		sd	s0,0(sp)
 414              		.cfi_offset 1, -8
 415              		.cfi_offset 8, -16
 416 01ec 13040101 		addi	s0,sp,16
 417              		.cfi_def_cfa 8, 0
 418              	.LBB5:
  39:src/syscall_cpp.cpp ****     thread_create(&myHandle, body, arg);
 419              		.loc 2 39 47 is_stmt 0
 420 01f0 97070000 		lla	a5,_ZTV6Thread+16
 420      93870700 
 421 01f8 2330F500 		sd	a5,0(a0)
  40:src/syscall_cpp.cpp **** }
 422              		.loc 2 40 5 is_stmt 1
  40:src/syscall_cpp.cpp **** }
 423              		.loc 2 40 18 is_stmt 0
 424 01fc 13058500 		addi	a0,a0,8
 425              	.LVL28:
 426 0200 97000000 		call	_Z13thread_createPP7_threadPFvPvES2_@plt
 426      E7800000 
 427              	.LVL29:
 428              	.LBE5:
  41:src/syscall_cpp.cpp **** 
 429              		.loc 2 41 1
 430 0208 83308100 		ld	ra,8(sp)
 431              		.cfi_restore 1
 432 020c 03340100 		ld	s0,0(sp)
 433              		.cfi_restore 8
 434              		.cfi_def_cfa 2, 16
 435 0210 13010101 		addi	sp,sp,16
 436              		.cfi_def_cfa_offset 0
 437 0214 67800000 		jr	ra
 438              		.cfi_endproc
 439              	.LFE46:
 441              		.globl	_ZN6ThreadC1EPFvPvES0_
 442              		.set	_ZN6ThreadC1EPFvPvES0_,_ZN6ThreadC2EPFvPvES0_
 443              		.align	2
 444              		.globl	_ZN6Thread5startEv
 446              	_ZN6Thread5startEv:
 447              	.LFB52:
GAS LISTING /tmp/cc01RLuf.s 			page 11


  48:src/syscall_cpp.cpp ****     thread_start(myHandle);
 448              		.loc 2 48 21 is_stmt 1
 449              		.cfi_startproc
 450              	.LVL30:
 451 0218 130101FF 		addi	sp,sp,-16
 452              		.cfi_def_cfa_offset 16
 453 021c 23341100 		sd	ra,8(sp)
 454 0220 23308100 		sd	s0,0(sp)
 455              		.cfi_offset 1, -8
 456              		.cfi_offset 8, -16
 457 0224 13040101 		addi	s0,sp,16
 458              		.cfi_def_cfa 8, 0
  49:src/syscall_cpp.cpp ****     return 0;
 459              		.loc 2 49 5
  49:src/syscall_cpp.cpp ****     return 0;
 460              		.loc 2 49 17 is_stmt 0
 461 0228 03358500 		ld	a0,8(a0)
 462              	.LVL31:
 463 022c 97000000 		call	_Z12thread_startP7_thread@plt
 463      E7800000 
 464              	.LVL32:
  50:src/syscall_cpp.cpp **** }
 465              		.loc 2 50 5 is_stmt 1
  51:src/syscall_cpp.cpp **** 
 466              		.loc 2 51 1 is_stmt 0
 467 0234 13050000 		li	a0,0
 468 0238 83308100 		ld	ra,8(sp)
 469              		.cfi_restore 1
 470 023c 03340100 		ld	s0,0(sp)
 471              		.cfi_restore 8
 472              		.cfi_def_cfa 2, 16
 473 0240 13010101 		addi	sp,sp,16
 474              		.cfi_def_cfa_offset 0
 475 0244 67800000 		jr	ra
 476              		.cfi_endproc
 477              	.LFE52:
 479              		.align	2
 480              		.globl	_ZN6Thread8dispatchEv
 482              	_ZN6Thread8dispatchEv:
 483              	.LFB53:
  53:src/syscall_cpp.cpp ****     thread_dispatch();
 484              		.loc 2 53 25 is_stmt 1
 485              		.cfi_startproc
 486 0248 130101FF 		addi	sp,sp,-16
 487              		.cfi_def_cfa_offset 16
 488 024c 23341100 		sd	ra,8(sp)
 489 0250 23308100 		sd	s0,0(sp)
 490              		.cfi_offset 1, -8
 491              		.cfi_offset 8, -16
 492 0254 13040101 		addi	s0,sp,16
 493              		.cfi_def_cfa 8, 0
  54:src/syscall_cpp.cpp **** }
 494              		.loc 2 54 5
  54:src/syscall_cpp.cpp **** }
 495              		.loc 2 54 20 is_stmt 0
 496 0258 97000000 		call	_Z15thread_dispatchv@plt
 496      E7800000 
GAS LISTING /tmp/cc01RLuf.s 			page 12


 497              	.LVL33:
  55:src/syscall_cpp.cpp **** 
 498              		.loc 2 55 1
 499 0260 83308100 		ld	ra,8(sp)
 500              		.cfi_restore 1
 501 0264 03340100 		ld	s0,0(sp)
 502              		.cfi_restore 8
 503              		.cfi_def_cfa 2, 16
 504 0268 13010101 		addi	sp,sp,16
 505              		.cfi_def_cfa_offset 0
 506 026c 67800000 		jr	ra
 507              		.cfi_endproc
 508              	.LFE53:
 510              		.align	2
 511              		.globl	_ZN6Thread5sleepEm
 513              	_ZN6Thread5sleepEm:
 514              	.LFB54:
  57:src/syscall_cpp.cpp ****     return 0;
 515              		.loc 2 57 27 is_stmt 1
 516              		.cfi_startproc
 517 0270 130101FF 		addi	sp,sp,-16
 518              		.cfi_def_cfa_offset 16
 519 0274 23348100 		sd	s0,8(sp)
 520              		.cfi_offset 8, -8
 521 0278 13040101 		addi	s0,sp,16
 522              		.cfi_def_cfa 8, 0
  58:src/syscall_cpp.cpp **** }
 523              		.loc 2 58 5
  59:src/syscall_cpp.cpp **** 
 524              		.loc 2 59 1 is_stmt 0
 525 027c 13050000 		li	a0,0
 526 0280 03348100 		ld	s0,8(sp)
 527              		.cfi_restore 8
 528              		.cfi_def_cfa 2, 16
 529 0284 13010101 		addi	sp,sp,16
 530              		.cfi_def_cfa_offset 0
 531 0288 67800000 		jr	ra
 532              		.cfi_endproc
 533              	.LFE54:
 535              		.align	2
 536              		.globl	_ZN6ThreadC2Ev
 538              	_ZN6ThreadC2Ev:
 539              	.LFB56:
  61:src/syscall_cpp.cpp **** 
 540              		.loc 2 61 1 is_stmt 1
 541              		.cfi_startproc
 542              	.LVL34:
 543 028c 130101FF 		addi	sp,sp,-16
 544              		.cfi_def_cfa_offset 16
 545 0290 23341100 		sd	ra,8(sp)
 546 0294 23308100 		sd	s0,0(sp)
 547              		.cfi_offset 1, -8
 548              		.cfi_offset 8, -16
 549 0298 13040101 		addi	s0,sp,16
 550              		.cfi_def_cfa 8, 0
 551              	.LBB6:
  61:src/syscall_cpp.cpp **** 
GAS LISTING /tmp/cc01RLuf.s 			page 13


 552              		.loc 2 61 16 is_stmt 0
 553 029c 97070000 		lla	a5,_ZTV6Thread+16
 553      93870700 
 554 02a4 2330F500 		sd	a5,0(a0)
  63:src/syscall_cpp.cpp **** }
 555              		.loc 2 63 5 is_stmt 1
  63:src/syscall_cpp.cpp **** }
 556              		.loc 2 63 23 is_stmt 0
 557 02a8 13060500 		mv	a2,a0
 558 02ac 97050000 		lla	a1,_Z10wrapperRunPv
 558      93850500 
 559 02b4 13058500 		addi	a0,a0,8
 560              	.LVL35:
 561 02b8 97000000 		call	_Z18thread_create_onlyPP7_threadPFvPvES2_@plt
 561      E7800000 
 562              	.LVL36:
 563              	.LBE6:
  64:src/syscall_cpp.cpp **** 
 564              		.loc 2 64 1
 565 02c0 83308100 		ld	ra,8(sp)
 566              		.cfi_restore 1
 567 02c4 03340100 		ld	s0,0(sp)
 568              		.cfi_restore 8
 569              		.cfi_def_cfa 2, 16
 570 02c8 13010101 		addi	sp,sp,16
 571              		.cfi_def_cfa_offset 0
 572 02cc 67800000 		jr	ra
 573              		.cfi_endproc
 574              	.LFE56:
 576              		.globl	_ZN6ThreadC1Ev
 577              		.set	_ZN6ThreadC1Ev,_ZN6ThreadC2Ev
 578              		.align	2
 579              		.globl	_ZN9SemaphoreC2Ej
 581              	_ZN9SemaphoreC2Ej:
 582              	.LFB59:
  67:src/syscall_cpp.cpp ****     sem_open(&myHandle, init);
 583              		.loc 2 67 1 is_stmt 1
 584              		.cfi_startproc
 585              	.LVL37:
 586 02d0 130101FF 		addi	sp,sp,-16
 587              		.cfi_def_cfa_offset 16
 588 02d4 23341100 		sd	ra,8(sp)
 589 02d8 23308100 		sd	s0,0(sp)
 590              		.cfi_offset 1, -8
 591              		.cfi_offset 8, -16
 592 02dc 13040101 		addi	s0,sp,16
 593              		.cfi_def_cfa 8, 0
 594              	.LBB7:
  67:src/syscall_cpp.cpp ****     sem_open(&myHandle, init);
 595              		.loc 2 67 39 is_stmt 0
 596 02e0 97070000 		lla	a5,_ZTV9Semaphore+16
 596      93870700 
 597 02e8 2330F500 		sd	a5,0(a0)
  68:src/syscall_cpp.cpp **** }
 598              		.loc 2 68 5 is_stmt 1
  68:src/syscall_cpp.cpp **** }
 599              		.loc 2 68 13 is_stmt 0
GAS LISTING /tmp/cc01RLuf.s 			page 14


 600 02ec 13058500 		addi	a0,a0,8
 601              	.LVL38:
 602 02f0 97000000 		call	_Z8sem_openPP4_semj@plt
 602      E7800000 
 603              	.LVL39:
 604              	.LBE7:
  69:src/syscall_cpp.cpp **** 
 605              		.loc 2 69 1
 606 02f8 83308100 		ld	ra,8(sp)
 607              		.cfi_restore 1
 608 02fc 03340100 		ld	s0,0(sp)
 609              		.cfi_restore 8
 610              		.cfi_def_cfa 2, 16
 611 0300 13010101 		addi	sp,sp,16
 612              		.cfi_def_cfa_offset 0
 613 0304 67800000 		jr	ra
 614              		.cfi_endproc
 615              	.LFE59:
 617              		.globl	_ZN9SemaphoreC1Ej
 618              		.set	_ZN9SemaphoreC1Ej,_ZN9SemaphoreC2Ej
 619              		.align	2
 620              		.globl	_ZN9Semaphore4waitEv
 622              	_ZN9Semaphore4waitEv:
 623              	.LFB65:
  76:src/syscall_cpp.cpp **** 
  77:src/syscall_cpp.cpp **** int Semaphore::wait() {
 624              		.loc 2 77 23 is_stmt 1
 625              		.cfi_startproc
 626              	.LVL40:
  78:src/syscall_cpp.cpp ****     if (myHandle != nullptr) {
 627              		.loc 2 78 5
 628              		.loc 2 78 9 is_stmt 0
 629 0308 03358500 		ld	a0,8(a0)
 630              	.LVL41:
 631              		.loc 2 78 5
 632 030c 63060502 		beqz	a0,.L43
  77:src/syscall_cpp.cpp ****     if (myHandle != nullptr) {
 633              		.loc 2 77 23
 634 0310 130101FF 		addi	sp,sp,-16
 635              		.cfi_def_cfa_offset 16
 636 0314 23341100 		sd	ra,8(sp)
 637 0318 23308100 		sd	s0,0(sp)
 638              		.cfi_offset 1, -8
 639              		.cfi_offset 8, -16
 640 031c 13040101 		addi	s0,sp,16
 641              		.cfi_def_cfa 8, 0
  79:src/syscall_cpp.cpp ****         return sem_wait(myHandle);
 642              		.loc 2 79 9 is_stmt 1
 643              		.loc 2 79 24 is_stmt 0
 644 0320 97000000 		call	_Z8sem_waitP4_sem@plt
 644      E7800000 
 645              	.LVL42:
  80:src/syscall_cpp.cpp ****     }
  81:src/syscall_cpp.cpp ****     return -1;
  82:src/syscall_cpp.cpp **** }
 646              		.loc 2 82 1
 647 0328 83308100 		ld	ra,8(sp)
GAS LISTING /tmp/cc01RLuf.s 			page 15


 648              		.cfi_restore 1
 649 032c 03340100 		ld	s0,0(sp)
 650              		.cfi_restore 8
 651              		.cfi_def_cfa 2, 16
 652 0330 13010101 		addi	sp,sp,16
 653              		.cfi_def_cfa_offset 0
 654 0334 67800000 		jr	ra
 655              	.L43:
  81:src/syscall_cpp.cpp **** }
 656              		.loc 2 81 13
 657 0338 1305F0FF 		li	a0,-1
 658              		.loc 2 82 1
 659 033c 67800000 		ret
 660              		.cfi_endproc
 661              	.LFE65:
 663              		.align	2
 664              		.globl	_ZN9Semaphore6signalEv
 666              	_ZN9Semaphore6signalEv:
 667              	.LFB66:
  83:src/syscall_cpp.cpp **** 
  84:src/syscall_cpp.cpp **** int Semaphore::signal() {
 668              		.loc 2 84 25 is_stmt 1
 669              		.cfi_startproc
 670              	.LVL43:
  85:src/syscall_cpp.cpp ****     if (myHandle != nullptr) {
 671              		.loc 2 85 5
 672              		.loc 2 85 9 is_stmt 0
 673 0340 03358500 		ld	a0,8(a0)
 674              	.LVL44:
 675              		.loc 2 85 5
 676 0344 63060502 		beqz	a0,.L50
  84:src/syscall_cpp.cpp ****     if (myHandle != nullptr) {
 677              		.loc 2 84 25
 678 0348 130101FF 		addi	sp,sp,-16
 679              		.cfi_def_cfa_offset 16
 680 034c 23341100 		sd	ra,8(sp)
 681 0350 23308100 		sd	s0,0(sp)
 682              		.cfi_offset 1, -8
 683              		.cfi_offset 8, -16
 684 0354 13040101 		addi	s0,sp,16
 685              		.cfi_def_cfa 8, 0
  86:src/syscall_cpp.cpp ****         return sem_signal(myHandle);
 686              		.loc 2 86 9 is_stmt 1
 687              		.loc 2 86 26 is_stmt 0
 688 0358 97000000 		call	_Z10sem_signalP4_sem@plt
 688      E7800000 
 689              	.LVL45:
  87:src/syscall_cpp.cpp ****     }
  88:src/syscall_cpp.cpp ****     return -1;
  89:src/syscall_cpp.cpp **** }
 690              		.loc 2 89 1
 691 0360 83308100 		ld	ra,8(sp)
 692              		.cfi_restore 1
 693 0364 03340100 		ld	s0,0(sp)
 694              		.cfi_restore 8
 695              		.cfi_def_cfa 2, 16
 696 0368 13010101 		addi	sp,sp,16
GAS LISTING /tmp/cc01RLuf.s 			page 16


 697              		.cfi_def_cfa_offset 0
 698 036c 67800000 		jr	ra
 699              	.L50:
  88:src/syscall_cpp.cpp **** }
 700              		.loc 2 88 13
 701 0370 1305F0FF 		li	a0,-1
 702              		.loc 2 89 1
 703 0374 67800000 		ret
 704              		.cfi_endproc
 705              	.LFE66:
 707              		.align	2
 708              		.globl	_ZN7Console4getcEv
 710              	_ZN7Console4getcEv:
 711              	.LFB67:
  90:src/syscall_cpp.cpp **** 
  91:src/syscall_cpp.cpp **** char Console::getc() {
 712              		.loc 2 91 22 is_stmt 1
 713              		.cfi_startproc
 714 0378 130101FF 		addi	sp,sp,-16
 715              		.cfi_def_cfa_offset 16
 716 037c 23341100 		sd	ra,8(sp)
 717 0380 23308100 		sd	s0,0(sp)
 718              		.cfi_offset 1, -8
 719              		.cfi_offset 8, -16
 720 0384 13040101 		addi	s0,sp,16
 721              		.cfi_def_cfa 8, 0
  92:src/syscall_cpp.cpp ****     return ::getc();
 722              		.loc 2 92 5
 723              		.loc 2 92 18 is_stmt 0
 724 0388 97000000 		call	_Z4getcv@plt
 724      E7800000 
 725              	.LVL46:
  93:src/syscall_cpp.cpp **** }
 726              		.loc 2 93 1
 727 0390 83308100 		ld	ra,8(sp)
 728              		.cfi_restore 1
 729 0394 03340100 		ld	s0,0(sp)
 730              		.cfi_restore 8
 731              		.cfi_def_cfa 2, 16
 732 0398 13010101 		addi	sp,sp,16
 733              		.cfi_def_cfa_offset 0
 734 039c 67800000 		jr	ra
 735              		.cfi_endproc
 736              	.LFE67:
 738              		.align	2
 739              		.globl	_ZN7Console4putcEc
 741              	_ZN7Console4putcEc:
 742              	.LFB68:
  94:src/syscall_cpp.cpp **** 
  95:src/syscall_cpp.cpp **** void Console::putc(char c) {
 743              		.loc 2 95 28 is_stmt 1
 744              		.cfi_startproc
 745              	.LVL47:
 746 03a0 130101FF 		addi	sp,sp,-16
 747              		.cfi_def_cfa_offset 16
 748 03a4 23341100 		sd	ra,8(sp)
 749 03a8 23308100 		sd	s0,0(sp)
GAS LISTING /tmp/cc01RLuf.s 			page 17


 750              		.cfi_offset 1, -8
 751              		.cfi_offset 8, -16
 752 03ac 13040101 		addi	s0,sp,16
 753              		.cfi_def_cfa 8, 0
  96:src/syscall_cpp.cpp ****     ::putc(c);
 754              		.loc 2 96 5
 755              		.loc 2 96 11 is_stmt 0
 756 03b0 97000000 		call	_Z4putcc@plt
 756      E7800000 
 757              	.LVL48:
  97:src/syscall_cpp.cpp **** }...
 758              		.loc 2 97 1
 759 03b8 83308100 		ld	ra,8(sp)
 760              		.cfi_restore 1
 761 03bc 03340100 		ld	s0,0(sp)
 762              		.cfi_restore 8
 763              		.cfi_def_cfa 2, 16
 764 03c0 13010101 		addi	sp,sp,16
 765              		.cfi_def_cfa_offset 0
 766 03c4 67800000 		jr	ra
 767              		.cfi_endproc
 768              	.LFE68:
 770              		.weak	_ZTV6Thread
 771              		.section	.data.rel.ro.local._ZTV6Thread,"awG",@progbits,_ZTV6Thread,comdat
 772              		.align	3
 775              	_ZTV6Thread:
 776 0000 00000000 		.dword	0
 776      00000000 
 777 0008 00000000 		.dword	0
 777      00000000 
 778 0010 00000000 		.dword	_ZN6ThreadD1Ev
 778      00000000 
 779 0018 00000000 		.dword	_ZN6ThreadD0Ev
 779      00000000 
 780 0020 00000000 		.dword	_ZN6Thread3runEv
 780      00000000 
 781              		.weak	_ZTV9Semaphore
 782              		.section	.data.rel.ro.local._ZTV9Semaphore,"awG",@progbits,_ZTV9Semaphore,comdat
 783              		.align	3
 786              	_ZTV9Semaphore:
 787 0000 00000000 		.dword	0
 787      00000000 
 788 0008 00000000 		.dword	0
 788      00000000 
 789 0010 00000000 		.dword	_ZN9SemaphoreD1Ev
 789      00000000 
 790 0018 00000000 		.dword	_ZN9SemaphoreD0Ev
 790      00000000 
 791              		.text
 792              	.Letext0:
 793              		.file 3 "src/../h/../lib/hw.h"
 794              		.file 4 "src/../h/_thread.h"
 795              		.file 5 "src/../h/syscall_c.h"
 3927              		.align	3
 3930              	DW.ref.__gxx_personality_v0:
 3931 0000 00000000 		.dword	__gxx_personality_v0
 3931      00000000 
GAS LISTING /tmp/cc01RLuf.s 			page 18


 3932              		.ident	"GCC: (Ubuntu 9.4.0-1ubuntu1~20.04) 9.4.0"
 3933              		.section	.note.GNU-stack,"",@progbits
GAS LISTING /tmp/cc01RLuf.s 			page 19

