GAS LISTING /tmp/cc01RLuf.s 			page 1


   1              		.file	"syscall_cpp.cpp"
   2              		.option pic
   3              		.option norelax
   4              		.text
   5              	.Ltext0:
   6              		.section	.text._ZN6Thread3runEv,"axG",@progbits,_ZN6Thread3runEv,comdat
   7              		.align	2
   8              		.weak	_ZN6Thread3runEv
  10              	_ZN6Thread3runEv:
  11              	.LFB11:
  12              		.file 1 "src/../h/syscall_cpp.h"
   1:src/../h/syscall_cpp.h **** //
   2:src/../h/syscall_cpp.h **** // Created by os on 6/21/22.
   3:src/../h/syscall_cpp.h **** //
   4:src/../h/syscall_cpp.h **** 
   5:src/../h/syscall_cpp.h **** #ifndef OS_PROJEKAT_SYSCALL_CPP_H
   6:src/../h/syscall_cpp.h **** #define OS_PROJEKAT_SYSCALL_CPP_H
   7:src/../h/syscall_cpp.h **** 
   8:src/../h/syscall_cpp.h **** #include "syscall_c.h"
   9:src/../h/syscall_cpp.h **** 
  10:src/../h/syscall_cpp.h **** void* operator new(size_t);
  11:src/../h/syscall_cpp.h **** void* operator new[](size_t);
  12:src/../h/syscall_cpp.h **** void operator delete(void*);
  13:src/../h/syscall_cpp.h **** void operator delete[](void*);
  14:src/../h/syscall_cpp.h **** 
  15:src/../h/syscall_cpp.h **** class Thread{
  16:src/../h/syscall_cpp.h **** public:
  17:src/../h/syscall_cpp.h ****     Thread (void (*body)(void*), void* arg);
  18:src/../h/syscall_cpp.h ****     virtual ~Thread();
  19:src/../h/syscall_cpp.h **** 
  20:src/../h/syscall_cpp.h ****     int start();
  21:src/../h/syscall_cpp.h **** 
  22:src/../h/syscall_cpp.h ****     static void dispatch();
  23:src/../h/syscall_cpp.h ****     static int sleep(time_t);
  24:src/../h/syscall_cpp.h **** 
  25:src/../h/syscall_cpp.h ****     friend void wrapperRun(void* p);
  26:src/../h/syscall_cpp.h **** protected:
  27:src/../h/syscall_cpp.h ****     Thread();
  28:src/../h/syscall_cpp.h ****     virtual void run(){};
  13              		.loc 1 28 18
  14              		.cfi_startproc
  15              	.LVL0:
  16 0000 130101FF 		addi	sp,sp,-16
  17              		.cfi_def_cfa_offset 16
  18 0004 23348100 		sd	s0,8(sp)
  19              		.cfi_offset 8, -8
  20 0008 13040101 		addi	s0,sp,16
  21              		.cfi_def_cfa 8, 0
  22              		.loc 1 28 24 is_stmt 0
  23 000c 03348100 		ld	s0,8(sp)
  24              		.cfi_restore 8
  25              		.cfi_def_cfa 2, 16
  26 0010 13010101 		addi	sp,sp,16
  27              		.cfi_def_cfa_offset 0
  28 0014 67800000 		jr	ra
  29              		.cfi_endproc
  30              	.LFE11:
GAS LISTING /tmp/cc01RLuf.s 			page 2


  32              		.text
  33              		.align	2
  34              		.globl	_Z10wrapperRunPv
  36              	_Z10wrapperRunPv:
  37              	.LFB40:
  38              		.file 2 "src/syscall_cpp.cpp"
   1:src/syscall_cpp.cpp **** //
   2:src/syscall_cpp.cpp **** // Created by os on 6/21/22.
   3:src/syscall_cpp.cpp **** //
   4:src/syscall_cpp.cpp **** 
   5:src/syscall_cpp.cpp **** 
   6:src/syscall_cpp.cpp **** #include "../h/syscall_cpp.h"
   7:src/syscall_cpp.cpp **** #include "../h/_thread.h"
   8:src/syscall_cpp.cpp **** #include "../lib/hw.h"
   9:src/syscall_cpp.cpp **** 
  10:src/syscall_cpp.cpp **** typedef  void (Thread::*ptrOnFun)();
  11:src/syscall_cpp.cpp **** struct Wrapper {
  12:src/syscall_cpp.cpp ****     ptrOnFun func;
  13:src/syscall_cpp.cpp **** };
  14:src/syscall_cpp.cpp **** 
  15:src/syscall_cpp.cpp **** void wrapperRun(void* p){
  39              		.loc 2 15 25 is_stmt 1
  40              		.cfi_startproc
  41              	.LVL1:
  16:src/syscall_cpp.cpp ****     if(p == nullptr) return;
  42              		.loc 2 16 5
  43 0000 63080502 		beqz	a0,.L6
  15:src/syscall_cpp.cpp ****     if(p == nullptr) return;
  44              		.loc 2 15 25 is_stmt 0
  45 0004 130101FF 		addi	sp,sp,-16
  46              		.cfi_def_cfa_offset 16
  47 0008 23341100 		sd	ra,8(sp)
  48 000c 23308100 		sd	s0,0(sp)
  49              		.cfi_offset 1, -8
  50              		.cfi_offset 8, -16
  51 0010 13040101 		addi	s0,sp,16
  52              		.cfi_def_cfa 8, 0
  17:src/syscall_cpp.cpp ****     ((Thread*)p)->run();
  53              		.loc 2 17 5 is_stmt 1
  54              		.loc 2 17 23 is_stmt 0
  55 0014 83370500 		ld	a5,0(a0)
  56 0018 83B70701 		ld	a5,16(a5)
  57              		.loc 2 17 22
  58 001c E7800700 		jalr	a5
  59              	.LVL2:
  18:src/syscall_cpp.cpp **** }
  60              		.loc 2 18 1
  61 0020 83308100 		ld	ra,8(sp)
  62              		.cfi_restore 1
  63 0024 03340100 		ld	s0,0(sp)
  64              		.cfi_restore 8
  65              		.cfi_def_cfa 2, 16
  66 0028 13010101 		addi	sp,sp,16
  67              		.cfi_def_cfa_offset 0
  68 002c 67800000 		jr	ra
  69              	.LVL3:
  70              	.L6:
GAS LISTING /tmp/cc01RLuf.s 			page 3


  71 0030 67800000 		ret
  72              		.cfi_endproc
  73              	.LFE40:
  75              		.align	2
  76              		.globl	_ZN6ThreadD2Ev
  78              	_ZN6ThreadD2Ev:
  79              	.LFB49:
  19:src/syscall_cpp.cpp **** 
  20:src/syscall_cpp.cpp **** void* operator new(size_t size){
  21:src/syscall_cpp.cpp ****     void* p = mem_alloc(size);
  22:src/syscall_cpp.cpp ****     return p;
  23:src/syscall_cpp.cpp **** }
  24:src/syscall_cpp.cpp **** 
  25:src/syscall_cpp.cpp **** void* operator new[](size_t size){
  26:src/syscall_cpp.cpp ****     void* p = mem_alloc(size);
  27:src/syscall_cpp.cpp ****     return p;
  28:src/syscall_cpp.cpp **** }
  29:src/syscall_cpp.cpp **** 
  30:src/syscall_cpp.cpp **** 
  31:src/syscall_cpp.cpp **** void operator delete(void * p){
  32:src/syscall_cpp.cpp ****     mem_free(p);
  33:src/syscall_cpp.cpp **** }
  34:src/syscall_cpp.cpp **** 
  35:src/syscall_cpp.cpp **** void operator delete[](void * p){
  36:src/syscall_cpp.cpp ****     mem_free(p);
  37:src/syscall_cpp.cpp **** }
  38:src/syscall_cpp.cpp **** 
  39:src/syscall_cpp.cpp **** Thread::Thread(void (*body)(void *), void *arg) {
  40:src/syscall_cpp.cpp ****     thread_create(&myHandle, body, arg);
  41:src/syscall_cpp.cpp **** }
  42:src/syscall_cpp.cpp **** 
  43:src/syscall_cpp.cpp **** Thread::~Thread() {
  80              		.loc 2 43 1 is_stmt 1
  81              		.cfi_startproc
  82              		.cfi_personality 0x9b,DW.ref.__gxx_personality_v0
  83              		.cfi_lsda 0x1b,.LLSDA49
  84              	.LVL4:
  85 0034 130101FE 		addi	sp,sp,-32
  86              		.cfi_def_cfa_offset 32
  87 0038 233C1100 		sd	ra,24(sp)
  88 003c 23388100 		sd	s0,16(sp)
  89 0040 23349100 		sd	s1,8(sp)
  90              		.cfi_offset 1, -8
  91              		.cfi_offset 8, -16
  92              		.cfi_offset 9, -24
  93 0044 13040102 		addi	s0,sp,32
  94              		.cfi_def_cfa 8, 0
  95 0048 93040500 		mv	s1,a0
  96              	.LBB2:
  97              		.loc 2 43 17 is_stmt 0
  98 004c 97070000 		lla	a5,_ZTV6Thread+16
  98      93870700 
  99 0054 2330F500 		sd	a5,0(a0)
  44:src/syscall_cpp.cpp ****     thread_exit();
 100              		.loc 2 44 5 is_stmt 1
 101              		.loc 2 44 16 is_stmt 0
 102 0058 97000000 		call	_Z11thread_exitv@plt
GAS LISTING /tmp/cc01RLuf.s 			page 4


 102      E7800000 
 103              	.LVL5:
  45:src/syscall_cpp.cpp ****     mem_free(this);
 104              		.loc 2 45 5 is_stmt 1
 105              		.loc 2 45 13 is_stmt 0
 106 0060 13850400 		mv	a0,s1
 107 0064 97000000 		call	_Z8mem_freePv@plt
 107      E7800000 
 108              	.LVL6:
 109              	.LBE2:
  46:src/syscall_cpp.cpp **** }
 110              		.loc 2 46 1
 111 006c 83308101 		ld	ra,24(sp)
 112              		.cfi_restore 1
 113 0070 03340101 		ld	s0,16(sp)
 114              		.cfi_restore 8
 115              		.cfi_def_cfa 2, 32
 116 0074 83348100 		ld	s1,8(sp)
 117              		.cfi_restore 9
 118              	.LVL7:
 119 0078 13010102 		addi	sp,sp,32
 120              		.cfi_def_cfa_offset 0
 121 007c 67800000 		jr	ra
 122              		.cfi_endproc
 123              	.LFE49:
 124              		.globl	__gxx_personality_v0
 125              		.section	.gcc_except_table,"a",@progbits
 126              	.LLSDA49:
 127 0000 FF       		.byte	0xff
 128 0001 FF       		.byte	0xff
 129 0002 03       		.byte	0x3
 130 0003 00       		.byte	0
 131              		.text
 133              		.globl	_ZN6ThreadD1Ev
 134              		.set	_ZN6ThreadD1Ev,_ZN6ThreadD2Ev
 135              		.align	2
 136              		.globl	_ZN9SemaphoreD2Ev
 138              	_ZN9SemaphoreD2Ev:
 139              	.LFB62:
  47:src/syscall_cpp.cpp **** 
  48:src/syscall_cpp.cpp **** int Thread::start() {
  49:src/syscall_cpp.cpp ****     thread_start(myHandle);
  50:src/syscall_cpp.cpp ****     return 0;
  51:src/syscall_cpp.cpp **** }
  52:src/syscall_cpp.cpp **** 
  53:src/syscall_cpp.cpp **** void Thread::dispatch() {
  54:src/syscall_cpp.cpp ****     thread_dispatch();
  55:src/syscall_cpp.cpp **** }
  56:src/syscall_cpp.cpp **** 
  57:src/syscall_cpp.cpp **** int Thread::sleep(time_t) {
  58:src/syscall_cpp.cpp ****     return 0;
  59:src/syscall_cpp.cpp **** }
  60:src/syscall_cpp.cpp **** 
  61:src/syscall_cpp.cpp **** Thread::Thread() {
  62:src/syscall_cpp.cpp **** 
  63:src/syscall_cpp.cpp ****     thread_create_only(&myHandle,wrapperRun,this);
  64:src/syscall_cpp.cpp **** }
GAS LISTING /tmp/cc01RLuf.s 			page 5


  65:src/syscall_cpp.cpp **** 
  66:src/syscall_cpp.cpp **** 
  67:src/syscall_cpp.cpp **** Semaphore::Semaphore(unsigned int init) {
  68:src/syscall_cpp.cpp ****     sem_open(&myHandle, init);
  69:src/syscall_cpp.cpp **** }
  70:src/syscall_cpp.cpp **** 
  71:src/syscall_cpp.cpp **** Semaphore::~Semaphore() {
 140              		.loc 2 71 1 is_stmt 1
 141              		.cfi_startproc
 142              		.cfi_personality 0x9b,DW.ref.__gxx_personality_v0
 143              		.cfi_lsda 0x1b,.LLSDA62
 144              	.LVL8:
 145              	.LBB3:
 146              		.loc 2 71 23 is_stmt 0
 147 0080 97070000 		lla	a5,_ZTV9Semaphore+16
 147      93870700 
 148 0088 2330F500 		sd	a5,0(a0)
  72:src/syscall_cpp.cpp ****     if (myHandle != nullptr) {
 149              		.loc 2 72 5 is_stmt 1
 150              		.loc 2 72 9 is_stmt 0
 151 008c 03358500 		ld	a0,8(a0)
 152              	.LVL9:
 153              		.loc 2 72 5
 154 0090 63060502 		beqz	a0,.L14
 155              	.LBE3:
  71:src/syscall_cpp.cpp ****     if (myHandle != nullptr) {
 156              		.loc 2 71 1
 157 0094 130101FF 		addi	sp,sp,-16
 158              		.cfi_def_cfa_offset 16
 159 0098 23341100 		sd	ra,8(sp)
 160 009c 23308100 		sd	s0,0(sp)
 161              		.cfi_offset 1, -8
 162              		.cfi_offset 8, -16
 163 00a0 13040101 		addi	s0,sp,16
 164              		.cfi_def_cfa 8, 0
 165              	.LBB4:
  73:src/syscall_cpp.cpp ****         sem_close(myHandle);
 166              		.loc 2 73 9 is_stmt 1
 167              		.loc 2 73 18 is_stmt 0
 168 00a4 97000000 		call	_Z9sem_closeP4_sem@plt
 168      E7800000 
 169              	.LVL10:
 170              	.LBE4:
  74:src/syscall_cpp.cpp ****     }
  75:src/syscall_cpp.cpp **** }
 171              		.loc 2 75 1
 172 00ac 83308100 		ld	ra,8(sp)
 173              		.cfi_restore 1
 174 00b0 03340100 		ld	s0,0(sp)
 175              		.cfi_restore 8
 176              		.cfi_def_cfa 2, 16
 177 00b4 13010101 		addi	sp,sp,16
 178              		.cfi_def_cfa_offset 0
 179 00b8 67800000 		jr	ra
 180              	.L14:
 181 00bc 67800000 		ret
 182              		.cfi_endproc
GAS LISTING /tmp/cc01RLuf.s 			page 6


 183              	.LFE62:
 184              		.section	.gcc_except_table
 185              	.LLSDA62:
 186 0004 FF       		.byte	0xff
 187 0005 FF       		.byte	0xff
 188 0006 03       		.byte	0x3
 189 0007 00       		.byte	0
 190              		.text
 192              		.globl	_ZN9SemaphoreD1Ev
 193              		.set	_ZN9SemaphoreD1Ev,_ZN9SemaphoreD2Ev
 194              		.align	2
 195              		.globl	_Znwm
 197              	_Znwm:
 198              	.LFB41:
  20:src/syscall_cpp.cpp ****     void* p = mem_alloc(size);
 199              		.loc 2 20 32 is_stmt 1
 200              		.cfi_startproc
 201              	.LVL11:
 202 00c0 130101FF 		addi	sp,sp,-16
 203              		.cfi_def_cfa_offset 16
 204 00c4 23341100 		sd	ra,8(sp)
 205 00c8 23308100 		sd	s0,0(sp)
 206              		.cfi_offset 1, -8
 207              		.cfi_offset 8, -16
 208 00cc 13040101 		addi	s0,sp,16
 209              		.cfi_def_cfa 8, 0
  21:src/syscall_cpp.cpp ****     return p;
 210              		.loc 2 21 5
  21:src/syscall_cpp.cpp ****     return p;
 211              		.loc 2 21 24 is_stmt 0
 212 00d0 97000000 		call	_Z9mem_allocm@plt
 212      E7800000 
 213              	.LVL12:
  22:src/syscall_cpp.cpp **** }
 214              		.loc 2 22 5 is_stmt 1
  23:src/syscall_cpp.cpp **** 
 215              		.loc 2 23 1 is_stmt 0
 216 00d8 83308100 		ld	ra,8(sp)
 217              		.cfi_restore 1
 218 00dc 03340100 		ld	s0,0(sp)
 219              		.cfi_restore 8
 220              		.cfi_def_cfa 2, 16
 221 00e0 13010101 		addi	sp,sp,16
 222              		.cfi_def_cfa_offset 0
 223 00e4 67800000 		jr	ra
 224              		.cfi_endproc
 225              	.LFE41:
 227              		.align	2
 228              		.globl	_Znam
 230              	_Znam:
 231              	.LFB42:
  25:src/syscall_cpp.cpp ****     void* p = mem_alloc(size);
 232              		.loc 2 25 34 is_stmt 1
 233              		.cfi_startproc
 234              	.LVL13:
 235 00e8 130101FF 		addi	sp,sp,-16
 236              		.cfi_def_cfa_offset 16
GAS LISTING /tmp/cc01RLuf.s 			page 7


 237 00ec 23341100 		sd	ra,8(sp)
 238 00f0 23308100 		sd	s0,0(sp)
 239              		.cfi_offset 1, -8
 240              		.cfi_offset 8, -16
 241 00f4 13040101 		addi	s0,sp,16
 242              		.cfi_def_cfa 8, 0
  26:src/syscall_cpp.cpp ****     return p;
 243              		.loc 2 26 5
  26:src/syscall_cpp.cpp ****     return p;
 244              		.loc 2 26 24 is_stmt 0
 245 00f8 97000000 		call	_Z9mem_allocm@plt
 245      E7800000 
 246              	.LVL14:
  27:src/syscall_cpp.cpp **** }
 247              		.loc 2 27 5 is_stmt 1
  28:src/syscall_cpp.cpp **** 
 248              		.loc 2 28 1 is_stmt 0
 249 0100 83308100 		ld	ra,8(sp)
 250              		.cfi_restore 1
 251 0104 03340100 		ld	s0,0(sp)
 252              		.cfi_restore 8
 253              		.cfi_def_cfa 2, 16
 254 0108 13010101 		addi	sp,sp,16
 255              		.cfi_def_cfa_offset 0
 256 010c 67800000 		jr	ra
 257              		.cfi_endproc
 258              	.LFE42:
 260              		.align	2
 261              		.globl	_ZdlPv
 263              	_ZdlPv:
 264              	.LFB43:
  31:src/syscall_cpp.cpp ****     mem_free(p);
 265              		.loc 2 31 31 is_stmt 1
 266              		.cfi_startproc
 267              	.LVL15:
 268 0110 130101FF 		addi	sp,sp,-16
 269              		.cfi_def_cfa_offset 16
 270 0114 23341100 		sd	ra,8(sp)
 271 0118 23308100 		sd	s0,0(sp)
 272              		.cfi_offset 1, -8
 273              		.cfi_offset 8, -16
 274 011c 13040101 		addi	s0,sp,16
 275              		.cfi_def_cfa 8, 0
  32:src/syscall_cpp.cpp **** }
 276              		.loc 2 32 5
  32:src/syscall_cpp.cpp **** }
 277              		.loc 2 32 13 is_stmt 0
 278 0120 97000000 		call	_Z8mem_freePv@plt
 278      E7800000 
 279              	.LVL16:
  33:src/syscall_cpp.cpp **** 
 280              		.loc 2 33 1
 281 0128 83308100 		ld	ra,8(sp)
 282              		.cfi_restore 1
 283 012c 03340100 		ld	s0,0(sp)
 284              		.cfi_restore 8
 285              		.cfi_def_cfa 2, 16
GAS LISTING /tmp/cc01RLuf.s 			page 8


 286 0130 13010101 		addi	sp,sp,16
 287              		.cfi_def_cfa_offset 0
 288 0134 67800000 		jr	ra
 289              		.cfi_endproc
 290              	.LFE43:
 292              		.align	2
 293              		.globl	_ZN6ThreadD0Ev
 295              	_ZN6ThreadD0Ev:
 296              	.LFB51:
  43:src/syscall_cpp.cpp ****     thread_exit();
 297              		.loc 2 43 1 is_stmt 1
 298              		.cfi_startproc
 299              	.LVL17:
 300 0138 130101FE 		addi	sp,sp,-32
 301              		.cfi_def_cfa_offset 32
 302 013c 233C1100 		sd	ra,24(sp)
 303 0140 23388100 		sd	s0,16(sp)
 304 0144 23349100 		sd	s1,8(sp)
 305              		.cfi_offset 1, -8
 306              		.cfi_offset 8, -16
 307              		.cfi_offset 9, -24
 308 0148 13040102 		addi	s0,sp,32
 309              		.cfi_def_cfa 8, 0
 310 014c 93040500 		mv	s1,a0
  46:src/syscall_cpp.cpp **** 
 311              		.loc 2 46 1 is_stmt 0
 312 0150 97000000 		call	_ZN6ThreadD1Ev
 312      E7800000 
 313              	.LVL18:
 314 0158 13850400 		mv	a0,s1
 315 015c 97000000 		call	_ZdlPv
 315      E7800000 
 316              	.LVL19:
 317 0164 83308101 		ld	ra,24(sp)
 318              		.cfi_restore 1
 319 0168 03340101 		ld	s0,16(sp)
 320              		.cfi_restore 8
 321              		.cfi_def_cfa 2, 32
 322 016c 83348100 		ld	s1,8(sp)
 323              		.cfi_restore 9
 324              	.LVL20:
 325 0170 13010102 		addi	sp,sp,32
 326              		.cfi_def_cfa_offset 0
 327 0174 67800000 		jr	ra
 328              		.cfi_endproc
 329              	.LFE51:
 331              		.align	2
 332              		.globl	_ZN9SemaphoreD0Ev
 334              	_ZN9SemaphoreD0Ev:
 335              	.LFB64:
  71:src/syscall_cpp.cpp ****     if (myHandle != nullptr) {
 336              		.loc 2 71 1 is_stmt 1
 337              		.cfi_startproc
 338              	.LVL21:
 339 0178 130101FE 		addi	sp,sp,-32
 340              		.cfi_def_cfa_offset 32
 341 017c 233C1100 		sd	ra,24(sp)
GAS LISTING /tmp/cc01RLuf.s 			page 9


 342 0180 23388100 		sd	s0,16(sp)
 343 0184 23349100 		sd	s1,8(sp)
 344              		.cfi_offset 1, -8
 345              		.cfi_offset 8, -16
 346              		.cfi_offset 9, -24
 347 0188 13040102 		addi	s0,sp,32
 348              		.cfi_def_cfa 8, 0
 349 018c 93040500 		mv	s1,a0
 350              		.loc 2 75 1 is_stmt 0
 351 0190 97000000 		call	_ZN9SemaphoreD1Ev
 351      E7800000 
 352              	.LVL22:
 353 0198 13850400 		mv	a0,s1
 354 019c 97000000 		call	_ZdlPv
 354      E7800000 
 355              	.LVL23:
 356 01a4 83308101 		ld	ra,24(sp)
 357              		.cfi_restore 1
 358 01a8 03340101 		ld	s0,16(sp)
 359              		.cfi_restore 8
 360              		.cfi_def_cfa 2, 32
 361 01ac 83348100 		ld	s1,8(sp)
 362              		.cfi_restore 9
 363              	.LVL24:
 364 01b0 13010102 		addi	sp,sp,32
 365              		.cfi_def_cfa_offset 0
 366 01b4 67800000 		jr	ra
 367              		.cfi_endproc
 368              	.LFE64:
 370              		.align	2
 371              		.globl	_ZdaPv
 373              	_ZdaPv:
 374              	.LFB44:
  35:src/syscall_cpp.cpp ****     mem_free(p);
 375              		.loc 2 35 33 is_stmt 1
 376              		.cfi_startproc
 377              	.LVL25:
 378 01b8 130101FF 		addi	sp,sp,-16
 379              		.cfi_def_cfa_offset 16
 380 01bc 23341100 		sd	ra,8(sp)
 381 01c0 23308100 		sd	s0,0(sp)
 382              		.cfi_offset 1, -8
 383              		.cfi_offset 8, -16
 384 01c4 13040101 		addi	s0,sp,16
 385              		.cfi_def_cfa 8, 0
  36:src/syscall_cpp.cpp **** }
 386              		.loc 2 36 5
  36:src/syscall_cpp.cpp **** }
 387              		.loc 2 36 13 is_stmt 0
 388 01c8 97000000 		call	_Z8mem_freePv@plt
 388      E7800000 
 389              	.LVL26:
  37:src/syscall_cpp.cpp **** 
 390              		.loc 2 37 1
 391 01d0 83308100 		ld	ra,8(sp)
 392              		.cfi_restore 1
 393 01d4 03340100 		ld	s0,0(sp)
GAS LISTING /tmp/cc01RLuf.s 			page 10


 394              		.cfi_restore 8
 395              		.cfi_def_cfa 2, 16
 396 01d8 13010101 		addi	sp,sp,16
 397              		.cfi_def_cfa_offset 0
 398 01dc 67800000 		jr	ra
 399              		.cfi_endproc
 400              	.LFE44:
 402              		.align	2
 403              		.globl	_ZN6ThreadC2EPFvPvES0_
 405              	_ZN6ThreadC2EPFvPvES0_:
 406              	.LFB46:
  39:src/syscall_cpp.cpp ****     thread_create(&myHandle, body, arg);
 407              		.loc 2 39 1 is_stmt 1
 408              		.cfi_startproc
 409              	.LVL27:
 410 01e0 130101FF 		addi	sp,sp,-16
 411              		.cfi_def_cfa_offset 16
 412 01e4 23341100 		sd	ra,8(sp)
 413 01e8 23308100 		sd	s0,0(sp)
 414              		.cfi_offset 1, -8
 415              		.cfi_offset 8, -16
 416 01ec 13040101 		addi	s0,sp,16
 417              		.cfi_def_cfa 8, 0
 418              	.LBB5:
  39:src/syscall_cpp.cpp ****     thread_create(&myHandle, body, arg);
 419              		.loc 2 39 47 is_stmt 0
 420 01f0 97070000 		lla	a5,_ZTV6Thread+16
 420      93870700 
 421 01f8 2330F500 		sd	a5,0(a0)
  40:src/syscall_cpp.cpp **** }
 422              		.loc 2 40 5 is_stmt 1
  40:src/syscall_cpp.cpp **** }
 423              		.loc 2 40 18 is_stmt 0
 424 01fc 13058500 		addi	a0,a0,8
 425              	.LVL28:
 426 0200 97000000 		call	_Z13thread_createPP7_threadPFvPvES2_@plt
 426      E7800000 
 427              	.LVL29:
 428              	.LBE5:
  41:src/syscall_cpp.cpp **** 
 429              		.loc 2 41 1
 430 0208 83308100 		ld	ra,8(sp)
 431              		.cfi_restore 1
 432 020c 03340100 		ld	s0,0(sp)
 433              		.cfi_restore 8
 434              		.cfi_def_cfa 2, 16
 435 0210 13010101 		addi	sp,sp,16
 436              		.cfi_def_cfa_offset 0
 437 0214 67800000 		jr	ra
 438              		.cfi_endproc
 439              	.LFE46:
 441              		.globl	_ZN6ThreadC1EPFvPvES0_
 442              		.set	_ZN6ThreadC1EPFvPvES0_,_ZN6ThreadC2EPFvPvES0_
 443              		.align	2
 444              		.globl	_ZN6Thread5startEv
 446              	_ZN6Thread5startEv:
 447              	.LFB52:
GAS LISTING /tmp/cc01RLuf.s 			page 11


  48:src/syscall_cpp.cpp ****     thread_start(myHandle);
 448              		.loc 2 48 21 is_stmt 1
 449              		.cfi_startproc
 450              	.LVL30:
 451 0218 130101FF 		addi	sp,sp,-16
 452              		.cfi_def_cfa_offset 16
 453 021c 23341100 		sd	ra,8(sp)
 454 0220 23308100 		sd	s0,0(sp)
 455              		.cfi_offset 1, -8
 456              		.cfi_offset 8, -16
 457 0224 13040101 		addi	s0,sp,16
 458              		.cfi_def_cfa 8, 0
  49:src/syscall_cpp.cpp ****     return 0;
 459              		.loc 2 49 5
  49:src/syscall_cpp.cpp ****     return 0;
 460              		.loc 2 49 17 is_stmt 0
 461 0228 03358500 		ld	a0,8(a0)
 462              	.LVL31:
 463 022c 97000000 		call	_Z12thread_startP7_thread@plt
 463      E7800000 
 464              	.LVL32:
  50:src/syscall_cpp.cpp **** }
 465              		.loc 2 50 5 is_stmt 1
  51:src/syscall_cpp.cpp **** 
 466              		.loc 2 51 1 is_stmt 0
 467 0234 13050000 		li	a0,0
 468 0238 83308100 		ld	ra,8(sp)
 469              		.cfi_restore 1
 470 023c 03340100 		ld	s0,0(sp)
 471              		.cfi_restore 8
 472              		.cfi_def_cfa 2, 16
 473 0240 13010101 		addi	sp,sp,16
 474              		.cfi_def_cfa_offset 0
 475 0244 67800000 		jr	ra
 476              		.cfi_endproc
 477              	.LFE52:
 479              		.align	2
 480              		.globl	_ZN6Thread8dispatchEv
 482              	_ZN6Thread8dispatchEv:
 483              	.LFB53:
  53:src/syscall_cpp.cpp ****     thread_dispatch();
 484              		.loc 2 53 25 is_stmt 1
 485              		.cfi_startproc
 486 0248 130101FF 		addi	sp,sp,-16
 487              		.cfi_def_cfa_offset 16
 488 024c 23341100 		sd	ra,8(sp)
 489 0250 23308100 		sd	s0,0(sp)
 490              		.cfi_offset 1, -8
 491              		.cfi_offset 8, -16
 492 0254 13040101 		addi	s0,sp,16
 493              		.cfi_def_cfa 8, 0
  54:src/syscall_cpp.cpp **** }
 494              		.loc 2 54 5
  54:src/syscall_cpp.cpp **** }
 495              		.loc 2 54 20 is_stmt 0
 496 0258 97000000 		call	_Z15thread_dispatchv@plt
 496      E7800000 
GAS LISTING /tmp/cc01RLuf.s 			page 12


 497              	.LVL33:
  55:src/syscall_cpp.cpp **** 
 498              		.loc 2 55 1
 499 0260 83308100 		ld	ra,8(sp)
 500              		.cfi_restore 1
 501 0264 03340100 		ld	s0,0(sp)
 502              		.cfi_restore 8
 503              		.cfi_def_cfa 2, 16
 504 0268 13010101 		addi	sp,sp,16
 505              		.cfi_def_cfa_offset 0
 506 026c 67800000 		jr	ra
 507              		.cfi_endproc
 508              	.LFE53:
 510              		.align	2
 511              		.globl	_ZN6Thread5sleepEm
 513              	_ZN6Thread5sleepEm:
 514              	.LFB54:
  57:src/syscall_cpp.cpp ****     return 0;
 515              		.loc 2 57 27 is_stmt 1
 516              		.cfi_startproc
 517 0270 130101FF 		addi	sp,sp,-16
 518              		.cfi_def_cfa_offset 16
 519 0274 23348100 		sd	s0,8(sp)
 520              		.cfi_offset 8, -8
 521 0278 13040101 		addi	s0,sp,16
 522              		.cfi_def_cfa 8, 0
  58:src/syscall_cpp.cpp **** }
 523              		.loc 2 58 5
  59:src/syscall_cpp.cpp **** 
 524              		.loc 2 59 1 is_stmt 0
 525 027c 13050000 		li	a0,0
 526 0280 03348100 		ld	s0,8(sp)
 527              		.cfi_restore 8
 528              		.cfi_def_cfa 2, 16
 529 0284 13010101 		addi	sp,sp,16
 530              		.cfi_def_cfa_offset 0
 531 0288 67800000 		jr	ra
 532              		.cfi_endproc
 533              	.LFE54:
 535              		.align	2
 536              		.globl	_ZN6ThreadC2Ev
 538              	_ZN6ThreadC2Ev:
 539              	.LFB56:
  61:src/syscall_cpp.cpp **** 
 540              		.loc 2 61 1 is_stmt 1
 541              		.cfi_startproc
 542              	.LVL34:
 543 028c 130101FF 		addi	sp,sp,-16
 544              		.cfi_def_cfa_offset 16
 545 0290 23341100 		sd	ra,8(sp)
 546 0294 23308100 		sd	s0,0(sp)
 547              		.cfi_offset 1, -8
 548              		.cfi_offset 8, -16
 549 0298 13040101 		addi	s0,sp,16
 550              		.cfi_def_cfa 8, 0
 551              	.LBB6:
  61:src/syscall_cpp.cpp **** 
GAS LISTING /tmp/cc01RLuf.s 			page 13


 552              		.loc 2 61 16 is_stmt 0
 553 029c 97070000 		lla	a5,_ZTV6Thread+16
 553      93870700 
 554 02a4 2330F500 		sd	a5,0(a0)
  63:src/syscall_cpp.cpp **** }
 555              		.loc 2 63 5 is_stmt 1
  63:src/syscall_cpp.cpp **** }
 556              		.loc 2 63 23 is_stmt 0
 557 02a8 13060500 		mv	a2,a0
 558 02ac 97050000 		lla	a1,_Z10wrapperRunPv
 558      93850500 
 559 02b4 13058500 		addi	a0,a0,8
 560              	.LVL35:
 561 02b8 97000000 		call	_Z18thread_create_onlyPP7_threadPFvPvES2_@plt
 561      E7800000 
 562              	.LVL36:
 563              	.LBE6:
  64:src/syscall_cpp.cpp **** 
 564              		.loc 2 64 1
 565 02c0 83308100 		ld	ra,8(sp)
 566              		.cfi_restore 1
 567 02c4 03340100 		ld	s0,0(sp)
 568              		.cfi_restore 8
 569              		.cfi_def_cfa 2, 16
 570 02c8 13010101 		addi	sp,sp,16
 571              		.cfi_def_cfa_offset 0
 572 02cc 67800000 		jr	ra
 573              		.cfi_endproc
 574              	.LFE56:
 576              		.globl	_ZN6ThreadC1Ev
 577              		.set	_ZN6ThreadC1Ev,_ZN6ThreadC2Ev
 578              		.align	2
 579              		.globl	_ZN9SemaphoreC2Ej
 581              	_ZN9SemaphoreC2Ej:
 582              	.LFB59:
  67:src/syscall_cpp.cpp ****     sem_open(&myHandle, init);
 583              		.loc 2 67 1 is_stmt 1
 584              		.cfi_startproc
 585              	.LVL37:
 586 02d0 130101FF 		addi	sp,sp,-16
 587              		.cfi_def_cfa_offset 16
 588 02d4 23341100 		sd	ra,8(sp)
 589 02d8 23308100 		sd	s0,0(sp)
 590              		.cfi_offset 1, -8
 591              		.cfi_offset 8, -16
 592 02dc 13040101 		addi	s0,sp,16
 593              		.cfi_def_cfa 8, 0
 594              	.LBB7:
  67:src/syscall_cpp.cpp ****     sem_open(&myHandle, init);
 595              		.loc 2 67 39 is_stmt 0
 596 02e0 97070000 		lla	a5,_ZTV9Semaphore+16
 596      93870700 
 597 02e8 2330F500 		sd	a5,0(a0)
  68:src/syscall_cpp.cpp **** }
 598              		.loc 2 68 5 is_stmt 1
  68:src/syscall_cpp.cpp **** }
 599              		.loc 2 68 13 is_stmt 0
GAS LISTING /tmp/cc01RLuf.s 			page 14


 600 02ec 13058500 		addi	a0,a0,8
 601              	.LVL38:
 602 02f0 97000000 		call	_Z8sem_openPP4_semj@plt
 602      E7800000 
 603              	.LVL39:
 604              	.LBE7:
  69:src/syscall_cpp.cpp **** 
 605              		.loc 2 69 1
 606 02f8 83308100 		ld	ra,8(sp)
 607              		.cfi_restore 1
 608 02fc 03340100 		ld	s0,0(sp)
 609              		.cfi_restore 8
 610              		.cfi_def_cfa 2, 16
 611 0300 13010101 		addi	sp,sp,16
 612              		.cfi_def_cfa_offset 0
 613 0304 67800000 		jr	ra
 614              		.cfi_endproc
 615              	.LFE59:
 617              		.globl	_ZN9SemaphoreC1Ej
 618              		.set	_ZN9SemaphoreC1Ej,_ZN9SemaphoreC2Ej
 619              		.align	2
 620              		.globl	_ZN9Semaphore4waitEv
 622              	_ZN9Semaphore4waitEv:
 623              	.LFB65:
  76:src/syscall_cpp.cpp **** 
  77:src/syscall_cpp.cpp **** int Semaphore::wait() {
 624              		.loc 2 77 23 is_stmt 1
 625              		.cfi_startproc
 626              	.LVL40:
  78:src/syscall_cpp.cpp ****     if (myHandle != nullptr) {
 627              		.loc 2 78 5
 628              		.loc 2 78 9 is_stmt 0
 629 0308 03358500 		ld	a0,8(a0)
 630              	.LVL41:
 631              		.loc 2 78 5
 632 030c 63060502 		beqz	a0,.L43
  77:src/syscall_cpp.cpp ****     if (myHandle != nullptr) {
 633              		.loc 2 77 23
 634 0310 130101FF 		addi	sp,sp,-16
 635              		.cfi_def_cfa_offset 16
 636 0314 23341100 		sd	ra,8(sp)
 637 0318 23308100 		sd	s0,0(sp)
 638              		.cfi_offset 1, -8
 639              		.cfi_offset 8, -16
 640 031c 13040101 		addi	s0,sp,16
 641              		.cfi_def_cfa 8, 0
  79:src/syscall_cpp.cpp ****         return sem_wait(myHandle);
 642              		.loc 2 79 9 is_stmt 1
 643              		.loc 2 79 24 is_stmt 0
 644 0320 97000000 		call	_Z8sem_waitP4_sem@plt
 644      E7800000 
 645              	.LVL42:
  80:src/syscall_cpp.cpp ****     }
  81:src/syscall_cpp.cpp ****     return -1;
  82:src/syscall_cpp.cpp **** }
 646              		.loc 2 82 1
 647 0328 83308100 		ld	ra,8(sp)
GAS LISTING /tmp/cc01RLuf.s 			page 15


 648              		.cfi_restore 1
 649 032c 03340100 		ld	s0,0(sp)
 650              		.cfi_restore 8
 651              		.cfi_def_cfa 2, 16
 652 0330 13010101 		addi	sp,sp,16
 653              		.cfi_def_cfa_offset 0
 654 0334 67800000 		jr	ra
 655              	.L43:
  81:src/syscall_cpp.cpp **** }
 656              		.loc 2 81 13
 657 0338 1305F0FF 		li	a0,-1
 658              		.loc 2 82 1
 659 033c 67800000 		ret
 660              		.cfi_endproc
 661              	.LFE65:
 663              		.align	2
 664              		.globl	_ZN9Semaphore6signalEv
 666              	_ZN9Semaphore6signalEv:
 667              	.LFB66:
  83:src/syscall_cpp.cpp **** 
  84:src/syscall_cpp.cpp **** int Semaphore::signal() {
 668              		.loc 2 84 25 is_stmt 1
 669              		.cfi_startproc
 670              	.LVL43:
  85:src/syscall_cpp.cpp ****     if (myHandle != nullptr) {
 671              		.loc 2 85 5
 672              		.loc 2 85 9 is_stmt 0
 673 0340 03358500 		ld	a0,8(a0)
 674              	.LVL44:
 675              		.loc 2 85 5
 676 0344 63060502 		beqz	a0,.L50
  84:src/syscall_cpp.cpp ****     if (myHandle != nullptr) {
 677              		.loc 2 84 25
 678 0348 130101FF 		addi	sp,sp,-16
 679              		.cfi_def_cfa_offset 16
 680 034c 23341100 		sd	ra,8(sp)
 681 0350 23308100 		sd	s0,0(sp)
 682              		.cfi_offset 1, -8
 683              		.cfi_offset 8, -16
 684 0354 13040101 		addi	s0,sp,16
 685              		.cfi_def_cfa 8, 0
  86:src/syscall_cpp.cpp ****         return sem_signal(myHandle);
 686              		.loc 2 86 9 is_stmt 1
 687              		.loc 2 86 26 is_stmt 0
 688 0358 97000000 		call	_Z10sem_signalP4_sem@plt
 688      E7800000 
 689              	.LVL45:
  87:src/syscall_cpp.cpp ****     }
  88:src/syscall_cpp.cpp ****     return -1;
  89:src/syscall_cpp.cpp **** }
 690              		.loc 2 89 1
 691 0360 83308100 		ld	ra,8(sp)
 692              		.cfi_restore 1
 693 0364 03340100 		ld	s0,0(sp)
 694              		.cfi_restore 8
 695              		.cfi_def_cfa 2, 16
 696 0368 13010101 		addi	sp,sp,16
GAS LISTING /tmp/cc01RLuf.s 			page 16


 697              		.cfi_def_cfa_offset 0
 698 036c 67800000 		jr	ra
 699              	.L50:
  88:src/syscall_cpp.cpp **** }
 700              		.loc 2 88 13
 701 0370 1305F0FF 		li	a0,-1
 702              		.loc 2 89 1
 703 0374 67800000 		ret
 704              		.cfi_endproc
 705              	.LFE66:
 707              		.align	2
 708              		.globl	_ZN7Console4getcEv
 710              	_ZN7Console4getcEv:
 711              	.LFB67:
  90:src/syscall_cpp.cpp **** 
  91:src/syscall_cpp.cpp **** char Console::getc() {
 712              		.loc 2 91 22 is_stmt 1
 713              		.cfi_startproc
 714 0378 130101FF 		addi	sp,sp,-16
 715              		.cfi_def_cfa_offset 16
 716 037c 23341100 		sd	ra,8(sp)
 717 0380 23308100 		sd	s0,0(sp)
 718              		.cfi_offset 1, -8
 719              		.cfi_offset 8, -16
 720 0384 13040101 		addi	s0,sp,16
 721              		.cfi_def_cfa 8, 0
  92:src/syscall_cpp.cpp ****     return ::getc();
 722              		.loc 2 92 5
 723              		.loc 2 92 18 is_stmt 0
 724 0388 97000000 		call	_Z4getcv@plt
 724      E7800000 
 725              	.LVL46:
  93:src/syscall_cpp.cpp **** }
 726              		.loc 2 93 1
 727 0390 83308100 		ld	ra,8(sp)
 728              		.cfi_restore 1
 729 0394 03340100 		ld	s0,0(sp)
 730              		.cfi_restore 8
 731              		.cfi_def_cfa 2, 16
 732 0398 13010101 		addi	sp,sp,16
 733              		.cfi_def_cfa_offset 0
 734 039c 67800000 		jr	ra
 735              		.cfi_endproc
 736              	.LFE67:
 738              		.align	2
 739              		.globl	_ZN7Console4putcEc
 741              	_ZN7Console4putcEc:
 742              	.LFB68:
  94:src/syscall_cpp.cpp **** 
  95:src/syscall_cpp.cpp **** void Console::putc(char c) {
 743              		.loc 2 95 28 is_stmt 1
 744              		.cfi_startproc
 745              	.LVL47:
 746 03a0 130101FF 		addi	sp,sp,-16
 747              		.cfi_def_cfa_offset 16
 748 03a4 23341100 		sd	ra,8(sp)
 749 03a8 23308100 		sd	s0,0(sp)
GAS LISTING /tmp/cc01RLuf.s 			page 17


 750              		.cfi_offset 1, -8
 751              		.cfi_offset 8, -16
 752 03ac 13040101 		addi	s0,sp,16
 753              		.cfi_def_cfa 8, 0
  96:src/syscall_cpp.cpp ****     ::putc(c);
 754              		.loc 2 96 5
 755              		.loc 2 96 11 is_stmt 0
 756 03b0 97000000 		call	_Z4putcc@plt
 756      E7800000 
 757              	.LVL48:
  97:src/syscall_cpp.cpp **** }...
 758              		.loc 2 97 1
 759 03b8 83308100 		ld	ra,8(sp)
 760              		.cfi_restore 1
 761 03bc 03340100 		ld	s0,0(sp)
 762              		.cfi_restore 8
 763              		.cfi_def_cfa 2, 16
 764 03c0 13010101 		addi	sp,sp,16
 765              		.cfi_def_cfa_offset 0
 766 03c4 67800000 		jr	ra
 767              		.cfi_endproc
 768              	.LFE68:
 770              		.weak	_ZTV6Thread
 771              		.section	.data.rel.ro.local._ZTV6Thread,"awG",@progbits,_ZTV6Thread,comdat
 772              		.align	3
 775              	_ZTV6Thread:
 776 0000 00000000 		.dword	0
 776      00000000 
 777 0008 00000000 		.dword	0
 777      00000000 
 778 0010 00000000 		.dword	_ZN6ThreadD1Ev
 778      00000000 
 779 0018 00000000 		.dword	_ZN6ThreadD0Ev
 779      00000000 
 780 0020 00000000 		.dword	_ZN6Thread3runEv
 780      00000000 
 781              		.weak	_ZTV9Semaphore
 782              		.section	.data.rel.ro.local._ZTV9Semaphore,"awG",@progbits,_ZTV9Semaphore,comdat
 783              		.align	3
 786              	_ZTV9Semaphore:
 787 0000 00000000 		.dword	0
 787      00000000 
 788 0008 00000000 		.dword	0
 788      00000000 
 789 0010 00000000 		.dword	_ZN9SemaphoreD1Ev
 789      00000000 
 790 0018 00000000 		.dword	_ZN9SemaphoreD0Ev
 790      00000000 
 791              		.text
 792              	.Letext0:
 793              		.file 3 "src/../h/../lib/hw.h"
 794              		.file 4 "src/../h/_thread.h"
 795              		.file 5 "src/../h/syscall_c.h"
 3927              		.align	3
 3930              	DW.ref.__gxx_personality_v0:
 3931 0000 00000000 		.dword	__gxx_personality_v0
 3931      00000000 
GAS LISTING /tmp/cc01RLuf.s 			page 18


 3932              		.ident	"GCC: (Ubuntu 9.4.0-1ubuntu1~20.04) 9.4.0"
 3933              		.section	.note.GNU-stack,"",@progbits
GAS LISTING /tmp/cc01RLuf.s 			page 19


DEFINED SYMBOLS
                            *ABS*:0000000000000000 syscall_cpp.cpp
     /tmp/cc01RLuf.s:10     .text._ZN6Thread3runEv:0000000000000000 _ZN6Thread3runEv
     /tmp/cc01RLuf.s:14     .text._ZN6Thread3runEv:0000000000000000 .L0 
     /tmp/cc01RLuf.s:16     .text._ZN6Thread3runEv:0000000000000000 .L0 
     /tmp/cc01RLuf.s:17     .text._ZN6Thread3runEv:0000000000000004 .L0 
     /tmp/cc01RLuf.s:19     .text._ZN6Thread3runEv:0000000000000008 .L0 
     /tmp/cc01RLuf.s:21     .text._ZN6Thread3runEv:000000000000000c .L0 
     /tmp/cc01RLuf.s:23     .text._ZN6Thread3runEv:000000000000000c .L0 
     /tmp/cc01RLuf.s:24     .text._ZN6Thread3runEv:0000000000000010 .L0 
     /tmp/cc01RLuf.s:25     .text._ZN6Thread3runEv:0000000000000010 .L0 
     /tmp/cc01RLuf.s:27     .text._ZN6Thread3runEv:0000000000000014 .L0 
     /tmp/cc01RLuf.s:29     .text._ZN6Thread3runEv:0000000000000018 .L0 
     /tmp/cc01RLuf.s:36     .text:0000000000000000 _Z10wrapperRunPv
     /tmp/cc01RLuf.s:40     .text:0000000000000000 .L0 
     /tmp/cc01RLuf.s:42     .text:0000000000000000 .L0 
     /tmp/cc01RLuf.s:43     .text:0000000000000000 .L0 
     /tmp/cc01RLuf.s:45     .text:0000000000000004 .L0 
     /tmp/cc01RLuf.s:46     .text:0000000000000008 .L0 
     /tmp/cc01RLuf.s:49     .text:0000000000000010 .L0 
     /tmp/cc01RLuf.s:50     .text:0000000000000010 .L0 
     /tmp/cc01RLuf.s:52     .text:0000000000000014 .L0 
     /tmp/cc01RLuf.s:54     .text:0000000000000014 .L0 
     /tmp/cc01RLuf.s:55     .text:0000000000000014 .L0 
     /tmp/cc01RLuf.s:58     .text:000000000000001c .L0 
     /tmp/cc01RLuf.s:61     .text:0000000000000020 .L0 
     /tmp/cc01RLuf.s:62     .text:0000000000000024 .L0 
     /tmp/cc01RLuf.s:64     .text:0000000000000028 .L0 
     /tmp/cc01RLuf.s:65     .text:0000000000000028 .L0 
     /tmp/cc01RLuf.s:67     .text:000000000000002c .L0 
     /tmp/cc01RLuf.s:72     .text:0000000000000034 .L0 
     /tmp/cc01RLuf.s:78     .text:0000000000000034 _ZN6ThreadD2Ev
     /tmp/cc01RLuf.s:81     .text:0000000000000034 .L0 
     /tmp/cc01RLuf.s:3930   .data.rel.local.DW.ref.__gxx_personality_v0:0000000000000000 DW.ref.__gxx_personality_v0
     /tmp/cc01RLuf.s:85     .text:0000000000000034 .L0 
     /tmp/cc01RLuf.s:86     .text:0000000000000038 .L0 
     /tmp/cc01RLuf.s:90     .text:0000000000000044 .L0 
     /tmp/cc01RLuf.s:91     .text:0000000000000044 .L0 
     /tmp/cc01RLuf.s:92     .text:0000000000000044 .L0 
     /tmp/cc01RLuf.s:94     .text:0000000000000048 .L0 
     /tmp/cc01RLuf.s:775    .data.rel.ro.local._ZTV6Thread:0000000000000000 _ZTV6Thread
     /tmp/cc01RLuf.s:98     .text:000000000000004c .L0 
     /tmp/cc01RLuf.s:101    .text:0000000000000058 .L0 
     /tmp/cc01RLuf.s:102    .text:0000000000000058 .L0 
     /tmp/cc01RLuf.s:105    .text:0000000000000060 .L0 
     /tmp/cc01RLuf.s:106    .text:0000000000000060 .L0 
     /tmp/cc01RLuf.s:111    .text:000000000000006c .L0 
     /tmp/cc01RLuf.s:112    .text:0000000000000070 .L0 
     /tmp/cc01RLuf.s:114    .text:0000000000000074 .L0 
     /tmp/cc01RLuf.s:115    .text:0000000000000074 .L0 
     /tmp/cc01RLuf.s:117    .text:0000000000000078 .L0 
     /tmp/cc01RLuf.s:120    .text:000000000000007c .L0 
     /tmp/cc01RLuf.s:122    .text:0000000000000080 .L0 
     /tmp/cc01RLuf.s:78     .text:0000000000000034 _ZN6ThreadD1Ev
     /tmp/cc01RLuf.s:138    .text:0000000000000080 _ZN9SemaphoreD2Ev
     /tmp/cc01RLuf.s:141    .text:0000000000000080 .L0 
     /tmp/cc01RLuf.s:146    .text:0000000000000080 .L0 
GAS LISTING /tmp/cc01RLuf.s 			page 20


     /tmp/cc01RLuf.s:786    .data.rel.ro.local._ZTV9Semaphore:0000000000000000 _ZTV9Semaphore
     /tmp/cc01RLuf.s:147    .text:0000000000000080 .L0 
     /tmp/cc01RLuf.s:150    .text:000000000000008c .L0 
     /tmp/cc01RLuf.s:151    .text:000000000000008c .L0 
     /tmp/cc01RLuf.s:154    .text:0000000000000090 .L0 
     /tmp/cc01RLuf.s:157    .text:0000000000000094 .L0 
     /tmp/cc01RLuf.s:158    .text:0000000000000098 .L0 
     /tmp/cc01RLuf.s:161    .text:00000000000000a0 .L0 
     /tmp/cc01RLuf.s:162    .text:00000000000000a0 .L0 
     /tmp/cc01RLuf.s:164    .text:00000000000000a4 .L0 
     /tmp/cc01RLuf.s:167    .text:00000000000000a4 .L0 
     /tmp/cc01RLuf.s:168    .text:00000000000000a4 .L0 
     /tmp/cc01RLuf.s:172    .text:00000000000000ac .L0 
     /tmp/cc01RLuf.s:173    .text:00000000000000b0 .L0 
     /tmp/cc01RLuf.s:175    .text:00000000000000b4 .L0 
     /tmp/cc01RLuf.s:176    .text:00000000000000b4 .L0 
     /tmp/cc01RLuf.s:178    .text:00000000000000b8 .L0 
     /tmp/cc01RLuf.s:182    .text:00000000000000c0 .L0 
     /tmp/cc01RLuf.s:138    .text:0000000000000080 _ZN9SemaphoreD1Ev
     /tmp/cc01RLuf.s:197    .text:00000000000000c0 _Znwm
     /tmp/cc01RLuf.s:200    .text:00000000000000c0 .L0 
     /tmp/cc01RLuf.s:202    .text:00000000000000c0 .L0 
     /tmp/cc01RLuf.s:203    .text:00000000000000c4 .L0 
     /tmp/cc01RLuf.s:206    .text:00000000000000cc .L0 
     /tmp/cc01RLuf.s:207    .text:00000000000000cc .L0 
     /tmp/cc01RLuf.s:209    .text:00000000000000d0 .L0 
     /tmp/cc01RLuf.s:211    .text:00000000000000d0 .L0 
     /tmp/cc01RLuf.s:212    .text:00000000000000d0 .L0 
     /tmp/cc01RLuf.s:215    .text:00000000000000d8 .L0 
     /tmp/cc01RLuf.s:216    .text:00000000000000d8 .L0 
     /tmp/cc01RLuf.s:217    .text:00000000000000dc .L0 
     /tmp/cc01RLuf.s:219    .text:00000000000000e0 .L0 
     /tmp/cc01RLuf.s:220    .text:00000000000000e0 .L0 
     /tmp/cc01RLuf.s:222    .text:00000000000000e4 .L0 
     /tmp/cc01RLuf.s:224    .text:00000000000000e8 .L0 
     /tmp/cc01RLuf.s:230    .text:00000000000000e8 _Znam
     /tmp/cc01RLuf.s:233    .text:00000000000000e8 .L0 
     /tmp/cc01RLuf.s:235    .text:00000000000000e8 .L0 
     /tmp/cc01RLuf.s:236    .text:00000000000000ec .L0 
     /tmp/cc01RLuf.s:239    .text:00000000000000f4 .L0 
     /tmp/cc01RLuf.s:240    .text:00000000000000f4 .L0 
     /tmp/cc01RLuf.s:242    .text:00000000000000f8 .L0 
     /tmp/cc01RLuf.s:244    .text:00000000000000f8 .L0 
     /tmp/cc01RLuf.s:245    .text:00000000000000f8 .L0 
     /tmp/cc01RLuf.s:248    .text:0000000000000100 .L0 
     /tmp/cc01RLuf.s:249    .text:0000000000000100 .L0 
     /tmp/cc01RLuf.s:250    .text:0000000000000104 .L0 
     /tmp/cc01RLuf.s:252    .text:0000000000000108 .L0 
     /tmp/cc01RLuf.s:253    .text:0000000000000108 .L0 
     /tmp/cc01RLuf.s:255    .text:000000000000010c .L0 
     /tmp/cc01RLuf.s:257    .text:0000000000000110 .L0 
     /tmp/cc01RLuf.s:263    .text:0000000000000110 _ZdlPv
     /tmp/cc01RLuf.s:266    .text:0000000000000110 .L0 
     /tmp/cc01RLuf.s:268    .text:0000000000000110 .L0 
     /tmp/cc01RLuf.s:269    .text:0000000000000114 .L0 
     /tmp/cc01RLuf.s:272    .text:000000000000011c .L0 
     /tmp/cc01RLuf.s:273    .text:000000000000011c .L0 
GAS LISTING /tmp/cc01RLuf.s 			page 21


     /tmp/cc01RLuf.s:275    .text:0000000000000120 .L0 
     /tmp/cc01RLuf.s:277    .text:0000000000000120 .L0 
     /tmp/cc01RLuf.s:278    .text:0000000000000120 .L0 
     /tmp/cc01RLuf.s:281    .text:0000000000000128 .L0 
     /tmp/cc01RLuf.s:282    .text:000000000000012c .L0 
     /tmp/cc01RLuf.s:284    .text:0000000000000130 .L0 
     /tmp/cc01RLuf.s:285    .text:0000000000000130 .L0 
     /tmp/cc01RLuf.s:287    .text:0000000000000134 .L0 
     /tmp/cc01RLuf.s:289    .text:0000000000000138 .L0 
     /tmp/cc01RLuf.s:295    .text:0000000000000138 _ZN6ThreadD0Ev
     /tmp/cc01RLuf.s:298    .text:0000000000000138 .L0 
     /tmp/cc01RLuf.s:300    .text:0000000000000138 .L0 
     /tmp/cc01RLuf.s:301    .text:000000000000013c .L0 
     /tmp/cc01RLuf.s:305    .text:0000000000000148 .L0 
     /tmp/cc01RLuf.s:306    .text:0000000000000148 .L0 
     /tmp/cc01RLuf.s:307    .text:0000000000000148 .L0 
     /tmp/cc01RLuf.s:309    .text:000000000000014c .L0 
     /tmp/cc01RLuf.s:312    .text:0000000000000150 .L0 
     /tmp/cc01RLuf.s:318    .text:0000000000000168 .L0 
     /tmp/cc01RLuf.s:320    .text:000000000000016c .L0 
     /tmp/cc01RLuf.s:321    .text:000000000000016c .L0 
     /tmp/cc01RLuf.s:323    .text:0000000000000170 .L0 
     /tmp/cc01RLuf.s:326    .text:0000000000000174 .L0 
     /tmp/cc01RLuf.s:328    .text:0000000000000178 .L0 
     /tmp/cc01RLuf.s:334    .text:0000000000000178 _ZN9SemaphoreD0Ev
     /tmp/cc01RLuf.s:337    .text:0000000000000178 .L0 
     /tmp/cc01RLuf.s:339    .text:0000000000000178 .L0 
     /tmp/cc01RLuf.s:340    .text:000000000000017c .L0 
     /tmp/cc01RLuf.s:344    .text:0000000000000188 .L0 
     /tmp/cc01RLuf.s:345    .text:0000000000000188 .L0 
     /tmp/cc01RLuf.s:346    .text:0000000000000188 .L0 
     /tmp/cc01RLuf.s:348    .text:000000000000018c .L0 
     /tmp/cc01RLuf.s:351    .text:0000000000000190 .L0 
     /tmp/cc01RLuf.s:357    .text:00000000000001a8 .L0 
     /tmp/cc01RLuf.s:359    .text:00000000000001ac .L0 
     /tmp/cc01RLuf.s:360    .text:00000000000001ac .L0 
     /tmp/cc01RLuf.s:362    .text:00000000000001b0 .L0 
     /tmp/cc01RLuf.s:365    .text:00000000000001b4 .L0 
     /tmp/cc01RLuf.s:367    .text:00000000000001b8 .L0 
     /tmp/cc01RLuf.s:373    .text:00000000000001b8 _ZdaPv
     /tmp/cc01RLuf.s:376    .text:00000000000001b8 .L0 
     /tmp/cc01RLuf.s:378    .text:00000000000001b8 .L0 
     /tmp/cc01RLuf.s:379    .text:00000000000001bc .L0 
     /tmp/cc01RLuf.s:382    .text:00000000000001c4 .L0 
     /tmp/cc01RLuf.s:383    .text:00000000000001c4 .L0 
     /tmp/cc01RLuf.s:385    .text:00000000000001c8 .L0 
     /tmp/cc01RLuf.s:387    .text:00000000000001c8 .L0 
     /tmp/cc01RLuf.s:388    .text:00000000000001c8 .L0 
     /tmp/cc01RLuf.s:391    .text:00000000000001d0 .L0 
     /tmp/cc01RLuf.s:392    .text:00000000000001d4 .L0 
     /tmp/cc01RLuf.s:394    .text:00000000000001d8 .L0 
     /tmp/cc01RLuf.s:395    .text:00000000000001d8 .L0 
     /tmp/cc01RLuf.s:397    .text:00000000000001dc .L0 
     /tmp/cc01RLuf.s:399    .text:00000000000001e0 .L0 
     /tmp/cc01RLuf.s:405    .text:00000000000001e0 _ZN6ThreadC2EPFvPvES0_
     /tmp/cc01RLuf.s:408    .text:00000000000001e0 .L0 
     /tmp/cc01RLuf.s:410    .text:00000000000001e0 .L0 
GAS LISTING /tmp/cc01RLuf.s 			page 22


     /tmp/cc01RLuf.s:411    .text:00000000000001e4 .L0 
     /tmp/cc01RLuf.s:414    .text:00000000000001ec .L0 
     /tmp/cc01RLuf.s:415    .text:00000000000001ec .L0 
     /tmp/cc01RLuf.s:417    .text:00000000000001f0 .L0 
     /tmp/cc01RLuf.s:420    .text:00000000000001f0 .L0 
     /tmp/cc01RLuf.s:423    .text:00000000000001fc .L0 
     /tmp/cc01RLuf.s:424    .text:00000000000001fc .L0 
     /tmp/cc01RLuf.s:430    .text:0000000000000208 .L0 
     /tmp/cc01RLuf.s:431    .text:000000000000020c .L0 
     /tmp/cc01RLuf.s:433    .text:0000000000000210 .L0 
     /tmp/cc01RLuf.s:434    .text:0000000000000210 .L0 
     /tmp/cc01RLuf.s:436    .text:0000000000000214 .L0 
     /tmp/cc01RLuf.s:438    .text:0000000000000218 .L0 
     /tmp/cc01RLuf.s:405    .text:00000000000001e0 _ZN6ThreadC1EPFvPvES0_
     /tmp/cc01RLuf.s:446    .text:0000000000000218 _ZN6Thread5startEv
     /tmp/cc01RLuf.s:449    .text:0000000000000218 .L0 
     /tmp/cc01RLuf.s:451    .text:0000000000000218 .L0 
     /tmp/cc01RLuf.s:452    .text:000000000000021c .L0 
     /tmp/cc01RLuf.s:455    .text:0000000000000224 .L0 
     /tmp/cc01RLuf.s:456    .text:0000000000000224 .L0 
     /tmp/cc01RLuf.s:458    .text:0000000000000228 .L0 
     /tmp/cc01RLuf.s:460    .text:0000000000000228 .L0 
     /tmp/cc01RLuf.s:461    .text:0000000000000228 .L0 
     /tmp/cc01RLuf.s:466    .text:0000000000000234 .L0 
     /tmp/cc01RLuf.s:467    .text:0000000000000234 .L0 
     /tmp/cc01RLuf.s:469    .text:000000000000023c .L0 
     /tmp/cc01RLuf.s:471    .text:0000000000000240 .L0 
     /tmp/cc01RLuf.s:472    .text:0000000000000240 .L0 
     /tmp/cc01RLuf.s:474    .text:0000000000000244 .L0 
     /tmp/cc01RLuf.s:476    .text:0000000000000248 .L0 
     /tmp/cc01RLuf.s:482    .text:0000000000000248 _ZN6Thread8dispatchEv
     /tmp/cc01RLuf.s:485    .text:0000000000000248 .L0 
     /tmp/cc01RLuf.s:486    .text:0000000000000248 .L0 
     /tmp/cc01RLuf.s:487    .text:000000000000024c .L0 
     /tmp/cc01RLuf.s:490    .text:0000000000000254 .L0 
     /tmp/cc01RLuf.s:491    .text:0000000000000254 .L0 
     /tmp/cc01RLuf.s:493    .text:0000000000000258 .L0 
     /tmp/cc01RLuf.s:495    .text:0000000000000258 .L0 
     /tmp/cc01RLuf.s:496    .text:0000000000000258 .L0 
     /tmp/cc01RLuf.s:499    .text:0000000000000260 .L0 
     /tmp/cc01RLuf.s:500    .text:0000000000000264 .L0 
     /tmp/cc01RLuf.s:502    .text:0000000000000268 .L0 
     /tmp/cc01RLuf.s:503    .text:0000000000000268 .L0 
     /tmp/cc01RLuf.s:505    .text:000000000000026c .L0 
     /tmp/cc01RLuf.s:507    .text:0000000000000270 .L0 
     /tmp/cc01RLuf.s:513    .text:0000000000000270 _ZN6Thread5sleepEm
     /tmp/cc01RLuf.s:516    .text:0000000000000270 .L0 
     /tmp/cc01RLuf.s:517    .text:0000000000000270 .L0 
     /tmp/cc01RLuf.s:518    .text:0000000000000274 .L0 
     /tmp/cc01RLuf.s:520    .text:0000000000000278 .L0 
     /tmp/cc01RLuf.s:522    .text:000000000000027c .L0 
     /tmp/cc01RLuf.s:524    .text:000000000000027c .L0 
     /tmp/cc01RLuf.s:525    .text:000000000000027c .L0 
     /tmp/cc01RLuf.s:527    .text:0000000000000284 .L0 
     /tmp/cc01RLuf.s:528    .text:0000000000000284 .L0 
     /tmp/cc01RLuf.s:530    .text:0000000000000288 .L0 
     /tmp/cc01RLuf.s:532    .text:000000000000028c .L0 
GAS LISTING /tmp/cc01RLuf.s 			page 23


     /tmp/cc01RLuf.s:538    .text:000000000000028c _ZN6ThreadC2Ev
     /tmp/cc01RLuf.s:541    .text:000000000000028c .L0 
     /tmp/cc01RLuf.s:543    .text:000000000000028c .L0 
     /tmp/cc01RLuf.s:544    .text:0000000000000290 .L0 
     /tmp/cc01RLuf.s:547    .text:0000000000000298 .L0 
     /tmp/cc01RLuf.s:548    .text:0000000000000298 .L0 
     /tmp/cc01RLuf.s:550    .text:000000000000029c .L0 
     /tmp/cc01RLuf.s:553    .text:000000000000029c .L0 
     /tmp/cc01RLuf.s:556    .text:00000000000002a8 .L0 
     /tmp/cc01RLuf.s:557    .text:00000000000002a8 .L0 
     /tmp/cc01RLuf.s:565    .text:00000000000002c0 .L0 
     /tmp/cc01RLuf.s:566    .text:00000000000002c4 .L0 
     /tmp/cc01RLuf.s:568    .text:00000000000002c8 .L0 
     /tmp/cc01RLuf.s:569    .text:00000000000002c8 .L0 
     /tmp/cc01RLuf.s:571    .text:00000000000002cc .L0 
     /tmp/cc01RLuf.s:573    .text:00000000000002d0 .L0 
     /tmp/cc01RLuf.s:538    .text:000000000000028c _ZN6ThreadC1Ev
     /tmp/cc01RLuf.s:581    .text:00000000000002d0 _ZN9SemaphoreC2Ej
     /tmp/cc01RLuf.s:584    .text:00000000000002d0 .L0 
     /tmp/cc01RLuf.s:586    .text:00000000000002d0 .L0 
     /tmp/cc01RLuf.s:587    .text:00000000000002d4 .L0 
     /tmp/cc01RLuf.s:590    .text:00000000000002dc .L0 
     /tmp/cc01RLuf.s:591    .text:00000000000002dc .L0 
     /tmp/cc01RLuf.s:593    .text:00000000000002e0 .L0 
     /tmp/cc01RLuf.s:596    .text:00000000000002e0 .L0 
     /tmp/cc01RLuf.s:599    .text:00000000000002ec .L0 
     /tmp/cc01RLuf.s:600    .text:00000000000002ec .L0 
     /tmp/cc01RLuf.s:606    .text:00000000000002f8 .L0 
     /tmp/cc01RLuf.s:607    .text:00000000000002fc .L0 
     /tmp/cc01RLuf.s:609    .text:0000000000000300 .L0 
     /tmp/cc01RLuf.s:610    .text:0000000000000300 .L0 
     /tmp/cc01RLuf.s:612    .text:0000000000000304 .L0 
     /tmp/cc01RLuf.s:614    .text:0000000000000308 .L0 
     /tmp/cc01RLuf.s:581    .text:00000000000002d0 _ZN9SemaphoreC1Ej
     /tmp/cc01RLuf.s:622    .text:0000000000000308 _ZN9Semaphore4waitEv
     /tmp/cc01RLuf.s:625    .text:0000000000000308 .L0 
     /tmp/cc01RLuf.s:627    .text:0000000000000308 .L0 
     /tmp/cc01RLuf.s:628    .text:0000000000000308 .L0 
     /tmp/cc01RLuf.s:629    .text:0000000000000308 .L0 
     /tmp/cc01RLuf.s:632    .text:000000000000030c .L0 
     /tmp/cc01RLuf.s:634    .text:0000000000000310 .L0 
     /tmp/cc01RLuf.s:635    .text:0000000000000314 .L0 
     /tmp/cc01RLuf.s:638    .text:000000000000031c .L0 
     /tmp/cc01RLuf.s:639    .text:000000000000031c .L0 
     /tmp/cc01RLuf.s:641    .text:0000000000000320 .L0 
     /tmp/cc01RLuf.s:643    .text:0000000000000320 .L0 
     /tmp/cc01RLuf.s:644    .text:0000000000000320 .L0 
     /tmp/cc01RLuf.s:647    .text:0000000000000328 .L0 
     /tmp/cc01RLuf.s:648    .text:000000000000032c .L0 
     /tmp/cc01RLuf.s:650    .text:0000000000000330 .L0 
     /tmp/cc01RLuf.s:651    .text:0000000000000330 .L0 
     /tmp/cc01RLuf.s:653    .text:0000000000000334 .L0 
     /tmp/cc01RLuf.s:657    .text:0000000000000338 .L0 
     /tmp/cc01RLuf.s:659    .text:000000000000033c .L0 
     /tmp/cc01RLuf.s:660    .text:0000000000000340 .L0 
     /tmp/cc01RLuf.s:666    .text:0000000000000340 _ZN9Semaphore6signalEv
     /tmp/cc01RLuf.s:669    .text:0000000000000340 .L0 
GAS LISTING /tmp/cc01RLuf.s 			page 24


     /tmp/cc01RLuf.s:671    .text:0000000000000340 .L0 
     /tmp/cc01RLuf.s:672    .text:0000000000000340 .L0 
     /tmp/cc01RLuf.s:673    .text:0000000000000340 .L0 
     /tmp/cc01RLuf.s:676    .text:0000000000000344 .L0 
     /tmp/cc01RLuf.s:678    .text:0000000000000348 .L0 
     /tmp/cc01RLuf.s:679    .text:000000000000034c .L0 
     /tmp/cc01RLuf.s:682    .text:0000000000000354 .L0 
     /tmp/cc01RLuf.s:683    .text:0000000000000354 .L0 
     /tmp/cc01RLuf.s:685    .text:0000000000000358 .L0 
     /tmp/cc01RLuf.s:687    .text:0000000000000358 .L0 
     /tmp/cc01RLuf.s:688    .text:0000000000000358 .L0 
     /tmp/cc01RLuf.s:691    .text:0000000000000360 .L0 
     /tmp/cc01RLuf.s:692    .text:0000000000000364 .L0 
     /tmp/cc01RLuf.s:694    .text:0000000000000368 .L0 
     /tmp/cc01RLuf.s:695    .text:0000000000000368 .L0 
     /tmp/cc01RLuf.s:697    .text:000000000000036c .L0 
     /tmp/cc01RLuf.s:701    .text:0000000000000370 .L0 
     /tmp/cc01RLuf.s:703    .text:0000000000000374 .L0 
     /tmp/cc01RLuf.s:704    .text:0000000000000378 .L0 
     /tmp/cc01RLuf.s:710    .text:0000000000000378 _ZN7Console4getcEv
     /tmp/cc01RLuf.s:713    .text:0000000000000378 .L0 
     /tmp/cc01RLuf.s:714    .text:0000000000000378 .L0 
     /tmp/cc01RLuf.s:715    .text:000000000000037c .L0 
     /tmp/cc01RLuf.s:718    .text:0000000000000384 .L0 
     /tmp/cc01RLuf.s:719    .text:0000000000000384 .L0 
     /tmp/cc01RLuf.s:721    .text:0000000000000388 .L0 
     /tmp/cc01RLuf.s:723    .text:0000000000000388 .L0 
     /tmp/cc01RLuf.s:724    .text:0000000000000388 .L0 
     /tmp/cc01RLuf.s:727    .text:0000000000000390 .L0 
     /tmp/cc01RLuf.s:728    .text:0000000000000394 .L0 
     /tmp/cc01RLuf.s:730    .text:0000000000000398 .L0 
     /tmp/cc01RLuf.s:731    .text:0000000000000398 .L0 
     /tmp/cc01RLuf.s:733    .text:000000000000039c .L0 
     /tmp/cc01RLuf.s:735    .text:00000000000003a0 .L0 
     /tmp/cc01RLuf.s:741    .text:00000000000003a0 _ZN7Console4putcEc
     /tmp/cc01RLuf.s:744    .text:00000000000003a0 .L0 
     /tmp/cc01RLuf.s:746    .text:00000000000003a0 .L0 
     /tmp/cc01RLuf.s:747    .text:00000000000003a4 .L0 
     /tmp/cc01RLuf.s:750    .text:00000000000003ac .L0 
     /tmp/cc01RLuf.s:751    .text:00000000000003ac .L0 
     /tmp/cc01RLuf.s:753    .text:00000000000003b0 .L0 
     /tmp/cc01RLuf.s:755    .text:00000000000003b0 .L0 
     /tmp/cc01RLuf.s:756    .text:00000000000003b0 .L0 
     /tmp/cc01RLuf.s:759    .text:00000000000003b8 .L0 
     /tmp/cc01RLuf.s:760    .text:00000000000003bc .L0 
     /tmp/cc01RLuf.s:762    .text:00000000000003c0 .L0 
     /tmp/cc01RLuf.s:763    .text:00000000000003c0 .L0 
     /tmp/cc01RLuf.s:765    .text:00000000000003c4 .L0 
     /tmp/cc01RLuf.s:767    .text:00000000000003c8 .L0 
     /tmp/cc01RLuf.s:32     .text._ZN6Thread3runEv:0000000000000018 .L0 
     /tmp/cc01RLuf.s:796    .text:00000000000003c8 .L0 
     /tmp/cc01RLuf.s:98     .text:000000000000004c .L0 
     /tmp/cc01RLuf.s:147    .text:0000000000000080 .L0 
     /tmp/cc01RLuf.s:420    .text:00000000000001f0 .L0 
     /tmp/cc01RLuf.s:553    .text:000000000000029c .L0 
     /tmp/cc01RLuf.s:558    .text:00000000000002ac .L0 
     /tmp/cc01RLuf.s:596    .text:00000000000002e0 .L0 
GAS LISTING /tmp/cc01RLuf.s 			page 25


     /tmp/cc01RLuf.s:70     .text:0000000000000030 .L6
     /tmp/cc01RLuf.s:180    .text:00000000000000bc .L14
     /tmp/cc01RLuf.s:655    .text:0000000000000338 .L43
     /tmp/cc01RLuf.s:699    .text:0000000000000370 .L50
     /tmp/cc01RLuf.s:2245   .debug_abbrev:0000000000000000 .Ldebug_abbrev0
     /tmp/cc01RLuf.s:3870   .debug_str:00000000000006ec .LASF134
     /tmp/cc01RLuf.s:3738   .debug_str:0000000000000312 .LASF135
     /tmp/cc01RLuf.s:3678   .debug_str:0000000000000158 .LASF136
     /tmp/cc01RLuf.s:3622   .debug_ranges:0000000000000000 .Ldebug_ranges0
     /tmp/cc01RLuf.s:3630   .debug_line:0000000000000000 .Ldebug_line0
     /tmp/cc01RLuf.s:3732   .debug_str:00000000000002f1 .LASF0
     /tmp/cc01RLuf.s:3752   .debug_str:0000000000000393 .LASF1
     /tmp/cc01RLuf.s:3816   .debug_str:0000000000000583 .LASF2
     /tmp/cc01RLuf.s:3828   .debug_str:00000000000005e3 .LASF4
     /tmp/cc01RLuf.s:3740   .debug_str:0000000000000326 .LASF3
     /tmp/cc01RLuf.s:3642   .debug_str:0000000000000043 .LASF5
     /tmp/cc01RLuf.s:3796   .debug_str:00000000000004e6 .LASF6
     /tmp/cc01RLuf.s:3792   .debug_str:00000000000004c6 .LASF7
     /tmp/cc01RLuf.s:3746   .debug_str:000000000000036b .LASF8
     /tmp/cc01RLuf.s:3716   .debug_str:0000000000000289 .LASF9
     /tmp/cc01RLuf.s:3718   .debug_str:0000000000000299 .LASF10
     /tmp/cc01RLuf.s:3672   .debug_str:0000000000000122 .LASF11
     /tmp/cc01RLuf.s:3710   .debug_str:000000000000026d .LASF12
     /tmp/cc01RLuf.s:3682   .debug_str:0000000000000187 .LASF13
     /tmp/cc01RLuf.s:3670   .debug_str:0000000000000112 .LASF14
     /tmp/cc01RLuf.s:3846   .debug_str:000000000000066d .LASF15
     /tmp/cc01RLuf.s:3700   .debug_str:000000000000021f .LASF16
     /tmp/cc01RLuf.s:3838   .debug_str:000000000000061e .LASF17
     /tmp/cc01RLuf.s:3654   .debug_str:0000000000000094 .LASF46
     /tmp/cc01RLuf.s:3854   .debug_str:0000000000000692 .LASF137
     /tmp/cc01RLuf.s:3666   .debug_str:00000000000000dc .LASF48
     /tmp/cc01RLuf.s:3788   .debug_str:00000000000004ab .LASF138
     /tmp/cc01RLuf.s:3634   .debug_str:0000000000000011 .LASF18
     /tmp/cc01RLuf.s:3910   .debug_str:00000000000008de .LASF19
     /tmp/cc01RLuf.s:3878   .debug_str:00000000000007e6 .LASF20
     /tmp/cc01RLuf.s:3836   .debug_str:0000000000000615 .LASF21
     /tmp/cc01RLuf.s:3782   .debug_str:0000000000000472 .LASF22
     /tmp/cc01RLuf.s:3880   .debug_str:00000000000007f0 .LASF23
     /tmp/cc01RLuf.s:3662   .debug_str:00000000000000be .LASF139
     /tmp/cc01RLuf.s:3806   .debug_str:000000000000052b .LASF140
     /tmp/cc01RLuf.s:3830   .debug_str:00000000000005ea .LASF141
     /tmp/cc01RLuf.s:3826   .debug_str:00000000000005d8 .LASF24
     /tmp/cc01RLuf.s:3900   .debug_str:00000000000008ae .LASF25
     /tmp/cc01RLuf.s:3850   .debug_str:0000000000000682 .LASF26
     /tmp/cc01RLuf.s:3748   .debug_str:000000000000037e .LASF28
     /tmp/cc01RLuf.s:3856   .debug_str:000000000000069a .LASF30
     /tmp/cc01RLuf.s:3842   .debug_str:0000000000000645 .LASF32
     /tmp/cc01RLuf.s:3660   .debug_str:00000000000000b2 .LASF27
     /tmp/cc01RLuf.s:3888   .debug_str:0000000000000836 .LASF29
     /tmp/cc01RLuf.s:3820   .debug_str:00000000000005a0 .LASF31
     /tmp/cc01RLuf.s:3760   .debug_str:00000000000003cb .LASF33
     /tmp/cc01RLuf.s:3858   .debug_str:00000000000006a5 .LASF34
     /tmp/cc01RLuf.s:3822   .debug_str:00000000000005aa .LASF35
     /tmp/cc01RLuf.s:3756   .debug_str:00000000000003ac .LASF36
     /tmp/cc01RLuf.s:3668   .debug_str:00000000000000f5 .LASF37
     /tmp/cc01RLuf.s:3780   .debug_str:000000000000045c .LASF40
     /tmp/cc01RLuf.s:3696   .debug_str:00000000000001f0 .LASF42
GAS LISTING /tmp/cc01RLuf.s 			page 26


     /tmp/cc01RLuf.s:3868   .debug_str:00000000000006e1 .LASF61
     /tmp/cc01RLuf.s:3768   .debug_str:0000000000000400 .LASF63
     /tmp/cc01RLuf.s:3844   .debug_str:0000000000000660 .LASF38
     /tmp/cc01RLuf.s:3882   .debug_str:00000000000007f8 .LASF39
     /tmp/cc01RLuf.s:3754   .debug_str:00000000000003a6 .LASF41
     /tmp/cc01RLuf.s:3776   .debug_str:0000000000000435 .LASF43
     /tmp/cc01RLuf.s:3692   .debug_str:00000000000001e2 .LASF44
     /tmp/cc01RLuf.s:3690   .debug_str:00000000000001cb .LASF45
     /tmp/cc01RLuf.s:3688   .debug_str:00000000000001bd .LASF47
     /tmp/cc01RLuf.s:3742   .debug_str:0000000000000338 .LASF49
     /tmp/cc01RLuf.s:3908   .debug_str:00000000000008d8 .LASF50
     /tmp/cc01RLuf.s:3798   .debug_str:00000000000004ed .LASF51
     /tmp/cc01RLuf.s:3714   .debug_str:0000000000000281 .LASF142
     /tmp/cc01RLuf.s:3916   .debug_str:0000000000000907 .LASF52
     /tmp/cc01RLuf.s:3810   .debug_str:0000000000000551 .LASF53
     /tmp/cc01RLuf.s:3664   .debug_str:00000000000000cc .LASF54
     /tmp/cc01RLuf.s:3804   .debug_str:000000000000051b .LASF55
     /tmp/cc01RLuf.s:3636   .debug_str:0000000000000016 .LASF56
     /tmp/cc01RLuf.s:3872   .debug_str:00000000000007b0 .LASF57
     /tmp/cc01RLuf.s:3914   .debug_str:00000000000008f4 .LASF65
     /tmp/cc01RLuf.s:3632   .debug_str:0000000000000000 .LASF67
     /tmp/cc01RLuf.s:3892   .debug_str:000000000000085a .LASF58
     /tmp/cc01RLuf.s:3902   .debug_str:00000000000008b9 .LASF59
     /tmp/cc01RLuf.s:3860   .debug_str:00000000000006b0 .LASF143
     /tmp/cc01RLuf.s:3766   .debug_str:00000000000003f8 .LASF60
     /tmp/cc01RLuf.s:3734   .debug_str:00000000000002fe .LASF62
     /tmp/cc01RLuf.s:3896   .debug_str:0000000000000888 .LASF64
     /tmp/cc01RLuf.s:3772   .debug_str:0000000000000426 .LASF66
     /tmp/cc01RLuf.s:3898   .debug_str:000000000000089b .LASF68
     /tmp/cc01RLuf.s:3862   .debug_str:00000000000006b5 .LASF69
     /tmp/cc01RLuf.s:3764   .debug_str:00000000000003f3 .LASF70
     /tmp/cc01RLuf.s:3724   .debug_str:00000000000002c0 .LASF71
     /tmp/cc01RLuf.s:3680   .debug_str:0000000000000175 .LASF80
     /tmp/cc01RLuf.s:3812   .debug_str:0000000000000561 .LASF82
     /tmp/cc01RLuf.s:3922   .debug_str:000000000000092f .LASF72
     /tmp/cc01RLuf.s:3834   .debug_str:000000000000060d .LASF85
     /tmp/cc01RLuf.s:3706   .debug_str:0000000000000258 .LASF87
     /tmp/cc01RLuf.s:3638   .debug_str:0000000000000026 .LASF73
     /tmp/cc01RLuf.s:3790   .debug_str:00000000000004b0 .LASF74
     /tmp/cc01RLuf.s:3652   .debug_str:000000000000008e .LASF75
     /tmp/cc01RLuf.s:3778   .debug_str:0000000000000449 .LASF76
     /tmp/cc01RLuf.s:3736   .debug_str:0000000000000303 .LASF77
     /tmp/cc01RLuf.s:3728   .debug_str:00000000000002d0 .LASF144
     /tmp/cc01RLuf.s:3702   .debug_str:0000000000000235 .LASF78
     /tmp/cc01RLuf.s:3884   .debug_str:000000000000081c .LASF79
     /tmp/cc01RLuf.s:3866   .debug_str:00000000000006cc .LASF81
     /tmp/cc01RLuf.s:3912   .debug_str:00000000000008e4 .LASF83
     /tmp/cc01RLuf.s:3864   .debug_str:00000000000006ba .LASF84
     /tmp/cc01RLuf.s:3802   .debug_str:0000000000000510 .LASF86
     /tmp/cc01RLuf.s:3832   .debug_str:00000000000005fb .LASF88
     /tmp/cc01RLuf.s:3694   .debug_str:00000000000001eb .LASF89
     /tmp/cc01RLuf.s:3676   .debug_str:0000000000000143 .LASF90
     /tmp/cc01RLuf.s:3852   .debug_str:000000000000068b .LASF91
     /tmp/cc01RLuf.s:3644   .debug_str:000000000000004a .LASF92
     /tmp/cc01RLuf.s:3730   .debug_str:00000000000002e1 .LASF145
     /tmp/cc01RLuf.s:742    .text:00000000000003a0 .LFB68
     /tmp/cc01RLuf.s:768    .text:00000000000003c8 .LFE68
GAS LISTING /tmp/cc01RLuf.s 			page 27


     /tmp/cc01RLuf.s:3309   .debug_loc:0000000000000000 .LLST18
     /tmp/cc01RLuf.s:757    .text:00000000000003b8 .LVL48
     /tmp/cc01RLuf.s:711    .text:0000000000000378 .LFB67
     /tmp/cc01RLuf.s:736    .text:00000000000003a0 .LFE67
     /tmp/cc01RLuf.s:725    .text:0000000000000390 .LVL46
     /tmp/cc01RLuf.s:667    .text:0000000000000340 .LFB66
     /tmp/cc01RLuf.s:705    .text:0000000000000378 .LFE66
     /tmp/cc01RLuf.s:3712   .debug_str:000000000000027c .LASF93
     /tmp/cc01RLuf.s:3323   .debug_loc:0000000000000039 .LLST17
     /tmp/cc01RLuf.s:689    .text:0000000000000360 .LVL45
     /tmp/cc01RLuf.s:623    .text:0000000000000308 .LFB65
     /tmp/cc01RLuf.s:661    .text:0000000000000340 .LFE65
     /tmp/cc01RLuf.s:3337   .debug_loc:0000000000000072 .LLST16
     /tmp/cc01RLuf.s:645    .text:0000000000000328 .LVL42
     /tmp/cc01RLuf.s:3640   .debug_str:0000000000000039 .LASF94
     /tmp/cc01RLuf.s:3758   .debug_str:00000000000003b9 .LASF95
     /tmp/cc01RLuf.s:335    .text:0000000000000178 .LFB64
     /tmp/cc01RLuf.s:368    .text:00000000000001b8 .LFE64
     /tmp/cc01RLuf.s:3351   .debug_loc:00000000000000ab .LLST7
     /tmp/cc01RLuf.s:352    .text:0000000000000198 .LVL22
     /tmp/cc01RLuf.s:355    .text:00000000000001a4 .LVL23
     /tmp/cc01RLuf.s:3648   .debug_str:0000000000000076 .LASF96
     /tmp/cc01RLuf.s:139    .text:0000000000000080 .LFB62
     /tmp/cc01RLuf.s:183    .text:00000000000000c0 .LFE62
     /tmp/cc01RLuf.s:3369   .debug_loc:00000000000000f7 .LLST2
     /tmp/cc01RLuf.s:169    .text:00000000000000ac .LVL10
     /tmp/cc01RLuf.s:3656   .debug_str:000000000000009c .LASF101
     /tmp/cc01RLuf.s:3674   .debug_str:0000000000000131 .LASF97
     /tmp/cc01RLuf.s:582    .text:00000000000002d0 .LFB59
     /tmp/cc01RLuf.s:615    .text:0000000000000308 .LFE59
     /tmp/cc01RLuf.s:3383   .debug_loc:0000000000000130 .LLST14
     /tmp/cc01RLuf.s:3403   .debug_loc:000000000000017e .LLST15
     /tmp/cc01RLuf.s:603    .text:00000000000002f8 .LVL39
     /tmp/cc01RLuf.s:3818   .debug_str:0000000000000591 .LASF98
     /tmp/cc01RLuf.s:539    .text:000000000000028c .LFB56
     /tmp/cc01RLuf.s:574    .text:00000000000002d0 .LFE56
     /tmp/cc01RLuf.s:3417   .debug_loc:00000000000001b7 .LLST13
     /tmp/cc01RLuf.s:562    .text:00000000000002c0 .LVL36
     /tmp/cc01RLuf.s:514    .text:0000000000000270 .LFB54
     /tmp/cc01RLuf.s:533    .text:000000000000028c .LFE54
     /tmp/cc01RLuf.s:483    .text:0000000000000248 .LFB53
     /tmp/cc01RLuf.s:508    .text:0000000000000270 .LFE53
     /tmp/cc01RLuf.s:497    .text:0000000000000260 .LVL33
     /tmp/cc01RLuf.s:447    .text:0000000000000218 .LFB52
     /tmp/cc01RLuf.s:477    .text:0000000000000248 .LFE52
     /tmp/cc01RLuf.s:3435   .debug_loc:0000000000000203 .LLST12
     /tmp/cc01RLuf.s:464    .text:0000000000000234 .LVL32
     /tmp/cc01RLuf.s:3762   .debug_str:00000000000003e4 .LASF99
     /tmp/cc01RLuf.s:296    .text:0000000000000138 .LFB51
     /tmp/cc01RLuf.s:329    .text:0000000000000178 .LFE51
     /tmp/cc01RLuf.s:3449   .debug_loc:000000000000023c .LLST6
     /tmp/cc01RLuf.s:313    .text:0000000000000158 .LVL18
     /tmp/cc01RLuf.s:316    .text:0000000000000164 .LVL19
     /tmp/cc01RLuf.s:3800   .debug_str:0000000000000501 .LASF100
     /tmp/cc01RLuf.s:79     .text:0000000000000034 .LFB49
     /tmp/cc01RLuf.s:123    .text:0000000000000080 .LFE49
     /tmp/cc01RLuf.s:3467   .debug_loc:0000000000000288 .LLST1
GAS LISTING /tmp/cc01RLuf.s 			page 28


     /tmp/cc01RLuf.s:103    .text:0000000000000060 .LVL5
     /tmp/cc01RLuf.s:108    .text:000000000000006c .LVL6
     /tmp/cc01RLuf.s:3876   .debug_str:00000000000007cf .LASF102
     /tmp/cc01RLuf.s:406    .text:00000000000001e0 .LFB46
     /tmp/cc01RLuf.s:439    .text:0000000000000218 .LFE46
     /tmp/cc01RLuf.s:3485   .debug_loc:00000000000002d4 .LLST9
     /tmp/cc01RLuf.s:3505   .debug_loc:0000000000000322 .LLST10
     /tmp/cc01RLuf.s:3519   .debug_loc:000000000000035b .LLST11
     /tmp/cc01RLuf.s:427    .text:0000000000000208 .LVL29
     /tmp/cc01RLuf.s:3744   .debug_str:0000000000000364 .LASF103
     /tmp/cc01RLuf.s:374    .text:00000000000001b8 .LFB44
     /tmp/cc01RLuf.s:400    .text:00000000000001e0 .LFE44
     /tmp/cc01RLuf.s:3533   .debug_loc:0000000000000394 .LLST8
     /tmp/cc01RLuf.s:389    .text:00000000000001d0 .LVL26
     /tmp/cc01RLuf.s:3786   .debug_str:00000000000004a4 .LASF104
     /tmp/cc01RLuf.s:264    .text:0000000000000110 .LFB43
     /tmp/cc01RLuf.s:290    .text:0000000000000138 .LFE43
     /tmp/cc01RLuf.s:3547   .debug_loc:00000000000003cd .LLST5
     /tmp/cc01RLuf.s:279    .text:0000000000000128 .LVL16
     /tmp/cc01RLuf.s:3650   .debug_str:0000000000000088 .LASF105
     /tmp/cc01RLuf.s:231    .text:00000000000000e8 .LFB42
     /tmp/cc01RLuf.s:258    .text:0000000000000110 .LFE42
     /tmp/cc01RLuf.s:3750   .debug_str:000000000000038e .LASF106
     /tmp/cc01RLuf.s:3561   .debug_loc:0000000000000406 .LLST4
     /tmp/cc01RLuf.s:246    .text:0000000000000100 .LVL14
     /tmp/cc01RLuf.s:3708   .debug_str:0000000000000267 .LASF107
     /tmp/cc01RLuf.s:198    .text:00000000000000c0 .LFB41
     /tmp/cc01RLuf.s:225    .text:00000000000000e8 .LFE41
     /tmp/cc01RLuf.s:3575   .debug_loc:000000000000043f .LLST3
     /tmp/cc01RLuf.s:213    .text:00000000000000d8 .LVL12
     /tmp/cc01RLuf.s:3904   .debug_str:00000000000008bf .LASF108
     /tmp/cc01RLuf.s:3658   .debug_str:00000000000000a1 .LASF109
     /tmp/cc01RLuf.s:37     .text:0000000000000000 .LFB40
     /tmp/cc01RLuf.s:73     .text:0000000000000034 .LFE40
     /tmp/cc01RLuf.s:3589   .debug_loc:0000000000000478 .LLST0
     /tmp/cc01RLuf.s:59     .text:0000000000000020 .LVL2
     /tmp/cc01RLuf.s:11     .text._ZN6Thread3runEv:0000000000000000 .LFB11
     /tmp/cc01RLuf.s:30     .text._ZN6Thread3runEv:0000000000000018 .LFE11
     /tmp/cc01RLuf.s:3848   .debug_str:0000000000000679 .LASF110
     /tmp/cc01RLuf.s:3890   .debug_str:0000000000000851 .LASF111
     /tmp/cc01RLuf.s:3814   .debug_str:000000000000056e .LASF112
     /tmp/cc01RLuf.s:3722   .debug_str:00000000000002b5 .LASF113
     /tmp/cc01RLuf.s:3918   .debug_str:0000000000000914 .LASF114
     /tmp/cc01RLuf.s:3920   .debug_str:0000000000000926 .LASF115
     /tmp/cc01RLuf.s:3686   .debug_str:00000000000001aa .LASF116
     /tmp/cc01RLuf.s:3698   .debug_str:0000000000000215 .LASF117
     /tmp/cc01RLuf.s:3824   .debug_str:00000000000005c4 .LASF118
     /tmp/cc01RLuf.s:3808   .debug_str:0000000000000548 .LASF119
     /tmp/cc01RLuf.s:3784   .debug_str:000000000000047a .LASF120
     /tmp/cc01RLuf.s:3684   .debug_str:0000000000000197 .LASF121
     /tmp/cc01RLuf.s:3646   .debug_str:0000000000000061 .LASF122
     /tmp/cc01RLuf.s:3886   .debug_str:0000000000000826 .LASF123
     /tmp/cc01RLuf.s:3704   .debug_str:000000000000023e .LASF124
     /tmp/cc01RLuf.s:3794   .debug_str:00000000000004d9 .LASF125
     /tmp/cc01RLuf.s:3840   .debug_str:0000000000000634 .LASF126
     /tmp/cc01RLuf.s:3770   .debug_str:000000000000041a .LASF127
     /tmp/cc01RLuf.s:3906   .debug_str:00000000000008ca .LASF128
GAS LISTING /tmp/cc01RLuf.s 			page 29


     /tmp/cc01RLuf.s:3726   .debug_str:00000000000002c7 .LASF129
     /tmp/cc01RLuf.s:3894   .debug_str:0000000000000863 .LASF130
     /tmp/cc01RLuf.s:3874   .debug_str:00000000000007c1 .LASF131
     /tmp/cc01RLuf.s:3720   .debug_str:00000000000002a7 .LASF132
     /tmp/cc01RLuf.s:3774   .debug_str:000000000000042b .LASF133
     /tmp/cc01RLuf.s:745    .text:00000000000003a0 .LVL47
     /tmp/cc01RLuf.s:670    .text:0000000000000340 .LVL43
     /tmp/cc01RLuf.s:674    .text:0000000000000344 .LVL44
     /tmp/cc01RLuf.s:626    .text:0000000000000308 .LVL40
     /tmp/cc01RLuf.s:630    .text:000000000000030c .LVL41
     /tmp/cc01RLuf.s:338    .text:0000000000000178 .LVL21
     /tmp/cc01RLuf.s:363    .text:00000000000001b0 .LVL24
     /tmp/cc01RLuf.s:144    .text:0000000000000080 .LVL8
     /tmp/cc01RLuf.s:152    .text:0000000000000090 .LVL9
     /tmp/cc01RLuf.s:585    .text:00000000000002d0 .LVL37
     /tmp/cc01RLuf.s:601    .text:00000000000002f0 .LVL38
     /tmp/cc01RLuf.s:542    .text:000000000000028c .LVL34
     /tmp/cc01RLuf.s:560    .text:00000000000002b8 .LVL35
     /tmp/cc01RLuf.s:450    .text:0000000000000218 .LVL30
     /tmp/cc01RLuf.s:462    .text:000000000000022c .LVL31
     /tmp/cc01RLuf.s:299    .text:0000000000000138 .LVL17
     /tmp/cc01RLuf.s:324    .text:0000000000000170 .LVL20
     /tmp/cc01RLuf.s:84     .text:0000000000000034 .LVL4
     /tmp/cc01RLuf.s:118    .text:0000000000000078 .LVL7
     /tmp/cc01RLuf.s:409    .text:00000000000001e0 .LVL27
     /tmp/cc01RLuf.s:425    .text:0000000000000200 .LVL28
     /tmp/cc01RLuf.s:377    .text:00000000000001b8 .LVL25
     /tmp/cc01RLuf.s:267    .text:0000000000000110 .LVL15
     /tmp/cc01RLuf.s:234    .text:00000000000000e8 .LVL13
     /tmp/cc01RLuf.s:201    .text:00000000000000c0 .LVL11
     /tmp/cc01RLuf.s:41     .text:0000000000000000 .LVL1
     /tmp/cc01RLuf.s:69     .text:0000000000000030 .LVL3
     /tmp/cc01RLuf.s:797    .debug_info:0000000000000000 .Ldebug_info0
     /tmp/cc01RLuf.s:5      .text:0000000000000000 .Ltext0
     /tmp/cc01RLuf.s:792    .text:00000000000003c8 .Letext0
     /tmp/cc01RLuf.s:126    .gcc_except_table:0000000000000000 .LLSDA49
     /tmp/cc01RLuf.s:185    .gcc_except_table:0000000000000004 .LLSDA62

UNDEFINED SYMBOLS
_Z11thread_exitv
_Z8mem_freePv
__gxx_personality_v0
_Z9sem_closeP4_sem
_Z9mem_allocm
_Z13thread_createPP7_threadPFvPvES2_
_Z12thread_startP7_thread
_Z15thread_dispatchv
_Z18thread_create_onlyPP7_threadPFvPvES2_
_Z8sem_openPP4_semj
_Z8sem_waitP4_sem
_Z10sem_signalP4_sem
_Z4getcv
_Z4putcc
