GAS LISTING /tmp/cccDtYlh.s 			page 1


   1              		.file	"userMain.cpp"
   2              		.option pic
   3              		.option norelax
   4              		.text
   5              	.Ltext0:
   6              		.section	.text._ZN7WorkerAD2Ev,"axG",@progbits,_ZN7WorkerAD5Ev,comdat
   7              		.align	2
   8              		.weak	_ZN7WorkerAD2Ev
  10              	_ZN7WorkerAD2Ev:
  11              	.LFB48:
  12              		.file 1 "src/../test/Threads_CPP_API_test.h"
   1:src/../test/Threads_CPP_API_test.h **** //
   2:src/../test/Threads_CPP_API_test.h **** // Created by os on 6/21/22.
   3:src/../test/Threads_CPP_API_test.h **** //
   4:src/../test/Threads_CPP_API_test.h **** 
   5:src/../test/Threads_CPP_API_test.h **** #ifndef OS_PROJEKAT_THREADS_CPP_API_TEST_H
   6:src/../test/Threads_CPP_API_test.h **** #define OS_PROJEKAT_THREADS_CPP_API_TEST_H
   7:src/../test/Threads_CPP_API_test.h **** #include "../h/syscall_cpp.h"
   8:src/../test/Threads_CPP_API_test.h **** 
   9:src/../test/Threads_CPP_API_test.h **** #include "printing.h"
  10:src/../test/Threads_CPP_API_test.h **** 
  11:src/../test/Threads_CPP_API_test.h **** bool finishedA = false;
  12:src/../test/Threads_CPP_API_test.h **** bool finishedB = false;
  13:src/../test/Threads_CPP_API_test.h **** bool finishedC = false;
  14:src/../test/Threads_CPP_API_test.h **** bool finishedD = false;
  15:src/../test/Threads_CPP_API_test.h **** 
  16:src/../test/Threads_CPP_API_test.h **** uint64 fibonacci(uint64 n) {
  17:src/../test/Threads_CPP_API_test.h ****     if (n == 0 || n == 1) { return n; }
  18:src/../test/Threads_CPP_API_test.h ****     if (n % 10 == 0) { thread_dispatch(); }
  19:src/../test/Threads_CPP_API_test.h ****     return fibonacci(n - 1) + fibonacci(n - 2);
  20:src/../test/Threads_CPP_API_test.h **** }
  21:src/../test/Threads_CPP_API_test.h **** 
  22:src/../test/Threads_CPP_API_test.h **** class WorkerA: public Thread {
  13              		.loc 1 22 7
  14              		.cfi_startproc
  15              	.LVL0:
  16 0000 130101FF 		addi	sp,sp,-16
  17              		.cfi_def_cfa_offset 16
  18 0004 23341100 		sd	ra,8(sp)
  19 0008 23308100 		sd	s0,0(sp)
  20              		.cfi_offset 1, -8
  21              		.cfi_offset 8, -16
  22 000c 13040101 		addi	s0,sp,16
  23              		.cfi_def_cfa 8, 0
  24              	.LBB28:
  25              		.loc 1 22 7 is_stmt 0
  26 0010 97070000 		lla	a5,_ZTV7WorkerA+16
  26      93870700 
  27 0018 2330F500 		sd	a5,0(a0)
  28 001c 97000000 		call	_ZN6ThreadD2Ev@plt
  28      E7800000 
  29              	.LVL1:
  30              	.LBE28:
  31 0024 83308100 		ld	ra,8(sp)
  32              		.cfi_restore 1
  33 0028 03340100 		ld	s0,0(sp)
  34              		.cfi_restore 8
GAS LISTING /tmp/cccDtYlh.s 			page 2


  35              		.cfi_def_cfa 2, 16
  36 002c 13010101 		addi	sp,sp,16
  37              		.cfi_def_cfa_offset 0
  38 0030 67800000 		jr	ra
  39              		.cfi_endproc
  40              	.LFE48:
  42              		.weak	_ZN7WorkerAD1Ev
  43              		.set	_ZN7WorkerAD1Ev,_ZN7WorkerAD2Ev
  44              		.section	.text._ZN7WorkerAD0Ev,"axG",@progbits,_ZN7WorkerAD5Ev,comdat
  45              		.align	2
  46              		.weak	_ZN7WorkerAD0Ev
  48              	_ZN7WorkerAD0Ev:
  49              	.LFB50:
  50              		.loc 1 22 7 is_stmt 1
  51              		.cfi_startproc
  52              	.LVL2:
  53 0000 130101FE 		addi	sp,sp,-32
  54              		.cfi_def_cfa_offset 32
  55 0004 233C1100 		sd	ra,24(sp)
  56 0008 23388100 		sd	s0,16(sp)
  57 000c 23349100 		sd	s1,8(sp)
  58              		.cfi_offset 1, -8
  59              		.cfi_offset 8, -16
  60              		.cfi_offset 9, -24
  61 0010 13040102 		addi	s0,sp,32
  62              		.cfi_def_cfa 8, 0
  63 0014 93040500 		mv	s1,a0
  64              	.LVL3:
  65              	.LBB29:
  66              	.LBB30:
  67              		.loc 1 22 7 is_stmt 0
  68 0018 97070000 		lla	a5,_ZTV7WorkerA+16
  68      93870700 
  69 0020 2330F500 		sd	a5,0(a0)
  70 0024 97000000 		call	_ZN6ThreadD2Ev@plt
  70      E7800000 
  71              	.LVL4:
  72              	.LBE30:
  73              	.LBE29:
  74 002c 13850400 		mv	a0,s1
  75 0030 97000000 		call	_ZdlPv@plt
  75      E7800000 
  76              	.LVL5:
  77 0038 83308101 		ld	ra,24(sp)
  78              		.cfi_restore 1
  79 003c 03340101 		ld	s0,16(sp)
  80              		.cfi_restore 8
  81              		.cfi_def_cfa 2, 32
  82 0040 83348100 		ld	s1,8(sp)
  83              		.cfi_restore 9
  84              	.LVL6:
  85 0044 13010102 		addi	sp,sp,32
  86              		.cfi_def_cfa_offset 0
  87 0048 67800000 		jr	ra
  88              		.cfi_endproc
  89              	.LFE50:
  91              		.section	.text._ZN7WorkerBD2Ev,"axG",@progbits,_ZN7WorkerBD5Ev,comdat
GAS LISTING /tmp/cccDtYlh.s 			page 3


  92              		.align	2
  93              		.weak	_ZN7WorkerBD2Ev
  95              	_ZN7WorkerBD2Ev:
  96              	.LFB44:
  23:src/../test/Threads_CPP_API_test.h ****     void workerBodyA(void* arg);
  24:src/../test/Threads_CPP_API_test.h **** public:
  25:src/../test/Threads_CPP_API_test.h ****     WorkerA():Thread() {}
  26:src/../test/Threads_CPP_API_test.h **** 
  27:src/../test/Threads_CPP_API_test.h ****     void run() override {
  28:src/../test/Threads_CPP_API_test.h ****         workerBodyA(nullptr);
  29:src/../test/Threads_CPP_API_test.h ****     }
  30:src/../test/Threads_CPP_API_test.h **** };
  31:src/../test/Threads_CPP_API_test.h **** 
  32:src/../test/Threads_CPP_API_test.h **** class WorkerB: public Thread {
  97              		.loc 1 32 7 is_stmt 1
  98              		.cfi_startproc
  99              	.LVL7:
 100 0000 130101FF 		addi	sp,sp,-16
 101              		.cfi_def_cfa_offset 16
 102 0004 23341100 		sd	ra,8(sp)
 103 0008 23308100 		sd	s0,0(sp)
 104              		.cfi_offset 1, -8
 105              		.cfi_offset 8, -16
 106 000c 13040101 		addi	s0,sp,16
 107              		.cfi_def_cfa 8, 0
 108              	.LBB31:
 109              		.loc 1 32 7 is_stmt 0
 110 0010 97070000 		lla	a5,_ZTV7WorkerB+16
 110      93870700 
 111 0018 2330F500 		sd	a5,0(a0)
 112 001c 97000000 		call	_ZN6ThreadD2Ev@plt
 112      E7800000 
 113              	.LVL8:
 114              	.LBE31:
 115 0024 83308100 		ld	ra,8(sp)
 116              		.cfi_restore 1
 117 0028 03340100 		ld	s0,0(sp)
 118              		.cfi_restore 8
 119              		.cfi_def_cfa 2, 16
 120 002c 13010101 		addi	sp,sp,16
 121              		.cfi_def_cfa_offset 0
 122 0030 67800000 		jr	ra
 123              		.cfi_endproc
 124              	.LFE44:
 126              		.weak	_ZN7WorkerBD1Ev
 127              		.set	_ZN7WorkerBD1Ev,_ZN7WorkerBD2Ev
 128              		.section	.text._ZN7WorkerBD0Ev,"axG",@progbits,_ZN7WorkerBD5Ev,comdat
 129              		.align	2
 130              		.weak	_ZN7WorkerBD0Ev
 132              	_ZN7WorkerBD0Ev:
 133              	.LFB46:
 134              		.loc 1 32 7 is_stmt 1
 135              		.cfi_startproc
 136              	.LVL9:
 137 0000 130101FE 		addi	sp,sp,-32
 138              		.cfi_def_cfa_offset 32
 139 0004 233C1100 		sd	ra,24(sp)
GAS LISTING /tmp/cccDtYlh.s 			page 4


 140 0008 23388100 		sd	s0,16(sp)
 141 000c 23349100 		sd	s1,8(sp)
 142              		.cfi_offset 1, -8
 143              		.cfi_offset 8, -16
 144              		.cfi_offset 9, -24
 145 0010 13040102 		addi	s0,sp,32
 146              		.cfi_def_cfa 8, 0
 147 0014 93040500 		mv	s1,a0
 148              	.LVL10:
 149              	.LBB32:
 150              	.LBB33:
 151              		.loc 1 32 7 is_stmt 0
 152 0018 97070000 		lla	a5,_ZTV7WorkerB+16
 152      93870700 
 153 0020 2330F500 		sd	a5,0(a0)
 154 0024 97000000 		call	_ZN6ThreadD2Ev@plt
 154      E7800000 
 155              	.LVL11:
 156              	.LBE33:
 157              	.LBE32:
 158 002c 13850400 		mv	a0,s1
 159 0030 97000000 		call	_ZdlPv@plt
 159      E7800000 
 160              	.LVL12:
 161 0038 83308101 		ld	ra,24(sp)
 162              		.cfi_restore 1
 163 003c 03340101 		ld	s0,16(sp)
 164              		.cfi_restore 8
 165              		.cfi_def_cfa 2, 32
 166 0040 83348100 		ld	s1,8(sp)
 167              		.cfi_restore 9
 168              	.LVL13:
 169 0044 13010102 		addi	sp,sp,32
 170              		.cfi_def_cfa_offset 0
 171 0048 67800000 		jr	ra
 172              		.cfi_endproc
 173              	.LFE46:
 175              		.section	.text._ZN7WorkerCD2Ev,"axG",@progbits,_ZN7WorkerCD5Ev,comdat
 176              		.align	2
 177              		.weak	_ZN7WorkerCD2Ev
 179              	_ZN7WorkerCD2Ev:
 180              	.LFB40:
  33:src/../test/Threads_CPP_API_test.h ****     void workerBodyB(void* arg);
  34:src/../test/Threads_CPP_API_test.h **** public:
  35:src/../test/Threads_CPP_API_test.h ****     WorkerB():Thread() {}
  36:src/../test/Threads_CPP_API_test.h **** 
  37:src/../test/Threads_CPP_API_test.h ****     void run() override {
  38:src/../test/Threads_CPP_API_test.h ****         workerBodyB(nullptr);
  39:src/../test/Threads_CPP_API_test.h ****     }
  40:src/../test/Threads_CPP_API_test.h **** };
  41:src/../test/Threads_CPP_API_test.h **** 
  42:src/../test/Threads_CPP_API_test.h **** class WorkerC: public Thread {
 181              		.loc 1 42 7 is_stmt 1
 182              		.cfi_startproc
 183              	.LVL14:
 184 0000 130101FF 		addi	sp,sp,-16
 185              		.cfi_def_cfa_offset 16
GAS LISTING /tmp/cccDtYlh.s 			page 5


 186 0004 23341100 		sd	ra,8(sp)
 187 0008 23308100 		sd	s0,0(sp)
 188              		.cfi_offset 1, -8
 189              		.cfi_offset 8, -16
 190 000c 13040101 		addi	s0,sp,16
 191              		.cfi_def_cfa 8, 0
 192              	.LBB34:
 193              		.loc 1 42 7 is_stmt 0
 194 0010 97070000 		lla	a5,_ZTV7WorkerC+16
 194      93870700 
 195 0018 2330F500 		sd	a5,0(a0)
 196 001c 97000000 		call	_ZN6ThreadD2Ev@plt
 196      E7800000 
 197              	.LVL15:
 198              	.LBE34:
 199 0024 83308100 		ld	ra,8(sp)
 200              		.cfi_restore 1
 201 0028 03340100 		ld	s0,0(sp)
 202              		.cfi_restore 8
 203              		.cfi_def_cfa 2, 16
 204 002c 13010101 		addi	sp,sp,16
 205              		.cfi_def_cfa_offset 0
 206 0030 67800000 		jr	ra
 207              		.cfi_endproc
 208              	.LFE40:
 210              		.weak	_ZN7WorkerCD1Ev
 211              		.set	_ZN7WorkerCD1Ev,_ZN7WorkerCD2Ev
 212              		.section	.text._ZN7WorkerCD0Ev,"axG",@progbits,_ZN7WorkerCD5Ev,comdat
 213              		.align	2
 214              		.weak	_ZN7WorkerCD0Ev
 216              	_ZN7WorkerCD0Ev:
 217              	.LFB42:
 218              		.loc 1 42 7 is_stmt 1
 219              		.cfi_startproc
 220              	.LVL16:
 221 0000 130101FE 		addi	sp,sp,-32
 222              		.cfi_def_cfa_offset 32
 223 0004 233C1100 		sd	ra,24(sp)
 224 0008 23388100 		sd	s0,16(sp)
 225 000c 23349100 		sd	s1,8(sp)
 226              		.cfi_offset 1, -8
 227              		.cfi_offset 8, -16
 228              		.cfi_offset 9, -24
 229 0010 13040102 		addi	s0,sp,32
 230              		.cfi_def_cfa 8, 0
 231 0014 93040500 		mv	s1,a0
 232              	.LVL17:
 233              	.LBB35:
 234              	.LBB36:
 235              		.loc 1 42 7 is_stmt 0
 236 0018 97070000 		lla	a5,_ZTV7WorkerC+16
 236      93870700 
 237 0020 2330F500 		sd	a5,0(a0)
 238 0024 97000000 		call	_ZN6ThreadD2Ev@plt
 238      E7800000 
 239              	.LVL18:
 240              	.LBE36:
GAS LISTING /tmp/cccDtYlh.s 			page 6


 241              	.LBE35:
 242 002c 13850400 		mv	a0,s1
 243 0030 97000000 		call	_ZdlPv@plt
 243      E7800000 
 244              	.LVL19:
 245 0038 83308101 		ld	ra,24(sp)
 246              		.cfi_restore 1
 247 003c 03340101 		ld	s0,16(sp)
 248              		.cfi_restore 8
 249              		.cfi_def_cfa 2, 32
 250 0040 83348100 		ld	s1,8(sp)
 251              		.cfi_restore 9
 252              	.LVL20:
 253 0044 13010102 		addi	sp,sp,32
 254              		.cfi_def_cfa_offset 0
 255 0048 67800000 		jr	ra
 256              		.cfi_endproc
 257              	.LFE42:
 259              		.section	.text._ZN7WorkerDD2Ev,"axG",@progbits,_ZN7WorkerDD5Ev,comdat
 260              		.align	2
 261              		.weak	_ZN7WorkerDD2Ev
 263              	_ZN7WorkerDD2Ev:
 264              	.LFB36:
  43:src/../test/Threads_CPP_API_test.h ****     void workerBodyC(void* arg);
  44:src/../test/Threads_CPP_API_test.h **** public:
  45:src/../test/Threads_CPP_API_test.h ****     WorkerC():Thread() {}
  46:src/../test/Threads_CPP_API_test.h **** 
  47:src/../test/Threads_CPP_API_test.h ****     void run() override {
  48:src/../test/Threads_CPP_API_test.h ****         workerBodyC(nullptr);
  49:src/../test/Threads_CPP_API_test.h ****     }
  50:src/../test/Threads_CPP_API_test.h **** };
  51:src/../test/Threads_CPP_API_test.h **** 
  52:src/../test/Threads_CPP_API_test.h **** class WorkerD: public Thread {
 265              		.loc 1 52 7 is_stmt 1
 266              		.cfi_startproc
 267              	.LVL21:
 268 0000 130101FF 		addi	sp,sp,-16
 269              		.cfi_def_cfa_offset 16
 270 0004 23341100 		sd	ra,8(sp)
 271 0008 23308100 		sd	s0,0(sp)
 272              		.cfi_offset 1, -8
 273              		.cfi_offset 8, -16
 274 000c 13040101 		addi	s0,sp,16
 275              		.cfi_def_cfa 8, 0
 276              	.LBB37:
 277              		.loc 1 52 7 is_stmt 0
 278 0010 97070000 		lla	a5,_ZTV7WorkerD+16
 278      93870700 
 279 0018 2330F500 		sd	a5,0(a0)
 280 001c 97000000 		call	_ZN6ThreadD2Ev@plt
 280      E7800000 
 281              	.LVL22:
 282              	.LBE37:
 283 0024 83308100 		ld	ra,8(sp)
 284              		.cfi_restore 1
 285 0028 03340100 		ld	s0,0(sp)
 286              		.cfi_restore 8
GAS LISTING /tmp/cccDtYlh.s 			page 7


 287              		.cfi_def_cfa 2, 16
 288 002c 13010101 		addi	sp,sp,16
 289              		.cfi_def_cfa_offset 0
 290 0030 67800000 		jr	ra
 291              		.cfi_endproc
 292              	.LFE36:
 294              		.weak	_ZN7WorkerDD1Ev
 295              		.set	_ZN7WorkerDD1Ev,_ZN7WorkerDD2Ev
 296              		.section	.text._ZN7WorkerDD0Ev,"axG",@progbits,_ZN7WorkerDD5Ev,comdat
 297              		.align	2
 298              		.weak	_ZN7WorkerDD0Ev
 300              	_ZN7WorkerDD0Ev:
 301              	.LFB38:
 302              		.loc 1 52 7 is_stmt 1
 303              		.cfi_startproc
 304              	.LVL23:
 305 0000 130101FE 		addi	sp,sp,-32
 306              		.cfi_def_cfa_offset 32
 307 0004 233C1100 		sd	ra,24(sp)
 308 0008 23388100 		sd	s0,16(sp)
 309 000c 23349100 		sd	s1,8(sp)
 310              		.cfi_offset 1, -8
 311              		.cfi_offset 8, -16
 312              		.cfi_offset 9, -24
 313 0010 13040102 		addi	s0,sp,32
 314              		.cfi_def_cfa 8, 0
 315 0014 93040500 		mv	s1,a0
 316              	.LVL24:
 317              	.LBB38:
 318              	.LBB39:
 319              		.loc 1 52 7 is_stmt 0
 320 0018 97070000 		lla	a5,_ZTV7WorkerD+16
 320      93870700 
 321 0020 2330F500 		sd	a5,0(a0)
 322 0024 97000000 		call	_ZN6ThreadD2Ev@plt
 322      E7800000 
 323              	.LVL25:
 324              	.LBE39:
 325              	.LBE38:
 326 002c 13850400 		mv	a0,s1
 327 0030 97000000 		call	_ZdlPv@plt
 327      E7800000 
 328              	.LVL26:
 329 0038 83308101 		ld	ra,24(sp)
 330              		.cfi_restore 1
 331 003c 03340101 		ld	s0,16(sp)
 332              		.cfi_restore 8
 333              		.cfi_def_cfa 2, 32
 334 0040 83348100 		ld	s1,8(sp)
 335              		.cfi_restore 9
 336              	.LVL27:
 337 0044 13010102 		addi	sp,sp,32
 338              		.cfi_def_cfa_offset 0
 339 0048 67800000 		jr	ra
 340              		.cfi_endproc
 341              	.LFE38:
 343              		.text
GAS LISTING /tmp/cccDtYlh.s 			page 8


 344              		.align	2
 345              		.globl	_Z9fibonaccim
 347              	_Z9fibonaccim:
 348              	.LFB12:
  16:src/../test/Threads_CPP_API_test.h ****     if (n == 0 || n == 1) { return n; }
 349              		.loc 1 16 28 is_stmt 1
 350              		.cfi_startproc
 351              	.LVL28:
 352 0000 130101FE 		addi	sp,sp,-32
 353              		.cfi_def_cfa_offset 32
 354 0004 233C1100 		sd	ra,24(sp)
 355 0008 23388100 		sd	s0,16(sp)
 356 000c 23349100 		sd	s1,8(sp)
 357 0010 23302101 		sd	s2,0(sp)
 358              		.cfi_offset 1, -8
 359              		.cfi_offset 8, -16
 360              		.cfi_offset 9, -24
 361              		.cfi_offset 18, -32
 362 0014 13040102 		addi	s0,sp,32
 363              		.cfi_def_cfa 8, 0
 364 0018 93040500 		mv	s1,a0
  17:src/../test/Threads_CPP_API_test.h ****     if (n % 10 == 0) { thread_dispatch(); }
 365              		.loc 1 17 5
 366 001c 93071000 		li	a5,1
 367 0020 63F8A702 		bleu	a0,a5,.L17
  18:src/../test/Threads_CPP_API_test.h ****     return fibonacci(n - 1) + fibonacci(n - 2);
 368              		.loc 1 18 5
  18:src/../test/Threads_CPP_API_test.h ****     return fibonacci(n - 1) + fibonacci(n - 2);
 369              		.loc 1 18 11 is_stmt 0
 370 0024 9307A000 		li	a5,10
 371 0028 B377F502 		remu	a5,a0,a5
  18:src/../test/Threads_CPP_API_test.h ****     return fibonacci(n - 1) + fibonacci(n - 2);
 372              		.loc 1 18 5
 373 002c 638E0702 		beqz	a5,.L22
 374              	.LVL29:
 375              	.L19:
  19:src/../test/Threads_CPP_API_test.h **** }
 376              		.loc 1 19 5 is_stmt 1
  19:src/../test/Threads_CPP_API_test.h **** }
 377              		.loc 1 19 21 is_stmt 0
 378 0030 1385F4FF 		addi	a0,s1,-1
 379 0034 97000000 		call	_Z9fibonaccim
 379      E7800000 
 380              	.LVL30:
 381 003c 13090500 		mv	s2,a0
  19:src/../test/Threads_CPP_API_test.h **** }
 382              		.loc 1 19 40
 383 0040 1385E4FF 		addi	a0,s1,-2
 384 0044 97000000 		call	_Z9fibonaccim
 384      E7800000 
 385              	.LVL31:
  19:src/../test/Threads_CPP_API_test.h **** }
 386              		.loc 1 19 46
 387 004c 3305A900 		add	a0,s2,a0
 388              	.L17:
  20:src/../test/Threads_CPP_API_test.h **** 
 389              		.loc 1 20 1
GAS LISTING /tmp/cccDtYlh.s 			page 9


 390 0050 83308101 		ld	ra,24(sp)
 391              		.cfi_remember_state
 392              		.cfi_restore 1
 393 0054 03340101 		ld	s0,16(sp)
 394              		.cfi_restore 8
 395              		.cfi_def_cfa 2, 32
 396 0058 83348100 		ld	s1,8(sp)
 397              		.cfi_restore 9
 398              	.LVL32:
 399 005c 03390100 		ld	s2,0(sp)
 400              		.cfi_restore 18
 401 0060 13010102 		addi	sp,sp,32
 402              		.cfi_def_cfa_offset 0
 403 0064 67800000 		jr	ra
 404              	.LVL33:
 405              	.L22:
 406              		.cfi_restore_state
  18:src/../test/Threads_CPP_API_test.h ****     return fibonacci(n - 1) + fibonacci(n - 2);
 407              		.loc 1 18 24 is_stmt 1 discriminator 1
  18:src/../test/Threads_CPP_API_test.h ****     return fibonacci(n - 1) + fibonacci(n - 2);
 408              		.loc 1 18 39 is_stmt 0 discriminator 1
 409 0068 97000000 		call	_Z15thread_dispatchv@plt
 409      E7800000 
 410              	.LVL34:
 411 0070 6FF01FFC 		j	.L19
 412              		.cfi_endproc
 413              	.LFE12:
 415              		.section	.rodata.str1.8,"aMS",@progbits,1
 416              		.align	3
 417              	.LC0:
 418 0000 413A2069 		.string	"A: i="
 418      3D00
 419 0006 0000     		.align	3
 420              	.LC1:
 421 0008 0A00     		.string	"\n"
 422 000a 00000000 		.align	3
 422      0000
 423              	.LC2:
 424 0010 41206669 		.string	"A finished!\n"
 424      6E697368 
 424      6564210A 
 424      00
 425              		.text
 426              		.align	2
 427              		.globl	_ZN7WorkerA11workerBodyAEPv
 429              	_ZN7WorkerA11workerBodyAEPv:
 430              	.LFB29:
  53:src/../test/Threads_CPP_API_test.h ****     void workerBodyD(void* arg);
  54:src/../test/Threads_CPP_API_test.h **** public:
  55:src/../test/Threads_CPP_API_test.h ****     WorkerD():Thread() {}
  56:src/../test/Threads_CPP_API_test.h **** 
  57:src/../test/Threads_CPP_API_test.h ****     void run() override {
  58:src/../test/Threads_CPP_API_test.h ****         workerBodyD(nullptr);
  59:src/../test/Threads_CPP_API_test.h ****     }
  60:src/../test/Threads_CPP_API_test.h **** };
  61:src/../test/Threads_CPP_API_test.h **** 
  62:src/../test/Threads_CPP_API_test.h **** void WorkerA::workerBodyA(void *arg) {
GAS LISTING /tmp/cccDtYlh.s 			page 10


 431              		.loc 1 62 38 is_stmt 1
 432              		.cfi_startproc
 433              	.LVL35:
 434 0074 130101FE 		addi	sp,sp,-32
 435              		.cfi_def_cfa_offset 32
 436 0078 233C1100 		sd	ra,24(sp)
 437 007c 23388100 		sd	s0,16(sp)
 438 0080 23349100 		sd	s1,8(sp)
 439 0084 23302101 		sd	s2,0(sp)
 440              		.cfi_offset 1, -8
 441              		.cfi_offset 8, -16
 442              		.cfi_offset 9, -24
 443              		.cfi_offset 18, -32
 444 0088 13040102 		addi	s0,sp,32
 445              		.cfi_def_cfa 8, 0
  63:src/../test/Threads_CPP_API_test.h ****     for (uint64 i = 0; i < 10; i++) {
 446              		.loc 1 63 5
 447              	.LVL36:
 448              	.LBB40:
 449              		.loc 1 63 17 is_stmt 0
 450 008c 13090000 		li	s2,0
 451 0090 6F008003 		j	.L29
 452              	.LVL37:
 453              	.L26:
 454              	.LBB41:
 455              	.LBB42:
 456              	.LBB43:
  64:src/../test/Threads_CPP_API_test.h ****         printString("A: i="); printInt(i); printString("\n");
  65:src/../test/Threads_CPP_API_test.h ****         for (uint64 j = 0; j < 10000; j++) {
  66:src/../test/Threads_CPP_API_test.h ****             for (uint64 k = 0; k < 30000; k++) { /* busy wait */ }
  67:src/../test/Threads_CPP_API_test.h ****             thread_dispatch();
 457              		.loc 1 67 13 is_stmt 1 discriminator 2
 458              		.loc 1 67 28 is_stmt 0 discriminator 2
 459 0094 97000000 		call	_Z15thread_dispatchv@plt
 459      E7800000 
 460              	.LVL38:
 461              	.LBE43:
  65:src/../test/Threads_CPP_API_test.h ****             for (uint64 k = 0; k < 30000; k++) { /* busy wait */ }
 462              		.loc 1 65 9 is_stmt 1 discriminator 2
 463 009c 93841400 		addi	s1,s1,1
 464              	.LVL39:
 465              	.L28:
  65:src/../test/Threads_CPP_API_test.h ****             for (uint64 k = 0; k < 30000; k++) { /* busy wait */ }
 466              		.loc 1 65 30 discriminator 1
 467 00a0 B7270000 		li	a5,8192
 468 00a4 9387F770 		addi	a5,a5,1807
 469 00a8 63EE9700 		bgtu	s1,a5,.L25
 470              	.LBB45:
 471              	.LBB44:
  66:src/../test/Threads_CPP_API_test.h ****             thread_dispatch();
 472              		.loc 1 66 25 is_stmt 0
 473 00ac 13070000 		li	a4,0
 474              	.L27:
 475              	.LVL40:
  66:src/../test/Threads_CPP_API_test.h ****             thread_dispatch();
 476              		.loc 1 66 34 is_stmt 1 discriminator 3
 477 00b0 B7770000 		li	a5,28672
GAS LISTING /tmp/cccDtYlh.s 			page 11


 478 00b4 9387F752 		addi	a5,a5,1327
 479 00b8 E3EEE7FC 		bgtu	a4,a5,.L26
  66:src/../test/Threads_CPP_API_test.h ****             thread_dispatch();
 480              		.loc 1 66 13 discriminator 2
 481 00bc 13071700 		addi	a4,a4,1
 482              	.LVL41:
 483 00c0 6FF01FFF 		j	.L27
 484              	.LVL42:
 485              	.L25:
 486              	.LBE44:
 487              	.LBE45:
 488              	.LBE42:
 489              	.LBE41:
  63:src/../test/Threads_CPP_API_test.h ****         printString("A: i="); printInt(i); printString("\n");
 490              		.loc 1 63 5 discriminator 2
 491 00c4 13091900 		addi	s2,s2,1
 492              	.LVL43:
 493              	.L29:
  63:src/../test/Threads_CPP_API_test.h ****         printString("A: i="); printInt(i); printString("\n");
 494              		.loc 1 63 26 discriminator 1
 495 00c8 93079000 		li	a5,9
 496 00cc 63E02705 		bgtu	s2,a5,.L24
 497              	.LBB47:
  64:src/../test/Threads_CPP_API_test.h ****         for (uint64 j = 0; j < 10000; j++) {
 498              		.loc 1 64 9
  64:src/../test/Threads_CPP_API_test.h ****         for (uint64 j = 0; j < 10000; j++) {
 499              		.loc 1 64 20 is_stmt 0
 500 00d0 17050000 		lla	a0,.LC0
 500      13050500 
 501 00d8 97000000 		call	_Z11printStringPKc@plt
 501      E7800000 
 502              	.LVL44:
  64:src/../test/Threads_CPP_API_test.h ****         for (uint64 j = 0; j < 10000; j++) {
 503              		.loc 1 64 31 is_stmt 1
  64:src/../test/Threads_CPP_API_test.h ****         for (uint64 j = 0; j < 10000; j++) {
 504              		.loc 1 64 39 is_stmt 0
 505 00e0 13060000 		li	a2,0
 506 00e4 9305A000 		li	a1,10
 507 00e8 1B050900 		sext.w	a0,s2
 508 00ec 97000000 		call	_Z8printIntiii@plt
 508      E7800000 
 509              	.LVL45:
  64:src/../test/Threads_CPP_API_test.h ****         for (uint64 j = 0; j < 10000; j++) {
 510              		.loc 1 64 44 is_stmt 1
  64:src/../test/Threads_CPP_API_test.h ****         for (uint64 j = 0; j < 10000; j++) {
 511              		.loc 1 64 55 is_stmt 0
 512 00f4 17050000 		lla	a0,.LC1
 512      13050500 
 513 00fc 97000000 		call	_Z11printStringPKc@plt
 513      E7800000 
 514              	.LVL46:
  65:src/../test/Threads_CPP_API_test.h ****             for (uint64 k = 0; k < 30000; k++) { /* busy wait */ }
 515              		.loc 1 65 9 is_stmt 1
 516              	.LBB46:
  65:src/../test/Threads_CPP_API_test.h ****             for (uint64 k = 0; k < 30000; k++) { /* busy wait */ }
 517              		.loc 1 65 21 is_stmt 0
 518 0104 93040000 		li	s1,0
GAS LISTING /tmp/cccDtYlh.s 			page 12


 519 0108 6FF09FF9 		j	.L28
 520              	.LVL47:
 521              	.L24:
 522              	.LBE46:
 523              	.LBE47:
 524              	.LBE40:
  68:src/../test/Threads_CPP_API_test.h ****         }
  69:src/../test/Threads_CPP_API_test.h ****     }
  70:src/../test/Threads_CPP_API_test.h ****     printString("A finished!\n");
 525              		.loc 1 70 5 is_stmt 1
 526              		.loc 1 70 16 is_stmt 0
 527 010c 17050000 		lla	a0,.LC2
 527      13050500 
 528 0114 97000000 		call	_Z11printStringPKc@plt
 528      E7800000 
 529              	.LVL48:
  71:src/../test/Threads_CPP_API_test.h ****     finishedA = true;
 530              		.loc 1 71 5 is_stmt 1
 531              		.loc 1 71 15 is_stmt 0
 532 011c 93071000 		li	a5,1
 533 0120 17070000 		sb	a5,.LANCHOR0,a4
 533      2300F700 
  72:src/../test/Threads_CPP_API_test.h **** }
 534              		.loc 1 72 1
 535 0128 83308101 		ld	ra,24(sp)
 536              		.cfi_restore 1
 537 012c 03340101 		ld	s0,16(sp)
 538              		.cfi_restore 8
 539              		.cfi_def_cfa 2, 32
 540 0130 83348100 		ld	s1,8(sp)
 541              		.cfi_restore 9
 542 0134 03390100 		ld	s2,0(sp)
 543              		.cfi_restore 18
 544              	.LVL49:
 545 0138 13010102 		addi	sp,sp,32
 546              		.cfi_def_cfa_offset 0
 547 013c 67800000 		jr	ra
 548              		.cfi_endproc
 549              	.LFE29:
 551              		.section	.text._ZN7WorkerA3runEv,"axG",@progbits,_ZN7WorkerA3runEv,comdat
 552              		.align	2
 553              		.weak	_ZN7WorkerA3runEv
 555              	_ZN7WorkerA3runEv:
 556              	.LFB16:
  27:src/../test/Threads_CPP_API_test.h ****         workerBodyA(nullptr);
 557              		.loc 1 27 10 is_stmt 1
 558              		.cfi_startproc
 559              	.LVL50:
 560 0000 130101FF 		addi	sp,sp,-16
 561              		.cfi_def_cfa_offset 16
 562 0004 23341100 		sd	ra,8(sp)
 563 0008 23308100 		sd	s0,0(sp)
 564              		.cfi_offset 1, -8
 565              		.cfi_offset 8, -16
 566 000c 13040101 		addi	s0,sp,16
 567              		.cfi_def_cfa 8, 0
  28:src/../test/Threads_CPP_API_test.h ****     }
GAS LISTING /tmp/cccDtYlh.s 			page 13


 568              		.loc 1 28 9
  28:src/../test/Threads_CPP_API_test.h ****     }
 569              		.loc 1 28 20 is_stmt 0
 570 0010 93050000 		li	a1,0
 571 0014 97000000 		call	_ZN7WorkerA11workerBodyAEPv
 571      E7800000 
 572              	.LVL51:
  29:src/../test/Threads_CPP_API_test.h **** };
 573              		.loc 1 29 5
 574 001c 83308100 		ld	ra,8(sp)
 575              		.cfi_restore 1
 576 0020 03340100 		ld	s0,0(sp)
 577              		.cfi_restore 8
 578              		.cfi_def_cfa 2, 16
 579 0024 13010101 		addi	sp,sp,16
 580              		.cfi_def_cfa_offset 0
 581 0028 67800000 		jr	ra
 582              		.cfi_endproc
 583              	.LFE16:
 585              		.section	.rodata.str1.8
 586 001d 000000   		.align	3
 587              	.LC3:
 588 0020 423A2069 		.string	"B: i="
 588      3D00
 589 0026 0000     		.align	3
 590              	.LC4:
 591 0028 42206669 		.string	"B finished!\n"
 591      6E697368 
 591      6564210A 
 591      00
 592              		.text
 593              		.align	2
 594              		.globl	_ZN7WorkerB11workerBodyBEPv
 596              	_ZN7WorkerB11workerBodyBEPv:
 597              	.LFB30:
  73:src/../test/Threads_CPP_API_test.h **** 
  74:src/../test/Threads_CPP_API_test.h **** void WorkerB::workerBodyB(void *arg) {
 598              		.loc 1 74 38 is_stmt 1
 599              		.cfi_startproc
 600              	.LVL52:
 601 0140 130101FE 		addi	sp,sp,-32
 602              		.cfi_def_cfa_offset 32
 603 0144 233C1100 		sd	ra,24(sp)
 604 0148 23388100 		sd	s0,16(sp)
 605 014c 23349100 		sd	s1,8(sp)
 606 0150 23302101 		sd	s2,0(sp)
 607              		.cfi_offset 1, -8
 608              		.cfi_offset 8, -16
 609              		.cfi_offset 9, -24
 610              		.cfi_offset 18, -32
 611 0154 13040102 		addi	s0,sp,32
 612              		.cfi_def_cfa 8, 0
  75:src/../test/Threads_CPP_API_test.h ****     for (uint64 i = 0; i < 16; i++) {
 613              		.loc 1 75 5
 614              	.LVL53:
 615              	.LBB48:
 616              		.loc 1 75 17 is_stmt 0
GAS LISTING /tmp/cccDtYlh.s 			page 14


 617 0158 13090000 		li	s2,0
 618 015c 6F008003 		j	.L39
 619              	.LVL54:
 620              	.L36:
 621              	.LBB49:
 622              	.LBB50:
 623              	.LBB51:
  76:src/../test/Threads_CPP_API_test.h ****         printString("B: i="); printInt(i); printString("\n");
  77:src/../test/Threads_CPP_API_test.h ****         for (uint64 j = 0; j < 10000; j++) {
  78:src/../test/Threads_CPP_API_test.h ****             for (uint64 k = 0; k < 30000; k++) { /* busy wait */ }
  79:src/../test/Threads_CPP_API_test.h ****             thread_dispatch();
 624              		.loc 1 79 13 is_stmt 1 discriminator 2
 625              		.loc 1 79 28 is_stmt 0 discriminator 2
 626 0160 97000000 		call	_Z15thread_dispatchv@plt
 626      E7800000 
 627              	.LVL55:
 628              	.LBE51:
  77:src/../test/Threads_CPP_API_test.h ****             for (uint64 k = 0; k < 30000; k++) { /* busy wait */ }
 629              		.loc 1 77 9 is_stmt 1 discriminator 2
 630 0168 93841400 		addi	s1,s1,1
 631              	.LVL56:
 632              	.L38:
  77:src/../test/Threads_CPP_API_test.h ****             for (uint64 k = 0; k < 30000; k++) { /* busy wait */ }
 633              		.loc 1 77 30 discriminator 1
 634 016c B7270000 		li	a5,8192
 635 0170 9387F770 		addi	a5,a5,1807
 636 0174 63EE9700 		bgtu	s1,a5,.L35
 637              	.LBB53:
 638              	.LBB52:
  78:src/../test/Threads_CPP_API_test.h ****             thread_dispatch();
 639              		.loc 1 78 25 is_stmt 0
 640 0178 13070000 		li	a4,0
 641              	.L37:
 642              	.LVL57:
  78:src/../test/Threads_CPP_API_test.h ****             thread_dispatch();
 643              		.loc 1 78 34 is_stmt 1 discriminator 3
 644 017c B7770000 		li	a5,28672
 645 0180 9387F752 		addi	a5,a5,1327
 646 0184 E3EEE7FC 		bgtu	a4,a5,.L36
  78:src/../test/Threads_CPP_API_test.h ****             thread_dispatch();
 647              		.loc 1 78 13 discriminator 2
 648 0188 13071700 		addi	a4,a4,1
 649              	.LVL58:
 650 018c 6FF01FFF 		j	.L37
 651              	.LVL59:
 652              	.L35:
 653              	.LBE52:
 654              	.LBE53:
 655              	.LBE50:
 656              	.LBE49:
  75:src/../test/Threads_CPP_API_test.h ****         printString("B: i="); printInt(i); printString("\n");
 657              		.loc 1 75 5 discriminator 2
 658 0190 13091900 		addi	s2,s2,1
 659              	.LVL60:
 660              	.L39:
  75:src/../test/Threads_CPP_API_test.h ****         printString("B: i="); printInt(i); printString("\n");
 661              		.loc 1 75 26 discriminator 1
GAS LISTING /tmp/cccDtYlh.s 			page 15


 662 0194 9307F000 		li	a5,15
 663 0198 63E02705 		bgtu	s2,a5,.L34
 664              	.LBB55:
  76:src/../test/Threads_CPP_API_test.h ****         for (uint64 j = 0; j < 10000; j++) {
 665              		.loc 1 76 9
  76:src/../test/Threads_CPP_API_test.h ****         for (uint64 j = 0; j < 10000; j++) {
 666              		.loc 1 76 20 is_stmt 0
 667 019c 17050000 		lla	a0,.LC3
 667      13050500 
 668 01a4 97000000 		call	_Z11printStringPKc@plt
 668      E7800000 
 669              	.LVL61:
  76:src/../test/Threads_CPP_API_test.h ****         for (uint64 j = 0; j < 10000; j++) {
 670              		.loc 1 76 31 is_stmt 1
  76:src/../test/Threads_CPP_API_test.h ****         for (uint64 j = 0; j < 10000; j++) {
 671              		.loc 1 76 39 is_stmt 0
 672 01ac 13060000 		li	a2,0
 673 01b0 9305A000 		li	a1,10
 674 01b4 1B050900 		sext.w	a0,s2
 675 01b8 97000000 		call	_Z8printIntiii@plt
 675      E7800000 
 676              	.LVL62:
  76:src/../test/Threads_CPP_API_test.h ****         for (uint64 j = 0; j < 10000; j++) {
 677              		.loc 1 76 44 is_stmt 1
  76:src/../test/Threads_CPP_API_test.h ****         for (uint64 j = 0; j < 10000; j++) {
 678              		.loc 1 76 55 is_stmt 0
 679 01c0 17050000 		lla	a0,.LC1
 679      13050500 
 680 01c8 97000000 		call	_Z11printStringPKc@plt
 680      E7800000 
 681              	.LVL63:
  77:src/../test/Threads_CPP_API_test.h ****             for (uint64 k = 0; k < 30000; k++) { /* busy wait */ }
 682              		.loc 1 77 9 is_stmt 1
 683              	.LBB54:
  77:src/../test/Threads_CPP_API_test.h ****             for (uint64 k = 0; k < 30000; k++) { /* busy wait */ }
 684              		.loc 1 77 21 is_stmt 0
 685 01d0 93040000 		li	s1,0
 686 01d4 6FF09FF9 		j	.L38
 687              	.LVL64:
 688              	.L34:
 689              	.LBE54:
 690              	.LBE55:
 691              	.LBE48:
  80:src/../test/Threads_CPP_API_test.h ****         }
  81:src/../test/Threads_CPP_API_test.h ****     }
  82:src/../test/Threads_CPP_API_test.h ****     printString("B finished!\n");
 692              		.loc 1 82 5 is_stmt 1
 693              		.loc 1 82 16 is_stmt 0
 694 01d8 17050000 		lla	a0,.LC4
 694      13050500 
 695 01e0 97000000 		call	_Z11printStringPKc@plt
 695      E7800000 
 696              	.LVL65:
  83:src/../test/Threads_CPP_API_test.h ****     finishedB = true;
 697              		.loc 1 83 5 is_stmt 1
 698              		.loc 1 83 15 is_stmt 0
 699 01e8 93071000 		li	a5,1
GAS LISTING /tmp/cccDtYlh.s 			page 16


 700 01ec 17070000 		sb	a5,.LANCHOR0+1,a4
 700      2300F700 
  84:src/../test/Threads_CPP_API_test.h ****     thread_dispatch();
 701              		.loc 1 84 5 is_stmt 1
 702              		.loc 1 84 20 is_stmt 0
 703 01f4 97000000 		call	_Z15thread_dispatchv@plt
 703      E7800000 
 704              	.LVL66:
  85:src/../test/Threads_CPP_API_test.h **** }
 705              		.loc 1 85 1
 706 01fc 83308101 		ld	ra,24(sp)
 707              		.cfi_restore 1
 708 0200 03340101 		ld	s0,16(sp)
 709              		.cfi_restore 8
 710              		.cfi_def_cfa 2, 32
 711 0204 83348100 		ld	s1,8(sp)
 712              		.cfi_restore 9
 713 0208 03390100 		ld	s2,0(sp)
 714              		.cfi_restore 18
 715              	.LVL67:
 716 020c 13010102 		addi	sp,sp,32
 717              		.cfi_def_cfa_offset 0
 718 0210 67800000 		jr	ra
 719              		.cfi_endproc
 720              	.LFE30:
 722              		.section	.text._ZN7WorkerB3runEv,"axG",@progbits,_ZN7WorkerB3runEv,comdat
 723              		.align	2
 724              		.weak	_ZN7WorkerB3runEv
 726              	_ZN7WorkerB3runEv:
 727              	.LFB20:
  37:src/../test/Threads_CPP_API_test.h ****         workerBodyB(nullptr);
 728              		.loc 1 37 10 is_stmt 1
 729              		.cfi_startproc
 730              	.LVL68:
 731 0000 130101FF 		addi	sp,sp,-16
 732              		.cfi_def_cfa_offset 16
 733 0004 23341100 		sd	ra,8(sp)
 734 0008 23308100 		sd	s0,0(sp)
 735              		.cfi_offset 1, -8
 736              		.cfi_offset 8, -16
 737 000c 13040101 		addi	s0,sp,16
 738              		.cfi_def_cfa 8, 0
  38:src/../test/Threads_CPP_API_test.h ****     }
 739              		.loc 1 38 9
  38:src/../test/Threads_CPP_API_test.h ****     }
 740              		.loc 1 38 20 is_stmt 0
 741 0010 93050000 		li	a1,0
 742 0014 97000000 		call	_ZN7WorkerB11workerBodyBEPv
 742      E7800000 
 743              	.LVL69:
  39:src/../test/Threads_CPP_API_test.h **** };
 744              		.loc 1 39 5
 745 001c 83308100 		ld	ra,8(sp)
 746              		.cfi_restore 1
 747 0020 03340100 		ld	s0,0(sp)
 748              		.cfi_restore 8
 749              		.cfi_def_cfa 2, 16
GAS LISTING /tmp/cccDtYlh.s 			page 17


 750 0024 13010101 		addi	sp,sp,16
 751              		.cfi_def_cfa_offset 0
 752 0028 67800000 		jr	ra
 753              		.cfi_endproc
 754              	.LFE20:
 756              		.section	.rodata.str1.8
 757 0035 000000   		.align	3
 758              	.LC5:
 759 0038 433A2069 		.string	"C: i="
 759      3D00
 760 003e 0000     		.align	3
 761              	.LC6:
 762 0040 433A2064 		.string	"C: dispatch\n"
 762      69737061 
 762      7463680A 
 762      00
 763 004d 000000   		.align	3
 764              	.LC7:
 765 0050 433A2074 		.string	"C: t1="
 765      313D00
 766 0057 00       		.align	3
 767              	.LC8:
 768 0058 433A2066 		.string	"C: fibonaci="
 768      69626F6E 
 768      6163693D 
 768      00
 769              		.text
 770              		.align	2
 771              		.globl	_ZN7WorkerC11workerBodyCEPv
 773              	_ZN7WorkerC11workerBodyCEPv:
 774              	.LFB31:
  86:src/../test/Threads_CPP_API_test.h **** 
  87:src/../test/Threads_CPP_API_test.h **** void WorkerC::workerBodyC(void *arg) {
 775              		.loc 1 87 38 is_stmt 1
 776              		.cfi_startproc
 777              	.LVL70:
 778 0214 130101FE 		addi	sp,sp,-32
 779              		.cfi_def_cfa_offset 32
 780 0218 233C1100 		sd	ra,24(sp)
 781 021c 23388100 		sd	s0,16(sp)
 782 0220 23349100 		sd	s1,8(sp)
 783 0224 23302101 		sd	s2,0(sp)
 784              		.cfi_offset 1, -8
 785              		.cfi_offset 8, -16
 786              		.cfi_offset 9, -24
 787              		.cfi_offset 18, -32
 788 0228 13040102 		addi	s0,sp,32
 789              		.cfi_def_cfa 8, 0
  88:src/../test/Threads_CPP_API_test.h ****     uint8 i = 0;
 790              		.loc 1 88 5
 791              	.LVL71:
 792              		.loc 1 88 11 is_stmt 0
 793 022c 93040000 		li	s1,0
 794 0230 6F000004 		j	.L45
 795              	.LVL72:
 796              	.L49:
  89:src/../test/Threads_CPP_API_test.h ****     for (; i < 3; i++) {
GAS LISTING /tmp/cccDtYlh.s 			page 18


  90:src/../test/Threads_CPP_API_test.h ****         printString("C: i="); printInt(i); printString("\n");
 797              		.loc 1 90 9 is_stmt 1 discriminator 1
 798              		.loc 1 90 20 is_stmt 0 discriminator 1
 799 0234 17050000 		lla	a0,.LC5
 799      13050500 
 800 023c 97000000 		call	_Z11printStringPKc@plt
 800      E7800000 
 801              	.LVL73:
 802              		.loc 1 90 31 is_stmt 1 discriminator 1
 803              		.loc 1 90 39 is_stmt 0 discriminator 1
 804 0244 13060000 		li	a2,0
 805 0248 9305A000 		li	a1,10
 806 024c 13850400 		mv	a0,s1
 807 0250 97000000 		call	_Z8printIntiii@plt
 807      E7800000 
 808              	.LVL74:
 809              		.loc 1 90 44 is_stmt 1 discriminator 1
 810              		.loc 1 90 55 is_stmt 0 discriminator 1
 811 0258 17050000 		lla	a0,.LC1
 811      13050500 
 812 0260 97000000 		call	_Z11printStringPKc@plt
 812      E7800000 
 813              	.LVL75:
  89:src/../test/Threads_CPP_API_test.h ****     for (; i < 3; i++) {
 814              		.loc 1 89 5 is_stmt 1 discriminator 1
 815 0268 9B841400 		addiw	s1,s1,1
 816              	.LVL76:
 817 026c 93F4F40F 		andi	s1,s1,0xff
 818              	.LVL77:
 819              	.L45:
  89:src/../test/Threads_CPP_API_test.h ****     for (; i < 3; i++) {
 820              		.loc 1 89 5 discriminator 2
  89:src/../test/Threads_CPP_API_test.h ****     for (; i < 3; i++) {
 821              		.loc 1 89 14 discriminator 2
 822 0270 93072000 		li	a5,2
 823 0274 E3F097FC 		bleu	s1,a5,.L49
  91:src/../test/Threads_CPP_API_test.h ****     }
  92:src/../test/Threads_CPP_API_test.h **** 
  93:src/../test/Threads_CPP_API_test.h ****     printString("C: dispatch\n");
 824              		.loc 1 93 5
 825              		.loc 1 93 16 is_stmt 0
 826 0278 17050000 		lla	a0,.LC6
 826      13050500 
 827 0280 97000000 		call	_Z11printStringPKc@plt
 827      E7800000 
 828              	.LVL78:
  94:src/../test/Threads_CPP_API_test.h ****     __asm__ ("li t1, 7");
 829              		.loc 1 94 5 is_stmt 1
 830              		.loc 1 94 25 is_stmt 0
 831              	#APP
 832              	# 94 "src/../test/Threads_CPP_API_test.h" 1
  95              	    thread_dispatch();
 833              		li t1, 7
 834              	# 0 "" 2
 835              		.loc 1 95 5 is_stmt 1
 836              		.loc 1 95 20 is_stmt 0
 837              	#NO_APP
GAS LISTING /tmp/cccDtYlh.s 			page 19


 838 028c 97000000 		call	_Z15thread_dispatchv@plt
 838      E7800000 
 839              	.LVL79:
  96:src/../test/Threads_CPP_API_test.h **** 
  97:src/../test/Threads_CPP_API_test.h ****     uint64 t1 = 0;
 840              		.loc 1 97 5 is_stmt 1
  98:src/../test/Threads_CPP_API_test.h ****     __asm__ ("mv %[t1], t1" : [t1] "=r"(t1));
 841              		.loc 1 98 5
 842              		.loc 1 98 45 is_stmt 0
 843              	#APP
 844              	# 98 "src/../test/Threads_CPP_API_test.h" 1
  99              	
 845              		mv s2, t1
 846              	# 0 "" 2
 847              	.LVL80:
 100:src/../test/Threads_CPP_API_test.h ****     printString("C: t1="); printInt(t1); printString("\n");
 848              		.loc 1 100 5 is_stmt 1
 849              		.loc 1 100 16 is_stmt 0
 850              	#NO_APP
 851 0298 17050000 		lla	a0,.LC7
 851      13050500 
 852 02a0 97000000 		call	_Z11printStringPKc@plt
 852      E7800000 
 853              	.LVL81:
 854              		.loc 1 100 28 is_stmt 1
 855              		.loc 1 100 36 is_stmt 0
 856 02a8 13060000 		li	a2,0
 857 02ac 9305A000 		li	a1,10
 858 02b0 1B050900 		sext.w	a0,s2
 859 02b4 97000000 		call	_Z8printIntiii@plt
 859      E7800000 
 860              	.LVL82:
 861              		.loc 1 100 42 is_stmt 1
 862              		.loc 1 100 53 is_stmt 0
 863 02bc 17050000 		lla	a0,.LC1
 863      13050500 
 864 02c4 97000000 		call	_Z11printStringPKc@plt
 864      E7800000 
 865              	.LVL83:
 101:src/../test/Threads_CPP_API_test.h **** 
 102:src/../test/Threads_CPP_API_test.h ****     uint64 result = fibonacci(12);
 866              		.loc 1 102 5 is_stmt 1
 867              		.loc 1 102 30 is_stmt 0
 868 02cc 1305C000 		li	a0,12
 869 02d0 97000000 		call	_Z9fibonaccim
 869      E7800000 
 870              	.LVL84:
 871 02d8 13090500 		mv	s2,a0
 872              	.LVL85:
 103:src/../test/Threads_CPP_API_test.h ****     printString("C: fibonaci="); printInt(result); printString("\n");
 873              		.loc 1 103 5 is_stmt 1
 874              		.loc 1 103 16 is_stmt 0
 875 02dc 17050000 		lla	a0,.LC8
 875      13050500 
 876              	.LVL86:
 877 02e4 97000000 		call	_Z11printStringPKc@plt
 877      E7800000 
GAS LISTING /tmp/cccDtYlh.s 			page 20


 878              	.LVL87:
 879              		.loc 1 103 34 is_stmt 1
 880              		.loc 1 103 42 is_stmt 0
 881 02ec 13060000 		li	a2,0
 882 02f0 9305A000 		li	a1,10
 883 02f4 1B050900 		sext.w	a0,s2
 884 02f8 97000000 		call	_Z8printIntiii@plt
 884      E7800000 
 885              	.LVL88:
 886              		.loc 1 103 52 is_stmt 1
 887              		.loc 1 103 63 is_stmt 0
 888 0300 17050000 		lla	a0,.LC1
 888      13050500 
 889 0308 97000000 		call	_Z11printStringPKc@plt
 889      E7800000 
 890              	.LVL89:
 891 0310 6F000004 		j	.L47
 892              	.L50:
 104:src/../test/Threads_CPP_API_test.h **** 
 105:src/../test/Threads_CPP_API_test.h ****     for (; i < 6; i++) {
 106:src/../test/Threads_CPP_API_test.h ****         printString("C: i="); printInt(i); printString("\n");
 893              		.loc 1 106 9 is_stmt 1 discriminator 1
 894              		.loc 1 106 20 is_stmt 0 discriminator 1
 895 0314 17050000 		lla	a0,.LC5
 895      13050500 
 896 031c 97000000 		call	_Z11printStringPKc@plt
 896      E7800000 
 897              	.LVL90:
 898              		.loc 1 106 31 is_stmt 1 discriminator 1
 899              		.loc 1 106 39 is_stmt 0 discriminator 1
 900 0324 13060000 		li	a2,0
 901 0328 9305A000 		li	a1,10
 902 032c 13850400 		mv	a0,s1
 903 0330 97000000 		call	_Z8printIntiii@plt
 903      E7800000 
 904              	.LVL91:
 905              		.loc 1 106 44 is_stmt 1 discriminator 1
 906              		.loc 1 106 55 is_stmt 0 discriminator 1
 907 0338 17050000 		lla	a0,.LC1
 907      13050500 
 908 0340 97000000 		call	_Z11printStringPKc@plt
 908      E7800000 
 909              	.LVL92:
 105:src/../test/Threads_CPP_API_test.h ****         printString("C: i="); printInt(i); printString("\n");
 910              		.loc 1 105 5 is_stmt 1 discriminator 1
 911 0348 9B841400 		addiw	s1,s1,1
 912              	.LVL93:
 913 034c 93F4F40F 		andi	s1,s1,0xff
 914              	.LVL94:
 915              	.L47:
 105:src/../test/Threads_CPP_API_test.h ****         printString("C: i="); printInt(i); printString("\n");
 916              		.loc 1 105 5 discriminator 2
 105:src/../test/Threads_CPP_API_test.h ****         printString("C: i="); printInt(i); printString("\n");
 917              		.loc 1 105 14 discriminator 2
 918 0350 93075000 		li	a5,5
 919 0354 E3F097FC 		bleu	s1,a5,.L50
 107:src/../test/Threads_CPP_API_test.h ****     }
GAS LISTING /tmp/cccDtYlh.s 			page 21


 108:src/../test/Threads_CPP_API_test.h **** 
 109:src/../test/Threads_CPP_API_test.h ****     printString("A finished!\n");
 920              		.loc 1 109 5
 921              		.loc 1 109 16 is_stmt 0
 922 0358 17050000 		lla	a0,.LC2
 922      13050500 
 923 0360 97000000 		call	_Z11printStringPKc@plt
 923      E7800000 
 924              	.LVL95:
 110:src/../test/Threads_CPP_API_test.h ****     finishedC = true;
 925              		.loc 1 110 5 is_stmt 1
 926              		.loc 1 110 15 is_stmt 0
 927 0368 93071000 		li	a5,1
 928 036c 17070000 		sb	a5,.LANCHOR0+2,a4
 928      2300F700 
 111:src/../test/Threads_CPP_API_test.h ****     thread_dispatch();
 929              		.loc 1 111 5 is_stmt 1
 930              		.loc 1 111 20 is_stmt 0
 931 0374 97000000 		call	_Z15thread_dispatchv@plt
 931      E7800000 
 932              	.LVL96:
 112:src/../test/Threads_CPP_API_test.h **** }
 933              		.loc 1 112 1
 934 037c 83308101 		ld	ra,24(sp)
 935              		.cfi_restore 1
 936 0380 03340101 		ld	s0,16(sp)
 937              		.cfi_restore 8
 938              		.cfi_def_cfa 2, 32
 939 0384 83348100 		ld	s1,8(sp)
 940              		.cfi_restore 9
 941              	.LVL97:
 942 0388 03390100 		ld	s2,0(sp)
 943              		.cfi_restore 18
 944              	.LVL98:
 945 038c 13010102 		addi	sp,sp,32
 946              		.cfi_def_cfa_offset 0
 947 0390 67800000 		jr	ra
 948              		.cfi_endproc
 949              	.LFE31:
 951              		.section	.text._ZN7WorkerC3runEv,"axG",@progbits,_ZN7WorkerC3runEv,comdat
 952              		.align	2
 953              		.weak	_ZN7WorkerC3runEv
 955              	_ZN7WorkerC3runEv:
 956              	.LFB24:
  47:src/../test/Threads_CPP_API_test.h ****         workerBodyC(nullptr);
 957              		.loc 1 47 10 is_stmt 1
 958              		.cfi_startproc
 959              	.LVL99:
 960 0000 130101FF 		addi	sp,sp,-16
 961              		.cfi_def_cfa_offset 16
 962 0004 23341100 		sd	ra,8(sp)
 963 0008 23308100 		sd	s0,0(sp)
 964              		.cfi_offset 1, -8
 965              		.cfi_offset 8, -16
 966 000c 13040101 		addi	s0,sp,16
 967              		.cfi_def_cfa 8, 0
  48:src/../test/Threads_CPP_API_test.h ****     }
GAS LISTING /tmp/cccDtYlh.s 			page 22


 968              		.loc 1 48 9
  48:src/../test/Threads_CPP_API_test.h ****     }
 969              		.loc 1 48 20 is_stmt 0
 970 0010 93050000 		li	a1,0
 971 0014 97000000 		call	_ZN7WorkerC11workerBodyCEPv
 971      E7800000 
 972              	.LVL100:
  49:src/../test/Threads_CPP_API_test.h **** };
 973              		.loc 1 49 5
 974 001c 83308100 		ld	ra,8(sp)
 975              		.cfi_restore 1
 976 0020 03340100 		ld	s0,0(sp)
 977              		.cfi_restore 8
 978              		.cfi_def_cfa 2, 16
 979 0024 13010101 		addi	sp,sp,16
 980              		.cfi_def_cfa_offset 0
 981 0028 67800000 		jr	ra
 982              		.cfi_endproc
 983              	.LFE24:
 985              		.section	.rodata.str1.8
 986 0065 000000   		.align	3
 987              	.LC9:
 988 0068 443A2069 		.string	"D: i="
 988      3D00
 989 006e 0000     		.align	3
 990              	.LC10:
 991 0070 443A2064 		.string	"D: dispatch\n"
 991      69737061 
 991      7463680A 
 991      00
 992 007d 000000   		.align	3
 993              	.LC11:
 994 0080 443A2066 		.string	"D: fibonaci="
 994      69626F6E 
 994      6163693D 
 994      00
 995 008d 000000   		.align	3
 996              	.LC12:
 997 0090 44206669 		.string	"D finished!\n"
 997      6E697368 
 997      6564210A 
 997      00
 998              		.text
 999              		.align	2
 1000              		.globl	_ZN7WorkerD11workerBodyDEPv
 1002              	_ZN7WorkerD11workerBodyDEPv:
 1003              	.LFB32:
 113:src/../test/Threads_CPP_API_test.h **** 
 114:src/../test/Threads_CPP_API_test.h **** void WorkerD::workerBodyD(void* arg) {
 1004              		.loc 1 114 38 is_stmt 1
 1005              		.cfi_startproc
 1006              	.LVL101:
 1007 0394 130101FE 		addi	sp,sp,-32
 1008              		.cfi_def_cfa_offset 32
 1009 0398 233C1100 		sd	ra,24(sp)
 1010 039c 23388100 		sd	s0,16(sp)
 1011 03a0 23349100 		sd	s1,8(sp)
GAS LISTING /tmp/cccDtYlh.s 			page 23


 1012 03a4 23302101 		sd	s2,0(sp)
 1013              		.cfi_offset 1, -8
 1014              		.cfi_offset 8, -16
 1015              		.cfi_offset 9, -24
 1016              		.cfi_offset 18, -32
 1017 03a8 13040102 		addi	s0,sp,32
 1018              		.cfi_def_cfa 8, 0
 115:src/../test/Threads_CPP_API_test.h ****     uint8 i = 10;
 1019              		.loc 1 115 5
 1020              	.LVL102:
 1021              		.loc 1 115 11 is_stmt 0
 1022 03ac 9304A000 		li	s1,10
 1023 03b0 6F000004 		j	.L55
 1024              	.LVL103:
 1025              	.L59:
 116:src/../test/Threads_CPP_API_test.h ****     for (; i < 13; i++) {
 117:src/../test/Threads_CPP_API_test.h ****         printString("D: i="); printInt(i); printString("\n");
 1026              		.loc 1 117 9 is_stmt 1 discriminator 1
 1027              		.loc 1 117 20 is_stmt 0 discriminator 1
 1028 03b4 17050000 		lla	a0,.LC9
 1028      13050500 
 1029 03bc 97000000 		call	_Z11printStringPKc@plt
 1029      E7800000 
 1030              	.LVL104:
 1031              		.loc 1 117 31 is_stmt 1 discriminator 1
 1032              		.loc 1 117 39 is_stmt 0 discriminator 1
 1033 03c4 13060000 		li	a2,0
 1034 03c8 9305A000 		li	a1,10
 1035 03cc 13850400 		mv	a0,s1
 1036 03d0 97000000 		call	_Z8printIntiii@plt
 1036      E7800000 
 1037              	.LVL105:
 1038              		.loc 1 117 44 is_stmt 1 discriminator 1
 1039              		.loc 1 117 55 is_stmt 0 discriminator 1
 1040 03d8 17050000 		lla	a0,.LC1
 1040      13050500 
 1041 03e0 97000000 		call	_Z11printStringPKc@plt
 1041      E7800000 
 1042              	.LVL106:
 116:src/../test/Threads_CPP_API_test.h ****     for (; i < 13; i++) {
 1043              		.loc 1 116 5 is_stmt 1 discriminator 1
 1044 03e8 9B841400 		addiw	s1,s1,1
 1045              	.LVL107:
 1046 03ec 93F4F40F 		andi	s1,s1,0xff
 1047              	.LVL108:
 1048              	.L55:
 116:src/../test/Threads_CPP_API_test.h ****     for (; i < 13; i++) {
 1049              		.loc 1 116 5 discriminator 2
 116:src/../test/Threads_CPP_API_test.h ****     for (; i < 13; i++) {
 1050              		.loc 1 116 14 discriminator 2
 1051 03f0 9307C000 		li	a5,12
 1052 03f4 E3F097FC 		bleu	s1,a5,.L59
 118:src/../test/Threads_CPP_API_test.h ****     }
 119:src/../test/Threads_CPP_API_test.h **** 
 120:src/../test/Threads_CPP_API_test.h ****     printString("D: dispatch\n");
 1053              		.loc 1 120 5
 1054              		.loc 1 120 16 is_stmt 0
GAS LISTING /tmp/cccDtYlh.s 			page 24


 1055 03f8 17050000 		lla	a0,.LC10
 1055      13050500 
 1056 0400 97000000 		call	_Z11printStringPKc@plt
 1056      E7800000 
 1057              	.LVL109:
 121:src/../test/Threads_CPP_API_test.h ****     __asm__ ("li t1, 5");
 1058              		.loc 1 121 5 is_stmt 1
 1059              		.loc 1 121 25 is_stmt 0
 1060              	#APP
 1061              	# 121 "src/../test/Threads_CPP_API_test.h" 1
 122              	    thread_dispatch();
 1062              		li t1, 5
 1063              	# 0 "" 2
 1064              		.loc 1 122 5 is_stmt 1
 1065              		.loc 1 122 20 is_stmt 0
 1066              	#NO_APP
 1067 040c 97000000 		call	_Z15thread_dispatchv@plt
 1067      E7800000 
 1068              	.LVL110:
 123:src/../test/Threads_CPP_API_test.h **** 
 124:src/../test/Threads_CPP_API_test.h ****     uint64 result = fibonacci(16);
 1069              		.loc 1 124 5 is_stmt 1
 1070              		.loc 1 124 30 is_stmt 0
 1071 0414 13050001 		li	a0,16
 1072 0418 97000000 		call	_Z9fibonaccim
 1072      E7800000 
 1073              	.LVL111:
 1074 0420 13090500 		mv	s2,a0
 1075              	.LVL112:
 125:src/../test/Threads_CPP_API_test.h ****     printString("D: fibonaci="); printInt(result); printString("\n");
 1076              		.loc 1 125 5 is_stmt 1
 1077              		.loc 1 125 16 is_stmt 0
 1078 0424 17050000 		lla	a0,.LC11
 1078      13050500 
 1079              	.LVL113:
 1080 042c 97000000 		call	_Z11printStringPKc@plt
 1080      E7800000 
 1081              	.LVL114:
 1082              		.loc 1 125 34 is_stmt 1
 1083              		.loc 1 125 42 is_stmt 0
 1084 0434 13060000 		li	a2,0
 1085 0438 9305A000 		li	a1,10
 1086 043c 1B050900 		sext.w	a0,s2
 1087 0440 97000000 		call	_Z8printIntiii@plt
 1087      E7800000 
 1088              	.LVL115:
 1089              		.loc 1 125 52 is_stmt 1
 1090              		.loc 1 125 63 is_stmt 0
 1091 0448 17050000 		lla	a0,.LC1
 1091      13050500 
 1092 0450 97000000 		call	_Z11printStringPKc@plt
 1092      E7800000 
 1093              	.LVL116:
 1094 0458 6F000004 		j	.L57
 1095              	.L60:
 126:src/../test/Threads_CPP_API_test.h **** 
 127:src/../test/Threads_CPP_API_test.h ****     for (; i < 16; i++) {
GAS LISTING /tmp/cccDtYlh.s 			page 25


 128:src/../test/Threads_CPP_API_test.h ****         printString("D: i="); printInt(i); printString("\n");
 1096              		.loc 1 128 9 is_stmt 1 discriminator 1
 1097              		.loc 1 128 20 is_stmt 0 discriminator 1
 1098 045c 17050000 		lla	a0,.LC9
 1098      13050500 
 1099 0464 97000000 		call	_Z11printStringPKc@plt
 1099      E7800000 
 1100              	.LVL117:
 1101              		.loc 1 128 31 is_stmt 1 discriminator 1
 1102              		.loc 1 128 39 is_stmt 0 discriminator 1
 1103 046c 13060000 		li	a2,0
 1104 0470 9305A000 		li	a1,10
 1105 0474 13850400 		mv	a0,s1
 1106 0478 97000000 		call	_Z8printIntiii@plt
 1106      E7800000 
 1107              	.LVL118:
 1108              		.loc 1 128 44 is_stmt 1 discriminator 1
 1109              		.loc 1 128 55 is_stmt 0 discriminator 1
 1110 0480 17050000 		lla	a0,.LC1
 1110      13050500 
 1111 0488 97000000 		call	_Z11printStringPKc@plt
 1111      E7800000 
 1112              	.LVL119:
 127:src/../test/Threads_CPP_API_test.h ****         printString("D: i="); printInt(i); printString("\n");
 1113              		.loc 1 127 5 is_stmt 1 discriminator 1
 1114 0490 9B841400 		addiw	s1,s1,1
 1115              	.LVL120:
 1116 0494 93F4F40F 		andi	s1,s1,0xff
 1117              	.LVL121:
 1118              	.L57:
 127:src/../test/Threads_CPP_API_test.h ****         printString("D: i="); printInt(i); printString("\n");
 1119              		.loc 1 127 5 discriminator 2
 127:src/../test/Threads_CPP_API_test.h ****         printString("D: i="); printInt(i); printString("\n");
 1120              		.loc 1 127 14 discriminator 2
 1121 0498 9307F000 		li	a5,15
 1122 049c E3F097FC 		bleu	s1,a5,.L60
 129:src/../test/Threads_CPP_API_test.h ****     }
 130:src/../test/Threads_CPP_API_test.h **** 
 131:src/../test/Threads_CPP_API_test.h ****     printString("D finished!\n");
 1123              		.loc 1 131 5
 1124              		.loc 1 131 16 is_stmt 0
 1125 04a0 17050000 		lla	a0,.LC12
 1125      13050500 
 1126 04a8 97000000 		call	_Z11printStringPKc@plt
 1126      E7800000 
 1127              	.LVL122:
 132:src/../test/Threads_CPP_API_test.h ****     finishedD = true;
 1128              		.loc 1 132 5 is_stmt 1
 1129              		.loc 1 132 15 is_stmt 0
 1130 04b0 93071000 		li	a5,1
 1131 04b4 17070000 		sb	a5,.LANCHOR0+3,a4
 1131      2300F700 
 133:src/../test/Threads_CPP_API_test.h ****     thread_dispatch();
 1132              		.loc 1 133 5 is_stmt 1
 1133              		.loc 1 133 20 is_stmt 0
 1134 04bc 97000000 		call	_Z15thread_dispatchv@plt
 1134      E7800000 
GAS LISTING /tmp/cccDtYlh.s 			page 26


 1135              	.LVL123:
 134:src/../test/Threads_CPP_API_test.h **** }
 1136              		.loc 1 134 1
 1137 04c4 83308101 		ld	ra,24(sp)
 1138              		.cfi_restore 1
 1139 04c8 03340101 		ld	s0,16(sp)
 1140              		.cfi_restore 8
 1141              		.cfi_def_cfa 2, 32
 1142 04cc 83348100 		ld	s1,8(sp)
 1143              		.cfi_restore 9
 1144              	.LVL124:
 1145 04d0 03390100 		ld	s2,0(sp)
 1146              		.cfi_restore 18
 1147              	.LVL125:
 1148 04d4 13010102 		addi	sp,sp,32
 1149              		.cfi_def_cfa_offset 0
 1150 04d8 67800000 		jr	ra
 1151              		.cfi_endproc
 1152              	.LFE32:
 1154              		.section	.text._ZN7WorkerD3runEv,"axG",@progbits,_ZN7WorkerD3runEv,comdat
 1155              		.align	2
 1156              		.weak	_ZN7WorkerD3runEv
 1158              	_ZN7WorkerD3runEv:
 1159              	.LFB28:
  57:src/../test/Threads_CPP_API_test.h ****         workerBodyD(nullptr);
 1160              		.loc 1 57 10 is_stmt 1
 1161              		.cfi_startproc
 1162              	.LVL126:
 1163 0000 130101FF 		addi	sp,sp,-16
 1164              		.cfi_def_cfa_offset 16
 1165 0004 23341100 		sd	ra,8(sp)
 1166 0008 23308100 		sd	s0,0(sp)
 1167              		.cfi_offset 1, -8
 1168              		.cfi_offset 8, -16
 1169 000c 13040101 		addi	s0,sp,16
 1170              		.cfi_def_cfa 8, 0
  58:src/../test/Threads_CPP_API_test.h ****     }
 1171              		.loc 1 58 9
  58:src/../test/Threads_CPP_API_test.h ****     }
 1172              		.loc 1 58 20 is_stmt 0
 1173 0010 93050000 		li	a1,0
 1174 0014 97000000 		call	_ZN7WorkerD11workerBodyDEPv
 1174      E7800000 
 1175              	.LVL127:
  59:src/../test/Threads_CPP_API_test.h **** };
 1176              		.loc 1 59 5
 1177 001c 83308100 		ld	ra,8(sp)
 1178              		.cfi_restore 1
 1179 0020 03340100 		ld	s0,0(sp)
 1180              		.cfi_restore 8
 1181              		.cfi_def_cfa 2, 16
 1182 0024 13010101 		addi	sp,sp,16
 1183              		.cfi_def_cfa_offset 0
 1184 0028 67800000 		jr	ra
 1185              		.cfi_endproc
 1186              	.LFE28:
 1188              		.section	.rodata.str1.8
GAS LISTING /tmp/cccDtYlh.s 			page 27


 1189 009d 000000   		.align	3
 1190              	.LC13:
 1191 00a0 54687265 		.string	"ThreadA created\n"
 1191      61644120 
 1191      63726561 
 1191      7465640A 
 1191      00
 1192 00b1 00000000 		.align	3
 1192      000000
 1193              	.LC14:
 1194 00b8 54687265 		.string	"ThreadB created\n"
 1194      61644220 
 1194      63726561 
 1194      7465640A 
 1194      00
 1195 00c9 00000000 		.align	3
 1195      000000
 1196              	.LC15:
 1197 00d0 54687265 		.string	"ThreadC created\n"
 1197      61644320 
 1197      63726561 
 1197      7465640A 
 1197      00
 1198 00e1 00000000 		.align	3
 1198      000000
 1199              	.LC16:
 1200 00e8 54687265 		.string	"ThreadD created\n"
 1200      61644420 
 1200      63726561 
 1200      7465640A 
 1200      00
 1201              		.text
 1202              		.align	2
 1203              		.globl	_Z20Threads_CPP_API_testv
 1205              	_Z20Threads_CPP_API_testv:
 1206              	.LFB33:
 135:src/../test/Threads_CPP_API_test.h **** 
 136:src/../test/Threads_CPP_API_test.h **** 
 137:src/../test/Threads_CPP_API_test.h **** void Threads_CPP_API_test() {
 1207              		.loc 1 137 29 is_stmt 1
 1208              		.cfi_startproc
 1209              		.cfi_personality 0x9b,DW.ref.__gxx_personality_v0
 1210              		.cfi_lsda 0x1b,.LLSDA33
 1211 04dc 130101FC 		addi	sp,sp,-64
 1212              		.cfi_def_cfa_offset 64
 1213 04e0 233C1102 		sd	ra,56(sp)
 1214 04e4 23388102 		sd	s0,48(sp)
 1215 04e8 23349102 		sd	s1,40(sp)
 1216 04ec 23302103 		sd	s2,32(sp)
 1217              		.cfi_offset 1, -8
 1218              		.cfi_offset 8, -16
 1219              		.cfi_offset 9, -24
 1220              		.cfi_offset 18, -32
 1221 04f0 13040104 		addi	s0,sp,64
 1222              		.cfi_def_cfa 8, 0
 138:src/../test/Threads_CPP_API_test.h ****     Thread* threads[4];
 1223              		.loc 1 138 5
GAS LISTING /tmp/cccDtYlh.s 			page 28


 139:src/../test/Threads_CPP_API_test.h **** 
 140:src/../test/Threads_CPP_API_test.h ****     threads[0] = new WorkerA();
 1224              		.loc 1 140 5
 1225              		.loc 1 140 30 is_stmt 0
 1226 04f4 13050001 		li	a0,16
 1227              	.LEHB0:
 1228 04f8 97000000 		call	_ZN6ThreadnwEm@plt
 1228      E7800000 
 1229              	.LVL128:
 1230              	.LEHE0:
 1231 0500 93040500 		mv	s1,a0
 1232              	.LVL129:
 1233              	.LEHB1:
 1234              	.LBB56:
 1235              	.LBB57:
  25:src/../test/Threads_CPP_API_test.h **** 
 1236              		.loc 1 25 22
 1237 0504 97000000 		call	_ZN6ThreadC2Ev@plt
 1237      E7800000 
 1238              	.LVL130:
 1239              	.LEHE1:
 1240 050c 97070000 		lla	a5,_ZTV7WorkerA+16
 1240      93870700 
 1241 0514 23B0F400 		sd	a5,0(s1)
 1242              	.LVL131:
 1243              	.LBE57:
 1244              	.LBE56:
 1245              		.loc 1 140 16
 1246 0518 233094FC 		sd	s1,-64(s0)
 141:src/../test/Threads_CPP_API_test.h ****     printString("ThreadA created\n");
 1247              		.loc 1 141 5 is_stmt 1
 1248              		.loc 1 141 16 is_stmt 0
 1249 051c 17050000 		lla	a0,.LC13
 1249      13050500 
 1250              	.LEHB2:
 1251 0524 97000000 		call	_Z11printStringPKc@plt
 1251      E7800000 
 1252              	.LVL132:
 142:src/../test/Threads_CPP_API_test.h **** 
 143:src/../test/Threads_CPP_API_test.h ****     threads[1] = new WorkerB();
 1253              		.loc 1 143 5 is_stmt 1
 1254              		.loc 1 143 30 is_stmt 0
 1255 052c 13050001 		li	a0,16
 1256 0530 97000000 		call	_ZN6ThreadnwEm@plt
 1256      E7800000 
 1257              	.LVL133:
 1258              	.LEHE2:
 1259 0538 93040500 		mv	s1,a0
 1260              	.LVL134:
 1261              	.LEHB3:
 1262              	.LBB58:
 1263              	.LBB59:
  35:src/../test/Threads_CPP_API_test.h **** 
 1264              		.loc 1 35 22
 1265 053c 97000000 		call	_ZN6ThreadC2Ev@plt
 1265      E7800000 
 1266              	.LVL135:
GAS LISTING /tmp/cccDtYlh.s 			page 29


 1267              	.LEHE3:
 1268 0544 97070000 		lla	a5,_ZTV7WorkerB+16
 1268      93870700 
 1269 054c 23B0F400 		sd	a5,0(s1)
 1270              	.LVL136:
 1271              	.LBE59:
 1272              	.LBE58:
 1273              		.loc 1 143 16
 1274 0550 233494FC 		sd	s1,-56(s0)
 144:src/../test/Threads_CPP_API_test.h ****     printString("ThreadB created\n");
 1275              		.loc 1 144 5 is_stmt 1
 1276              		.loc 1 144 16 is_stmt 0
 1277 0554 17050000 		lla	a0,.LC14
 1277      13050500 
 1278              	.LEHB4:
 1279 055c 97000000 		call	_Z11printStringPKc@plt
 1279      E7800000 
 1280              	.LVL137:
 145:src/../test/Threads_CPP_API_test.h **** 
 146:src/../test/Threads_CPP_API_test.h ****     threads[2] = new WorkerC();
 1281              		.loc 1 146 5 is_stmt 1
 1282              		.loc 1 146 30 is_stmt 0
 1283 0564 13050001 		li	a0,16
 1284 0568 97000000 		call	_ZN6ThreadnwEm@plt
 1284      E7800000 
 1285              	.LVL138:
 1286              	.LEHE4:
 1287 0570 93040500 		mv	s1,a0
 1288              	.LVL139:
 1289              	.LEHB5:
 1290              	.LBB60:
 1291              	.LBB61:
  45:src/../test/Threads_CPP_API_test.h **** 
 1292              		.loc 1 45 22
 1293 0574 97000000 		call	_ZN6ThreadC2Ev@plt
 1293      E7800000 
 1294              	.LVL140:
 1295              	.LEHE5:
 1296 057c 97070000 		lla	a5,_ZTV7WorkerC+16
 1296      93870700 
 1297 0584 23B0F400 		sd	a5,0(s1)
 1298              	.LVL141:
 1299              	.LBE61:
 1300              	.LBE60:
 1301              		.loc 1 146 16
 1302 0588 233894FC 		sd	s1,-48(s0)
 147:src/../test/Threads_CPP_API_test.h ****     printString("ThreadC created\n");
 1303              		.loc 1 147 5 is_stmt 1
 1304              		.loc 1 147 16 is_stmt 0
 1305 058c 17050000 		lla	a0,.LC15
 1305      13050500 
 1306              	.LEHB6:
 1307 0594 97000000 		call	_Z11printStringPKc@plt
 1307      E7800000 
 1308              	.LVL142:
 148:src/../test/Threads_CPP_API_test.h **** 
 149:src/../test/Threads_CPP_API_test.h ****     threads[3] = new WorkerD();
GAS LISTING /tmp/cccDtYlh.s 			page 30


 1309              		.loc 1 149 5 is_stmt 1
 1310              		.loc 1 149 30 is_stmt 0
 1311 059c 13050001 		li	a0,16
 1312 05a0 97000000 		call	_ZN6ThreadnwEm@plt
 1312      E7800000 
 1313              	.LVL143:
 1314              	.LEHE6:
 1315 05a8 93040500 		mv	s1,a0
 1316              	.LVL144:
 1317              	.LEHB7:
 1318              	.LBB62:
 1319              	.LBB63:
  55:src/../test/Threads_CPP_API_test.h **** 
 1320              		.loc 1 55 22
 1321 05ac 97000000 		call	_ZN6ThreadC2Ev@plt
 1321      E7800000 
 1322              	.LVL145:
 1323              	.LEHE7:
 1324 05b4 97070000 		lla	a5,_ZTV7WorkerD+16
 1324      93870700 
 1325 05bc 23B0F400 		sd	a5,0(s1)
 1326              	.LVL146:
 1327              	.LBE63:
 1328              	.LBE62:
 1329              		.loc 1 149 16
 1330 05c0 233C94FC 		sd	s1,-40(s0)
 150:src/../test/Threads_CPP_API_test.h ****     printString("ThreadD created\n");
 1331              		.loc 1 150 5 is_stmt 1
 1332              		.loc 1 150 16 is_stmt 0
 1333 05c4 17050000 		lla	a0,.LC16
 1333      13050500 
 1334              	.LEHB8:
 1335 05cc 97000000 		call	_Z11printStringPKc@plt
 1335      E7800000 
 1336              	.LVL147:
 1337              	.LBB64:
 151:src/../test/Threads_CPP_API_test.h **** 
 152:src/../test/Threads_CPP_API_test.h ****     for(int i=0; i<4; i++) {
 1338              		.loc 1 152 13
 1339 05d4 93040000 		li	s1,0
 1340              	.L65:
 1341              	.LVL148:
 1342              		.loc 1 152 19 is_stmt 1 discriminator 1
 1343 05d8 93073000 		li	a5,3
 1344 05dc 63C69702 		bgt	s1,a5,.L64
 153:src/../test/Threads_CPP_API_test.h ****         threads[i]->start();
 1345              		.loc 1 153 9
 1346              		.loc 1 153 18 is_stmt 0
 1347 05e0 93973400 		slli	a5,s1,3
 1348 05e4 130704FE 		addi	a4,s0,-32
 1349 05e8 B307F700 		add	a5,a4,a5
 1350              		.loc 1 153 26
 1351 05ec 03B507FE 		ld	a0,-32(a5)
 1352 05f0 97000000 		call	_ZN6Thread5startEv@plt
 1352      E7800000 
 1353              	.LVL149:
 152:src/../test/Threads_CPP_API_test.h ****         threads[i]->start();
GAS LISTING /tmp/cccDtYlh.s 			page 31


 1354              		.loc 1 152 5 is_stmt 1
 1355 05f8 9B841400 		addiw	s1,s1,1
 1356              	.LVL150:
 1357 05fc 6FF0DFFD 		j	.L65
 1358              	.LVL151:
 1359              	.L66:
 1360              	.LBE64:
 154:src/../test/Threads_CPP_API_test.h ****     }
 155:src/../test/Threads_CPP_API_test.h **** 
 156:src/../test/Threads_CPP_API_test.h ****     while (!(finishedA && finishedB && finishedC && finishedD)) {
 157:src/../test/Threads_CPP_API_test.h ****         Thread::dispatch();
 1361              		.loc 1 157 9
 1362              		.loc 1 157 25 is_stmt 0
 1363 0600 97000000 		call	_ZN6Thread8dispatchEv@plt
 1363      E7800000 
 1364              	.LVL152:
 1365              	.LEHE8:
 1366              	.L64:
 156:src/../test/Threads_CPP_API_test.h ****         Thread::dispatch();
 1367              		.loc 1 156 5 is_stmt 1
 156:src/../test/Threads_CPP_API_test.h ****         Thread::dispatch();
 1368              		.loc 1 156 12
 1369 0608 97070000 		lbu	a5,.LANCHOR0
 1369      83C70700 
 1370 0610 E38807FE 		beqz	a5,.L66
 156:src/../test/Threads_CPP_API_test.h ****         Thread::dispatch();
 1371              		.loc 1 156 24 is_stmt 0 discriminator 1
 1372 0614 97070000 		lbu	a5,.LANCHOR0+1
 1372      83C70700 
 1373 061c E38207FE 		beqz	a5,.L66
 156:src/../test/Threads_CPP_API_test.h ****         Thread::dispatch();
 1374              		.loc 1 156 37 discriminator 2
 1375 0620 97070000 		lbu	a5,.LANCHOR0+2
 1375      83C70700 
 1376 0628 E38C07FC 		beqz	a5,.L66
 156:src/../test/Threads_CPP_API_test.h ****         Thread::dispatch();
 1377              		.loc 1 156 12 discriminator 3
 1378 062c 97070000 		lbu	a5,.LANCHOR0+3
 1378      83C70700 
 1379 0634 E38607FC 		beqz	a5,.L66
 1380              	.LBB65:
 158:src/../test/Threads_CPP_API_test.h ****     }
 159:src/../test/Threads_CPP_API_test.h **** 
 160:src/../test/Threads_CPP_API_test.h ****     for (auto thread: threads) { delete thread; }
 1381              		.loc 1 160 23
 1382 0638 930404FC 		addi	s1,s0,-64
 1383              	.LVL153:
 1384 063c 6F008000 		j	.L67
 1385              	.LVL154:
 1386              	.L69:
 1387              		.loc 1 160 5 is_stmt 1 discriminator 5
 1388 0640 93848400 		addi	s1,s1,8
 1389              	.LVL155:
 1390              	.L67:
 1391              		.loc 1 160 23 discriminator 6
 1392 0644 930704FE 		addi	a5,s0,-32
 1393 0648 6386F408 		beq	s1,a5,.L63
GAS LISTING /tmp/cccDtYlh.s 			page 32


 1394              		.loc 1 160 15 is_stmt 0 discriminator 2
 1395 064c 03B50400 		ld	a0,0(s1)
 1396              	.LVL156:
 1397              		.loc 1 160 34 is_stmt 1 discriminator 2
 1398              		.loc 1 160 47 is_stmt 0 discriminator 2
 1399 0650 E30805FE 		beqz	a0,.L69
 1400              		.loc 1 160 41 discriminator 3
 1401 0654 83370500 		ld	a5,0(a0)
 1402 0658 83B78700 		ld	a5,8(a5)
 1403 065c E7800700 		jalr	a5
 1404              	.LVL157:
 1405 0660 6FF01FFE 		j	.L69
 1406              	.LVL158:
 1407              	.L75:
 1408 0664 13090500 		mv	s2,a0
 1409              	.LBE65:
 140:src/../test/Threads_CPP_API_test.h ****     printString("ThreadA created\n");
 1410              		.loc 1 140 30
 1411 0668 13850400 		mv	a0,s1
 1412 066c 97000000 		call	_ZdlPv@plt
 1412      E7800000 
 1413              	.LVL159:
 1414 0674 13050900 		mv	a0,s2
 1415              	.LEHB9:
 1416 0678 97000000 		call	_Unwind_Resume@plt
 1416      E7800000 
 1417              	.LVL160:
 1418              	.LEHE9:
 1419              	.L76:
 1420 0680 13090500 		mv	s2,a0
 143:src/../test/Threads_CPP_API_test.h ****     printString("ThreadB created\n");
 1421              		.loc 1 143 30
 1422 0684 13850400 		mv	a0,s1
 1423 0688 97000000 		call	_ZdlPv@plt
 1423      E7800000 
 1424              	.LVL161:
 1425 0690 13050900 		mv	a0,s2
 1426              	.LEHB10:
 1427 0694 97000000 		call	_Unwind_Resume@plt
 1427      E7800000 
 1428              	.LVL162:
 1429              	.LEHE10:
 1430              	.L77:
 1431 069c 13090500 		mv	s2,a0
 146:src/../test/Threads_CPP_API_test.h ****     printString("ThreadC created\n");
 1432              		.loc 1 146 30
 1433 06a0 13850400 		mv	a0,s1
 1434 06a4 97000000 		call	_ZdlPv@plt
 1434      E7800000 
 1435              	.LVL163:
 1436 06ac 13050900 		mv	a0,s2
 1437              	.LEHB11:
 1438 06b0 97000000 		call	_Unwind_Resume@plt
 1438      E7800000 
 1439              	.LVL164:
 1440              	.LEHE11:
 1441              	.L78:
GAS LISTING /tmp/cccDtYlh.s 			page 33


 1442 06b8 13090500 		mv	s2,a0
 149:src/../test/Threads_CPP_API_test.h ****     printString("ThreadD created\n");
 1443              		.loc 1 149 30
 1444 06bc 13850400 		mv	a0,s1
 1445 06c0 97000000 		call	_ZdlPv@plt
 1445      E7800000 
 1446              	.LVL165:
 1447 06c8 13050900 		mv	a0,s2
 1448              	.LEHB12:
 1449 06cc 97000000 		call	_Unwind_Resume@plt
 1449      E7800000 
 1450              	.LVL166:
 1451              	.LEHE12:
 1452              	.L63:
 161:src/../test/Threads_CPP_API_test.h **** }
 1453              		.loc 1 161 1
 1454 06d4 83308103 		ld	ra,56(sp)
 1455              		.cfi_restore 1
 1456 06d8 03340103 		ld	s0,48(sp)
 1457              		.cfi_restore 8
 1458              		.cfi_def_cfa 2, 64
 1459 06dc 83348102 		ld	s1,40(sp)
 1460              		.cfi_restore 9
 1461              	.LVL167:
 1462 06e0 03390102 		ld	s2,32(sp)
 1463              		.cfi_restore 18
 1464 06e4 13010104 		addi	sp,sp,64
 1465              		.cfi_def_cfa_offset 0
 1466 06e8 67800000 		jr	ra
 1467              		.cfi_endproc
 1468              	.LFE33:
 1469              		.globl	__gxx_personality_v0
 1470              		.section	.gcc_except_table,"a",@progbits
 1471              	.LLSDA33:
 1472 0000 FF       		.byte	0xff
 1473 0001 FF       		.byte	0xff
 1474 0002 03       		.byte	0x3
 1475 0003 A901     		.byte	0xa9,0x1
 1476 0005 00000000 		.4byte	.LEHB0-.LFB33
 1477 0009 00000000 		.4byte	.LEHE0-.LEHB0
 1478 000d 00000000 		.4byte	0
 1479 0011 00       		.byte	0
 1480 0012 00000000 		.4byte	.LEHB1-.LFB33
 1481 0016 00000000 		.4byte	.LEHE1-.LEHB1
 1482 001a 00000000 		.4byte	.L75-.LFB33
 1483 001e 00       		.byte	0
 1484 001f 00000000 		.4byte	.LEHB2-.LFB33
 1485 0023 00000000 		.4byte	.LEHE2-.LEHB2
 1486 0027 00000000 		.4byte	0
 1487 002b 00       		.byte	0
 1488 002c 00000000 		.4byte	.LEHB3-.LFB33
 1489 0030 00000000 		.4byte	.LEHE3-.LEHB3
 1490 0034 00000000 		.4byte	.L76-.LFB33
 1491 0038 00       		.byte	0
 1492 0039 00000000 		.4byte	.LEHB4-.LFB33
 1493 003d 00000000 		.4byte	.LEHE4-.LEHB4
 1494 0041 00000000 		.4byte	0
GAS LISTING /tmp/cccDtYlh.s 			page 34


 1495 0045 00       		.byte	0
 1496 0046 00000000 		.4byte	.LEHB5-.LFB33
 1497 004a 00000000 		.4byte	.LEHE5-.LEHB5
 1498 004e 00000000 		.4byte	.L77-.LFB33
 1499 0052 00       		.byte	0
 1500 0053 00000000 		.4byte	.LEHB6-.LFB33
 1501 0057 00000000 		.4byte	.LEHE6-.LEHB6
 1502 005b 00000000 		.4byte	0
 1503 005f 00       		.byte	0
 1504 0060 00000000 		.4byte	.LEHB7-.LFB33
 1505 0064 00000000 		.4byte	.LEHE7-.LEHB7
 1506 0068 00000000 		.4byte	.L78-.LFB33
 1507 006c 00       		.byte	0
 1508 006d 00000000 		.4byte	.LEHB8-.LFB33
 1509 0071 00000000 		.4byte	.LEHE8-.LEHB8
 1510 0075 00000000 		.4byte	0
 1511 0079 00       		.byte	0
 1512 007a 00000000 		.4byte	.LEHB9-.LFB33
 1513 007e 00000000 		.4byte	.LEHE9-.LEHB9
 1514 0082 00000000 		.4byte	0
 1515 0086 00       		.byte	0
 1516 0087 00000000 		.4byte	.LEHB10-.LFB33
 1517 008b 00000000 		.4byte	.LEHE10-.LEHB10
 1518 008f 00000000 		.4byte	0
 1519 0093 00       		.byte	0
 1520 0094 00000000 		.4byte	.LEHB11-.LFB33
 1521 0098 00000000 		.4byte	.LEHE11-.LEHB11
 1522 009c 00000000 		.4byte	0
 1523 00a0 00       		.byte	0
 1524 00a1 00000000 		.4byte	.LEHB12-.LFB33
 1525 00a5 00000000 		.4byte	.LEHE12-.LEHB12
 1526 00a9 00000000 		.4byte	0
 1527 00ad 00       		.byte	0
 1528              		.text
 1530              		.align	2
 1531              		.globl	_Z8userMainPv
 1533              	_Z8userMainPv:
 1534              	.LFB34:
 1535              		.file 2 "src/userMain.cpp"
   1:src/userMain.cpp **** //
   2:src/userMain.cpp **** // Created by os on 6/21/22.
   3:src/userMain.cpp **** //
   4:src/userMain.cpp **** //
   5:src/userMain.cpp **** // Created by os on 6/16/22.
   6:src/userMain.cpp **** //
   7:src/userMain.cpp **** 
   8:src/userMain.cpp **** //#include "../test/Threads_C_API_test.h" // zadatak 2, niti C API i sinhrona promena konteksta
   9:src/userMain.cpp **** #include "../test/Threads_CPP_API_test.h" // zadatak 2., niti CPP API i sinhrona promena konteksta
  10:src/userMain.cpp **** 
  11:src/userMain.cpp **** //#include "../test/ConsumerProducer_C_API_test.h" // zadatak 3., kompletan C API sa semaforima, si
  12:src/userMain.cpp **** //#include "../test/ConsumerProducer_CPP_Sync_API_test.hpp" // zadatak 3., kompletan CPP API sa sem
  13:src/userMain.cpp **** 
  14:src/userMain.cpp **** //#include "../test/ThreadSleep_C_API_test.hpp" // thread_sleep test C API
  15:src/userMain.cpp **** //#include "../test/ConsumerProducer_CPP_API_test.hpp" // zadatak 4. CPP API i asinhrona promena ko
  16:src/userMain.cpp **** 
  17:src/userMain.cpp **** void userMain(void *) {
 1536              		.loc 2 17 23 is_stmt 1
GAS LISTING /tmp/cccDtYlh.s 			page 35


 1537              		.cfi_startproc
 1538 06ec 130101FF 		addi	sp,sp,-16
 1539              		.cfi_def_cfa_offset 16
 1540 06f0 23341100 		sd	ra,8(sp)
 1541 06f4 23308100 		sd	s0,0(sp)
 1542              		.cfi_offset 1, -8
 1543              		.cfi_offset 8, -16
 1544 06f8 13040101 		addi	s0,sp,16
 1545              		.cfi_def_cfa 8, 0
  18:src/userMain.cpp ****     //Threads_C_API_test(); // zadatak 2., niti C API i sinhrona promena konteksta
  19:src/userMain.cpp ****     Threads_CPP_API_test(); // zadatak 2., niti CPP API i sinhrona promena konteksta
 1546              		.loc 2 19 5
 1547              		.loc 2 19 25 is_stmt 0
 1548 06fc 97000000 		call	_Z20Threads_CPP_API_testv
 1548      E7800000 
 1549              	.LVL168:
  20:src/userMain.cpp **** 
  21:src/userMain.cpp ****     //producerConsumer_C_API(); // zadatak 3., kompletan C API sa semaforima, sinhrona promena kont
  22:src/userMain.cpp ****     //producerConsumer_CPP_Sync_API(); // zadatak 3., kompletan CPP API sa semaforima, sinhrona pro
  23:src/userMain.cpp **** 
  24:src/userMain.cpp ****     //testSleeping(); // thread_sleep test C API
  25:src/userMain.cpp **** //    ConsumerProducerCPP::testConsumerProducer(); // zadatak 4. CPP API i asinhrona promena kontek
  26:src/userMain.cpp **** 
  27:src/userMain.cpp **** }
 1550              		.loc 2 27 1
 1551 0704 83308100 		ld	ra,8(sp)
 1552              		.cfi_restore 1
 1553 0708 03340100 		ld	s0,0(sp)
 1554              		.cfi_restore 8
 1555              		.cfi_def_cfa 2, 16
 1556 070c 13010101 		addi	sp,sp,16
 1557              		.cfi_def_cfa_offset 0
 1558 0710 67800000 		jr	ra
 1559              		.cfi_endproc
 1560              	.LFE34:
 1562              		.weak	_ZTV7WorkerA
 1563              		.section	.data.rel.ro.local._ZTV7WorkerA,"awG",@progbits,_ZTV7WorkerA,comdat
 1564              		.align	3
 1567              	_ZTV7WorkerA:
 1568 0000 00000000 		.dword	0
 1568      00000000 
 1569 0008 00000000 		.dword	0
 1569      00000000 
 1570 0010 00000000 		.dword	_ZN7WorkerAD1Ev
 1570      00000000 
 1571 0018 00000000 		.dword	_ZN7WorkerAD0Ev
 1571      00000000 
 1572 0020 00000000 		.dword	_ZN7WorkerA3runEv
 1572      00000000 
 1573              		.weak	_ZTV7WorkerB
 1574              		.section	.data.rel.ro.local._ZTV7WorkerB,"awG",@progbits,_ZTV7WorkerB,comdat
 1575              		.align	3
 1578              	_ZTV7WorkerB:
 1579 0000 00000000 		.dword	0
 1579      00000000 
 1580 0008 00000000 		.dword	0
 1580      00000000 
GAS LISTING /tmp/cccDtYlh.s 			page 36


 1581 0010 00000000 		.dword	_ZN7WorkerBD1Ev
 1581      00000000 
 1582 0018 00000000 		.dword	_ZN7WorkerBD0Ev
 1582      00000000 
 1583 0020 00000000 		.dword	_ZN7WorkerB3runEv
 1583      00000000 
 1584              		.weak	_ZTV7WorkerC
 1585              		.section	.data.rel.ro.local._ZTV7WorkerC,"awG",@progbits,_ZTV7WorkerC,comdat
 1586              		.align	3
 1589              	_ZTV7WorkerC:
 1590 0000 00000000 		.dword	0
 1590      00000000 
 1591 0008 00000000 		.dword	0
 1591      00000000 
 1592 0010 00000000 		.dword	_ZN7WorkerCD1Ev
 1592      00000000 
 1593 0018 00000000 		.dword	_ZN7WorkerCD0Ev
 1593      00000000 
 1594 0020 00000000 		.dword	_ZN7WorkerC3runEv
 1594      00000000 
 1595              		.weak	_ZTV7WorkerD
 1596              		.section	.data.rel.ro.local._ZTV7WorkerD,"awG",@progbits,_ZTV7WorkerD,comdat
 1597              		.align	3
 1600              	_ZTV7WorkerD:
 1601 0000 00000000 		.dword	0
 1601      00000000 
 1602 0008 00000000 		.dword	0
 1602      00000000 
 1603 0010 00000000 		.dword	_ZN7WorkerDD1Ev
 1603      00000000 
 1604 0018 00000000 		.dword	_ZN7WorkerDD0Ev
 1604      00000000 
 1605 0020 00000000 		.dword	_ZN7WorkerD3runEv
 1605      00000000 
 1606              		.globl	finishedD
 1607              		.globl	finishedC
 1608              		.globl	finishedB
 1609              		.globl	finishedA
 1610              		.bss
 1611              		.set	.LANCHOR0,. + 0
 1614              	finishedA:
 1615 0000 00       		.zero	1
 1618              	finishedB:
 1619 0001 00       		.zero	1
 1622              	finishedC:
 1623 0002 00       		.zero	1
 1626              	finishedD:
 1627 0003 00       		.zero	1
 1628              		.text
 1629              	.Letext0:
 1630              		.file 3 "src/../test/../h/../h/../lib/hw.h"
 1631              		.file 4 "src/../test/../h/syscall_cpp.h"
 1632              		.file 5 "src/../test/printing.h"
 1633              		.file 6 "src/../test/../h/../h/syscall_c.h"
 5523              		.align	3
 5526              	DW.ref.__gxx_personality_v0:
 5527 0000 00000000 		.dword	__gxx_personality_v0
GAS LISTING /tmp/cccDtYlh.s 			page 37


 5527      00000000 
 5528              		.ident	"GCC: (Ubuntu 9.4.0-1ubuntu1~20.04) 9.4.0"
 5529              		.section	.note.GNU-stack,"",@progbits
GAS LISTING /tmp/cccDtYlh.s 			page 38


DEFINED SYMBOLS
                            *ABS*:0000000000000000 userMain.cpp
     /tmp/cccDtYlh.s:10     .text._ZN7WorkerAD2Ev:0000000000000000 _ZN7WorkerAD2Ev
     /tmp/cccDtYlh.s:14     .text._ZN7WorkerAD2Ev:0000000000000000 .L0 
     /tmp/cccDtYlh.s:16     .text._ZN7WorkerAD2Ev:0000000000000000 .L0 
     /tmp/cccDtYlh.s:17     .text._ZN7WorkerAD2Ev:0000000000000004 .L0 
     /tmp/cccDtYlh.s:20     .text._ZN7WorkerAD2Ev:000000000000000c .L0 
     /tmp/cccDtYlh.s:21     .text._ZN7WorkerAD2Ev:000000000000000c .L0 
     /tmp/cccDtYlh.s:23     .text._ZN7WorkerAD2Ev:0000000000000010 .L0 
     /tmp/cccDtYlh.s:1567   .data.rel.ro.local._ZTV7WorkerA:0000000000000000 _ZTV7WorkerA
     /tmp/cccDtYlh.s:26     .text._ZN7WorkerAD2Ev:0000000000000010 .L0 
     /tmp/cccDtYlh.s:32     .text._ZN7WorkerAD2Ev:0000000000000028 .L0 
     /tmp/cccDtYlh.s:34     .text._ZN7WorkerAD2Ev:000000000000002c .L0 
     /tmp/cccDtYlh.s:35     .text._ZN7WorkerAD2Ev:000000000000002c .L0 
     /tmp/cccDtYlh.s:37     .text._ZN7WorkerAD2Ev:0000000000000030 .L0 
     /tmp/cccDtYlh.s:39     .text._ZN7WorkerAD2Ev:0000000000000034 .L0 
     /tmp/cccDtYlh.s:10     .text._ZN7WorkerAD2Ev:0000000000000000 _ZN7WorkerAD1Ev
     /tmp/cccDtYlh.s:48     .text._ZN7WorkerAD0Ev:0000000000000000 _ZN7WorkerAD0Ev
     /tmp/cccDtYlh.s:51     .text._ZN7WorkerAD0Ev:0000000000000000 .L0 
     /tmp/cccDtYlh.s:53     .text._ZN7WorkerAD0Ev:0000000000000000 .L0 
     /tmp/cccDtYlh.s:54     .text._ZN7WorkerAD0Ev:0000000000000004 .L0 
     /tmp/cccDtYlh.s:58     .text._ZN7WorkerAD0Ev:0000000000000010 .L0 
     /tmp/cccDtYlh.s:59     .text._ZN7WorkerAD0Ev:0000000000000010 .L0 
     /tmp/cccDtYlh.s:60     .text._ZN7WorkerAD0Ev:0000000000000010 .L0 
     /tmp/cccDtYlh.s:62     .text._ZN7WorkerAD0Ev:0000000000000014 .L0 
     /tmp/cccDtYlh.s:68     .text._ZN7WorkerAD0Ev:0000000000000018 .L0 
     /tmp/cccDtYlh.s:78     .text._ZN7WorkerAD0Ev:000000000000003c .L0 
     /tmp/cccDtYlh.s:80     .text._ZN7WorkerAD0Ev:0000000000000040 .L0 
     /tmp/cccDtYlh.s:81     .text._ZN7WorkerAD0Ev:0000000000000040 .L0 
     /tmp/cccDtYlh.s:83     .text._ZN7WorkerAD0Ev:0000000000000044 .L0 
     /tmp/cccDtYlh.s:86     .text._ZN7WorkerAD0Ev:0000000000000048 .L0 
     /tmp/cccDtYlh.s:88     .text._ZN7WorkerAD0Ev:000000000000004c .L0 
     /tmp/cccDtYlh.s:95     .text._ZN7WorkerBD2Ev:0000000000000000 _ZN7WorkerBD2Ev
     /tmp/cccDtYlh.s:98     .text._ZN7WorkerBD2Ev:0000000000000000 .L0 
     /tmp/cccDtYlh.s:100    .text._ZN7WorkerBD2Ev:0000000000000000 .L0 
     /tmp/cccDtYlh.s:101    .text._ZN7WorkerBD2Ev:0000000000000004 .L0 
     /tmp/cccDtYlh.s:104    .text._ZN7WorkerBD2Ev:000000000000000c .L0 
     /tmp/cccDtYlh.s:105    .text._ZN7WorkerBD2Ev:000000000000000c .L0 
     /tmp/cccDtYlh.s:107    .text._ZN7WorkerBD2Ev:0000000000000010 .L0 
     /tmp/cccDtYlh.s:1578   .data.rel.ro.local._ZTV7WorkerB:0000000000000000 _ZTV7WorkerB
     /tmp/cccDtYlh.s:110    .text._ZN7WorkerBD2Ev:0000000000000010 .L0 
     /tmp/cccDtYlh.s:116    .text._ZN7WorkerBD2Ev:0000000000000028 .L0 
     /tmp/cccDtYlh.s:118    .text._ZN7WorkerBD2Ev:000000000000002c .L0 
     /tmp/cccDtYlh.s:119    .text._ZN7WorkerBD2Ev:000000000000002c .L0 
     /tmp/cccDtYlh.s:121    .text._ZN7WorkerBD2Ev:0000000000000030 .L0 
     /tmp/cccDtYlh.s:123    .text._ZN7WorkerBD2Ev:0000000000000034 .L0 
     /tmp/cccDtYlh.s:95     .text._ZN7WorkerBD2Ev:0000000000000000 _ZN7WorkerBD1Ev
     /tmp/cccDtYlh.s:132    .text._ZN7WorkerBD0Ev:0000000000000000 _ZN7WorkerBD0Ev
     /tmp/cccDtYlh.s:135    .text._ZN7WorkerBD0Ev:0000000000000000 .L0 
     /tmp/cccDtYlh.s:137    .text._ZN7WorkerBD0Ev:0000000000000000 .L0 
     /tmp/cccDtYlh.s:138    .text._ZN7WorkerBD0Ev:0000000000000004 .L0 
     /tmp/cccDtYlh.s:142    .text._ZN7WorkerBD0Ev:0000000000000010 .L0 
     /tmp/cccDtYlh.s:143    .text._ZN7WorkerBD0Ev:0000000000000010 .L0 
     /tmp/cccDtYlh.s:144    .text._ZN7WorkerBD0Ev:0000000000000010 .L0 
     /tmp/cccDtYlh.s:146    .text._ZN7WorkerBD0Ev:0000000000000014 .L0 
     /tmp/cccDtYlh.s:152    .text._ZN7WorkerBD0Ev:0000000000000018 .L0 
     /tmp/cccDtYlh.s:162    .text._ZN7WorkerBD0Ev:000000000000003c .L0 
GAS LISTING /tmp/cccDtYlh.s 			page 39


     /tmp/cccDtYlh.s:164    .text._ZN7WorkerBD0Ev:0000000000000040 .L0 
     /tmp/cccDtYlh.s:165    .text._ZN7WorkerBD0Ev:0000000000000040 .L0 
     /tmp/cccDtYlh.s:167    .text._ZN7WorkerBD0Ev:0000000000000044 .L0 
     /tmp/cccDtYlh.s:170    .text._ZN7WorkerBD0Ev:0000000000000048 .L0 
     /tmp/cccDtYlh.s:172    .text._ZN7WorkerBD0Ev:000000000000004c .L0 
     /tmp/cccDtYlh.s:179    .text._ZN7WorkerCD2Ev:0000000000000000 _ZN7WorkerCD2Ev
     /tmp/cccDtYlh.s:182    .text._ZN7WorkerCD2Ev:0000000000000000 .L0 
     /tmp/cccDtYlh.s:184    .text._ZN7WorkerCD2Ev:0000000000000000 .L0 
     /tmp/cccDtYlh.s:185    .text._ZN7WorkerCD2Ev:0000000000000004 .L0 
     /tmp/cccDtYlh.s:188    .text._ZN7WorkerCD2Ev:000000000000000c .L0 
     /tmp/cccDtYlh.s:189    .text._ZN7WorkerCD2Ev:000000000000000c .L0 
     /tmp/cccDtYlh.s:191    .text._ZN7WorkerCD2Ev:0000000000000010 .L0 
     /tmp/cccDtYlh.s:1589   .data.rel.ro.local._ZTV7WorkerC:0000000000000000 _ZTV7WorkerC
     /tmp/cccDtYlh.s:194    .text._ZN7WorkerCD2Ev:0000000000000010 .L0 
     /tmp/cccDtYlh.s:200    .text._ZN7WorkerCD2Ev:0000000000000028 .L0 
     /tmp/cccDtYlh.s:202    .text._ZN7WorkerCD2Ev:000000000000002c .L0 
     /tmp/cccDtYlh.s:203    .text._ZN7WorkerCD2Ev:000000000000002c .L0 
     /tmp/cccDtYlh.s:205    .text._ZN7WorkerCD2Ev:0000000000000030 .L0 
     /tmp/cccDtYlh.s:207    .text._ZN7WorkerCD2Ev:0000000000000034 .L0 
     /tmp/cccDtYlh.s:179    .text._ZN7WorkerCD2Ev:0000000000000000 _ZN7WorkerCD1Ev
     /tmp/cccDtYlh.s:216    .text._ZN7WorkerCD0Ev:0000000000000000 _ZN7WorkerCD0Ev
     /tmp/cccDtYlh.s:219    .text._ZN7WorkerCD0Ev:0000000000000000 .L0 
     /tmp/cccDtYlh.s:221    .text._ZN7WorkerCD0Ev:0000000000000000 .L0 
     /tmp/cccDtYlh.s:222    .text._ZN7WorkerCD0Ev:0000000000000004 .L0 
     /tmp/cccDtYlh.s:226    .text._ZN7WorkerCD0Ev:0000000000000010 .L0 
     /tmp/cccDtYlh.s:227    .text._ZN7WorkerCD0Ev:0000000000000010 .L0 
     /tmp/cccDtYlh.s:228    .text._ZN7WorkerCD0Ev:0000000000000010 .L0 
     /tmp/cccDtYlh.s:230    .text._ZN7WorkerCD0Ev:0000000000000014 .L0 
     /tmp/cccDtYlh.s:236    .text._ZN7WorkerCD0Ev:0000000000000018 .L0 
     /tmp/cccDtYlh.s:246    .text._ZN7WorkerCD0Ev:000000000000003c .L0 
     /tmp/cccDtYlh.s:248    .text._ZN7WorkerCD0Ev:0000000000000040 .L0 
     /tmp/cccDtYlh.s:249    .text._ZN7WorkerCD0Ev:0000000000000040 .L0 
     /tmp/cccDtYlh.s:251    .text._ZN7WorkerCD0Ev:0000000000000044 .L0 
     /tmp/cccDtYlh.s:254    .text._ZN7WorkerCD0Ev:0000000000000048 .L0 
     /tmp/cccDtYlh.s:256    .text._ZN7WorkerCD0Ev:000000000000004c .L0 
     /tmp/cccDtYlh.s:263    .text._ZN7WorkerDD2Ev:0000000000000000 _ZN7WorkerDD2Ev
     /tmp/cccDtYlh.s:266    .text._ZN7WorkerDD2Ev:0000000000000000 .L0 
     /tmp/cccDtYlh.s:268    .text._ZN7WorkerDD2Ev:0000000000000000 .L0 
     /tmp/cccDtYlh.s:269    .text._ZN7WorkerDD2Ev:0000000000000004 .L0 
     /tmp/cccDtYlh.s:272    .text._ZN7WorkerDD2Ev:000000000000000c .L0 
     /tmp/cccDtYlh.s:273    .text._ZN7WorkerDD2Ev:000000000000000c .L0 
     /tmp/cccDtYlh.s:275    .text._ZN7WorkerDD2Ev:0000000000000010 .L0 
     /tmp/cccDtYlh.s:1600   .data.rel.ro.local._ZTV7WorkerD:0000000000000000 _ZTV7WorkerD
     /tmp/cccDtYlh.s:278    .text._ZN7WorkerDD2Ev:0000000000000010 .L0 
     /tmp/cccDtYlh.s:284    .text._ZN7WorkerDD2Ev:0000000000000028 .L0 
     /tmp/cccDtYlh.s:286    .text._ZN7WorkerDD2Ev:000000000000002c .L0 
     /tmp/cccDtYlh.s:287    .text._ZN7WorkerDD2Ev:000000000000002c .L0 
     /tmp/cccDtYlh.s:289    .text._ZN7WorkerDD2Ev:0000000000000030 .L0 
     /tmp/cccDtYlh.s:291    .text._ZN7WorkerDD2Ev:0000000000000034 .L0 
     /tmp/cccDtYlh.s:263    .text._ZN7WorkerDD2Ev:0000000000000000 _ZN7WorkerDD1Ev
     /tmp/cccDtYlh.s:300    .text._ZN7WorkerDD0Ev:0000000000000000 _ZN7WorkerDD0Ev
     /tmp/cccDtYlh.s:303    .text._ZN7WorkerDD0Ev:0000000000000000 .L0 
     /tmp/cccDtYlh.s:305    .text._ZN7WorkerDD0Ev:0000000000000000 .L0 
     /tmp/cccDtYlh.s:306    .text._ZN7WorkerDD0Ev:0000000000000004 .L0 
     /tmp/cccDtYlh.s:310    .text._ZN7WorkerDD0Ev:0000000000000010 .L0 
     /tmp/cccDtYlh.s:311    .text._ZN7WorkerDD0Ev:0000000000000010 .L0 
     /tmp/cccDtYlh.s:312    .text._ZN7WorkerDD0Ev:0000000000000010 .L0 
GAS LISTING /tmp/cccDtYlh.s 			page 40


     /tmp/cccDtYlh.s:314    .text._ZN7WorkerDD0Ev:0000000000000014 .L0 
     /tmp/cccDtYlh.s:320    .text._ZN7WorkerDD0Ev:0000000000000018 .L0 
     /tmp/cccDtYlh.s:330    .text._ZN7WorkerDD0Ev:000000000000003c .L0 
     /tmp/cccDtYlh.s:332    .text._ZN7WorkerDD0Ev:0000000000000040 .L0 
     /tmp/cccDtYlh.s:333    .text._ZN7WorkerDD0Ev:0000000000000040 .L0 
     /tmp/cccDtYlh.s:335    .text._ZN7WorkerDD0Ev:0000000000000044 .L0 
     /tmp/cccDtYlh.s:338    .text._ZN7WorkerDD0Ev:0000000000000048 .L0 
     /tmp/cccDtYlh.s:340    .text._ZN7WorkerDD0Ev:000000000000004c .L0 
     /tmp/cccDtYlh.s:347    .text:0000000000000000 _Z9fibonaccim
     /tmp/cccDtYlh.s:350    .text:0000000000000000 .L0 
     /tmp/cccDtYlh.s:352    .text:0000000000000000 .L0 
     /tmp/cccDtYlh.s:353    .text:0000000000000004 .L0 
     /tmp/cccDtYlh.s:358    .text:0000000000000014 .L0 
     /tmp/cccDtYlh.s:359    .text:0000000000000014 .L0 
     /tmp/cccDtYlh.s:360    .text:0000000000000014 .L0 
     /tmp/cccDtYlh.s:361    .text:0000000000000014 .L0 
     /tmp/cccDtYlh.s:363    .text:0000000000000018 .L0 
     /tmp/cccDtYlh.s:366    .text:000000000000001c .L0 
     /tmp/cccDtYlh.s:369    .text:0000000000000024 .L0 
     /tmp/cccDtYlh.s:370    .text:0000000000000024 .L0 
     /tmp/cccDtYlh.s:373    .text:000000000000002c .L0 
     /tmp/cccDtYlh.s:377    .text:0000000000000030 .L0 
     /tmp/cccDtYlh.s:378    .text:0000000000000030 .L0 
     /tmp/cccDtYlh.s:383    .text:0000000000000040 .L0 
     /tmp/cccDtYlh.s:387    .text:000000000000004c .L0 
     /tmp/cccDtYlh.s:390    .text:0000000000000050 .L0 
     /tmp/cccDtYlh.s:391    .text:0000000000000054 .L0 
     /tmp/cccDtYlh.s:392    .text:0000000000000054 .L0 
     /tmp/cccDtYlh.s:394    .text:0000000000000058 .L0 
     /tmp/cccDtYlh.s:395    .text:0000000000000058 .L0 
     /tmp/cccDtYlh.s:397    .text:000000000000005c .L0 
     /tmp/cccDtYlh.s:400    .text:0000000000000060 .L0 
     /tmp/cccDtYlh.s:402    .text:0000000000000064 .L0 
     /tmp/cccDtYlh.s:406    .text:0000000000000068 .L0 
     /tmp/cccDtYlh.s:408    .text:0000000000000068 .L0 
     /tmp/cccDtYlh.s:409    .text:0000000000000068 .L0 
     /tmp/cccDtYlh.s:412    .text:0000000000000074 .L0 
     /tmp/cccDtYlh.s:429    .text:0000000000000074 _ZN7WorkerA11workerBodyAEPv
     /tmp/cccDtYlh.s:432    .text:0000000000000074 .L0 
     /tmp/cccDtYlh.s:434    .text:0000000000000074 .L0 
     /tmp/cccDtYlh.s:435    .text:0000000000000078 .L0 
     /tmp/cccDtYlh.s:440    .text:0000000000000088 .L0 
     /tmp/cccDtYlh.s:441    .text:0000000000000088 .L0 
     /tmp/cccDtYlh.s:442    .text:0000000000000088 .L0 
     /tmp/cccDtYlh.s:443    .text:0000000000000088 .L0 
     /tmp/cccDtYlh.s:445    .text:000000000000008c .L0 
     /tmp/cccDtYlh.s:449    .text:000000000000008c .L0 
     /tmp/cccDtYlh.s:450    .text:000000000000008c .L0 
     /tmp/cccDtYlh.s:458    .text:0000000000000094 .L0 
     /tmp/cccDtYlh.s:459    .text:0000000000000094 .L0 
     /tmp/cccDtYlh.s:463    .text:000000000000009c .L0 
     /tmp/cccDtYlh.s:467    .text:00000000000000a0 .L0 
     /tmp/cccDtYlh.s:473    .text:00000000000000ac .L0 
     /tmp/cccDtYlh.s:477    .text:00000000000000b0 .L0 
     /tmp/cccDtYlh.s:481    .text:00000000000000bc .L0 
     /tmp/cccDtYlh.s:491    .text:00000000000000c4 .L0 
     /tmp/cccDtYlh.s:495    .text:00000000000000c8 .L0 
GAS LISTING /tmp/cccDtYlh.s 			page 41


     /tmp/cccDtYlh.s:499    .text:00000000000000d0 .L0 
     /tmp/cccDtYlh.s:500    .text:00000000000000d0 .L0 
     /tmp/cccDtYlh.s:504    .text:00000000000000e0 .L0 
     /tmp/cccDtYlh.s:505    .text:00000000000000e0 .L0 
     /tmp/cccDtYlh.s:511    .text:00000000000000f4 .L0 
     /tmp/cccDtYlh.s:512    .text:00000000000000f4 .L0 
     /tmp/cccDtYlh.s:517    .text:0000000000000104 .L0 
     /tmp/cccDtYlh.s:518    .text:0000000000000104 .L0 
     /tmp/cccDtYlh.s:526    .text:000000000000010c .L0 
     /tmp/cccDtYlh.s:527    .text:000000000000010c .L0 
     /tmp/cccDtYlh.s:531    .text:000000000000011c .L0 
     /tmp/cccDtYlh.s:532    .text:000000000000011c .L0 
     /tmp/cccDtYlh.s:535    .text:0000000000000128 .L0 
     /tmp/cccDtYlh.s:536    .text:000000000000012c .L0 
     /tmp/cccDtYlh.s:538    .text:0000000000000130 .L0 
     /tmp/cccDtYlh.s:539    .text:0000000000000130 .L0 
     /tmp/cccDtYlh.s:541    .text:0000000000000134 .L0 
     /tmp/cccDtYlh.s:543    .text:0000000000000138 .L0 
     /tmp/cccDtYlh.s:546    .text:000000000000013c .L0 
     /tmp/cccDtYlh.s:548    .text:0000000000000140 .L0 
     /tmp/cccDtYlh.s:555    .text._ZN7WorkerA3runEv:0000000000000000 _ZN7WorkerA3runEv
     /tmp/cccDtYlh.s:558    .text._ZN7WorkerA3runEv:0000000000000000 .L0 
     /tmp/cccDtYlh.s:560    .text._ZN7WorkerA3runEv:0000000000000000 .L0 
     /tmp/cccDtYlh.s:561    .text._ZN7WorkerA3runEv:0000000000000004 .L0 
     /tmp/cccDtYlh.s:564    .text._ZN7WorkerA3runEv:000000000000000c .L0 
     /tmp/cccDtYlh.s:565    .text._ZN7WorkerA3runEv:000000000000000c .L0 
     /tmp/cccDtYlh.s:567    .text._ZN7WorkerA3runEv:0000000000000010 .L0 
     /tmp/cccDtYlh.s:569    .text._ZN7WorkerA3runEv:0000000000000010 .L0 
     /tmp/cccDtYlh.s:570    .text._ZN7WorkerA3runEv:0000000000000010 .L0 
     /tmp/cccDtYlh.s:574    .text._ZN7WorkerA3runEv:000000000000001c .L0 
     /tmp/cccDtYlh.s:575    .text._ZN7WorkerA3runEv:0000000000000020 .L0 
     /tmp/cccDtYlh.s:577    .text._ZN7WorkerA3runEv:0000000000000024 .L0 
     /tmp/cccDtYlh.s:578    .text._ZN7WorkerA3runEv:0000000000000024 .L0 
     /tmp/cccDtYlh.s:580    .text._ZN7WorkerA3runEv:0000000000000028 .L0 
     /tmp/cccDtYlh.s:582    .text._ZN7WorkerA3runEv:000000000000002c .L0 
     /tmp/cccDtYlh.s:596    .text:0000000000000140 _ZN7WorkerB11workerBodyBEPv
     /tmp/cccDtYlh.s:599    .text:0000000000000140 .L0 
     /tmp/cccDtYlh.s:601    .text:0000000000000140 .L0 
     /tmp/cccDtYlh.s:602    .text:0000000000000144 .L0 
     /tmp/cccDtYlh.s:607    .text:0000000000000154 .L0 
     /tmp/cccDtYlh.s:608    .text:0000000000000154 .L0 
     /tmp/cccDtYlh.s:609    .text:0000000000000154 .L0 
     /tmp/cccDtYlh.s:610    .text:0000000000000154 .L0 
     /tmp/cccDtYlh.s:612    .text:0000000000000158 .L0 
     /tmp/cccDtYlh.s:616    .text:0000000000000158 .L0 
     /tmp/cccDtYlh.s:617    .text:0000000000000158 .L0 
     /tmp/cccDtYlh.s:625    .text:0000000000000160 .L0 
     /tmp/cccDtYlh.s:626    .text:0000000000000160 .L0 
     /tmp/cccDtYlh.s:630    .text:0000000000000168 .L0 
     /tmp/cccDtYlh.s:634    .text:000000000000016c .L0 
     /tmp/cccDtYlh.s:640    .text:0000000000000178 .L0 
     /tmp/cccDtYlh.s:644    .text:000000000000017c .L0 
     /tmp/cccDtYlh.s:648    .text:0000000000000188 .L0 
     /tmp/cccDtYlh.s:658    .text:0000000000000190 .L0 
     /tmp/cccDtYlh.s:662    .text:0000000000000194 .L0 
     /tmp/cccDtYlh.s:666    .text:000000000000019c .L0 
     /tmp/cccDtYlh.s:667    .text:000000000000019c .L0 
GAS LISTING /tmp/cccDtYlh.s 			page 42


     /tmp/cccDtYlh.s:671    .text:00000000000001ac .L0 
     /tmp/cccDtYlh.s:672    .text:00000000000001ac .L0 
     /tmp/cccDtYlh.s:678    .text:00000000000001c0 .L0 
     /tmp/cccDtYlh.s:679    .text:00000000000001c0 .L0 
     /tmp/cccDtYlh.s:684    .text:00000000000001d0 .L0 
     /tmp/cccDtYlh.s:685    .text:00000000000001d0 .L0 
     /tmp/cccDtYlh.s:693    .text:00000000000001d8 .L0 
     /tmp/cccDtYlh.s:694    .text:00000000000001d8 .L0 
     /tmp/cccDtYlh.s:698    .text:00000000000001e8 .L0 
     /tmp/cccDtYlh.s:699    .text:00000000000001e8 .L0 
     /tmp/cccDtYlh.s:702    .text:00000000000001f4 .L0 
     /tmp/cccDtYlh.s:703    .text:00000000000001f4 .L0 
     /tmp/cccDtYlh.s:706    .text:00000000000001fc .L0 
     /tmp/cccDtYlh.s:707    .text:0000000000000200 .L0 
     /tmp/cccDtYlh.s:709    .text:0000000000000204 .L0 
     /tmp/cccDtYlh.s:710    .text:0000000000000204 .L0 
     /tmp/cccDtYlh.s:712    .text:0000000000000208 .L0 
     /tmp/cccDtYlh.s:714    .text:000000000000020c .L0 
     /tmp/cccDtYlh.s:717    .text:0000000000000210 .L0 
     /tmp/cccDtYlh.s:719    .text:0000000000000214 .L0 
     /tmp/cccDtYlh.s:726    .text._ZN7WorkerB3runEv:0000000000000000 _ZN7WorkerB3runEv
     /tmp/cccDtYlh.s:729    .text._ZN7WorkerB3runEv:0000000000000000 .L0 
     /tmp/cccDtYlh.s:731    .text._ZN7WorkerB3runEv:0000000000000000 .L0 
     /tmp/cccDtYlh.s:732    .text._ZN7WorkerB3runEv:0000000000000004 .L0 
     /tmp/cccDtYlh.s:735    .text._ZN7WorkerB3runEv:000000000000000c .L0 
     /tmp/cccDtYlh.s:736    .text._ZN7WorkerB3runEv:000000000000000c .L0 
     /tmp/cccDtYlh.s:738    .text._ZN7WorkerB3runEv:0000000000000010 .L0 
     /tmp/cccDtYlh.s:740    .text._ZN7WorkerB3runEv:0000000000000010 .L0 
     /tmp/cccDtYlh.s:741    .text._ZN7WorkerB3runEv:0000000000000010 .L0 
     /tmp/cccDtYlh.s:745    .text._ZN7WorkerB3runEv:000000000000001c .L0 
     /tmp/cccDtYlh.s:746    .text._ZN7WorkerB3runEv:0000000000000020 .L0 
     /tmp/cccDtYlh.s:748    .text._ZN7WorkerB3runEv:0000000000000024 .L0 
     /tmp/cccDtYlh.s:749    .text._ZN7WorkerB3runEv:0000000000000024 .L0 
     /tmp/cccDtYlh.s:751    .text._ZN7WorkerB3runEv:0000000000000028 .L0 
     /tmp/cccDtYlh.s:753    .text._ZN7WorkerB3runEv:000000000000002c .L0 
     /tmp/cccDtYlh.s:773    .text:0000000000000214 _ZN7WorkerC11workerBodyCEPv
     /tmp/cccDtYlh.s:776    .text:0000000000000214 .L0 
     /tmp/cccDtYlh.s:778    .text:0000000000000214 .L0 
     /tmp/cccDtYlh.s:779    .text:0000000000000218 .L0 
     /tmp/cccDtYlh.s:784    .text:0000000000000228 .L0 
     /tmp/cccDtYlh.s:785    .text:0000000000000228 .L0 
     /tmp/cccDtYlh.s:786    .text:0000000000000228 .L0 
     /tmp/cccDtYlh.s:787    .text:0000000000000228 .L0 
     /tmp/cccDtYlh.s:789    .text:000000000000022c .L0 
     /tmp/cccDtYlh.s:792    .text:000000000000022c .L0 
     /tmp/cccDtYlh.s:793    .text:000000000000022c .L0 
     /tmp/cccDtYlh.s:798    .text:0000000000000234 .L0 
     /tmp/cccDtYlh.s:799    .text:0000000000000234 .L0 
     /tmp/cccDtYlh.s:803    .text:0000000000000244 .L0 
     /tmp/cccDtYlh.s:804    .text:0000000000000244 .L0 
     /tmp/cccDtYlh.s:810    .text:0000000000000258 .L0 
     /tmp/cccDtYlh.s:811    .text:0000000000000258 .L0 
     /tmp/cccDtYlh.s:815    .text:0000000000000268 .L0 
     /tmp/cccDtYlh.s:821    .text:0000000000000270 .L0 
     /tmp/cccDtYlh.s:822    .text:0000000000000270 .L0 
     /tmp/cccDtYlh.s:825    .text:0000000000000278 .L0 
     /tmp/cccDtYlh.s:826    .text:0000000000000278 .L0 
GAS LISTING /tmp/cccDtYlh.s 			page 43


     /tmp/cccDtYlh.s:830    .text:0000000000000288 .L0 
src/../test/Threads_CPP_API_test.h:94     .text:0000000000000288 .L0 
     /tmp/cccDtYlh.s:836    .text:000000000000028c .L0 
     /tmp/cccDtYlh.s:838    .text:000000000000028c .L0 
     /tmp/cccDtYlh.s:841    .text:0000000000000294 .L0 
     /tmp/cccDtYlh.s:842    .text:0000000000000294 .L0 
src/../test/Threads_CPP_API_test.h:98     .text:0000000000000294 .L0 
     /tmp/cccDtYlh.s:849    .text:0000000000000298 .L0 
     /tmp/cccDtYlh.s:851    .text:0000000000000298 .L0 
     /tmp/cccDtYlh.s:855    .text:00000000000002a8 .L0 
     /tmp/cccDtYlh.s:856    .text:00000000000002a8 .L0 
     /tmp/cccDtYlh.s:862    .text:00000000000002bc .L0 
     /tmp/cccDtYlh.s:863    .text:00000000000002bc .L0 
     /tmp/cccDtYlh.s:867    .text:00000000000002cc .L0 
     /tmp/cccDtYlh.s:868    .text:00000000000002cc .L0 
     /tmp/cccDtYlh.s:874    .text:00000000000002dc .L0 
     /tmp/cccDtYlh.s:875    .text:00000000000002dc .L0 
     /tmp/cccDtYlh.s:880    .text:00000000000002ec .L0 
     /tmp/cccDtYlh.s:881    .text:00000000000002ec .L0 
     /tmp/cccDtYlh.s:887    .text:0000000000000300 .L0 
     /tmp/cccDtYlh.s:888    .text:0000000000000300 .L0 
     /tmp/cccDtYlh.s:894    .text:0000000000000314 .L0 
     /tmp/cccDtYlh.s:895    .text:0000000000000314 .L0 
     /tmp/cccDtYlh.s:899    .text:0000000000000324 .L0 
     /tmp/cccDtYlh.s:900    .text:0000000000000324 .L0 
     /tmp/cccDtYlh.s:906    .text:0000000000000338 .L0 
     /tmp/cccDtYlh.s:907    .text:0000000000000338 .L0 
     /tmp/cccDtYlh.s:911    .text:0000000000000348 .L0 
     /tmp/cccDtYlh.s:917    .text:0000000000000350 .L0 
     /tmp/cccDtYlh.s:918    .text:0000000000000350 .L0 
     /tmp/cccDtYlh.s:921    .text:0000000000000358 .L0 
     /tmp/cccDtYlh.s:922    .text:0000000000000358 .L0 
     /tmp/cccDtYlh.s:926    .text:0000000000000368 .L0 
     /tmp/cccDtYlh.s:927    .text:0000000000000368 .L0 
     /tmp/cccDtYlh.s:930    .text:0000000000000374 .L0 
     /tmp/cccDtYlh.s:931    .text:0000000000000374 .L0 
     /tmp/cccDtYlh.s:934    .text:000000000000037c .L0 
     /tmp/cccDtYlh.s:935    .text:0000000000000380 .L0 
     /tmp/cccDtYlh.s:937    .text:0000000000000384 .L0 
     /tmp/cccDtYlh.s:938    .text:0000000000000384 .L0 
     /tmp/cccDtYlh.s:940    .text:0000000000000388 .L0 
     /tmp/cccDtYlh.s:943    .text:000000000000038c .L0 
     /tmp/cccDtYlh.s:946    .text:0000000000000390 .L0 
     /tmp/cccDtYlh.s:948    .text:0000000000000394 .L0 
     /tmp/cccDtYlh.s:955    .text._ZN7WorkerC3runEv:0000000000000000 _ZN7WorkerC3runEv
     /tmp/cccDtYlh.s:958    .text._ZN7WorkerC3runEv:0000000000000000 .L0 
     /tmp/cccDtYlh.s:960    .text._ZN7WorkerC3runEv:0000000000000000 .L0 
     /tmp/cccDtYlh.s:961    .text._ZN7WorkerC3runEv:0000000000000004 .L0 
     /tmp/cccDtYlh.s:964    .text._ZN7WorkerC3runEv:000000000000000c .L0 
     /tmp/cccDtYlh.s:965    .text._ZN7WorkerC3runEv:000000000000000c .L0 
     /tmp/cccDtYlh.s:967    .text._ZN7WorkerC3runEv:0000000000000010 .L0 
     /tmp/cccDtYlh.s:969    .text._ZN7WorkerC3runEv:0000000000000010 .L0 
     /tmp/cccDtYlh.s:970    .text._ZN7WorkerC3runEv:0000000000000010 .L0 
     /tmp/cccDtYlh.s:974    .text._ZN7WorkerC3runEv:000000000000001c .L0 
     /tmp/cccDtYlh.s:975    .text._ZN7WorkerC3runEv:0000000000000020 .L0 
     /tmp/cccDtYlh.s:977    .text._ZN7WorkerC3runEv:0000000000000024 .L0 
     /tmp/cccDtYlh.s:978    .text._ZN7WorkerC3runEv:0000000000000024 .L0 
GAS LISTING /tmp/cccDtYlh.s 			page 44


     /tmp/cccDtYlh.s:980    .text._ZN7WorkerC3runEv:0000000000000028 .L0 
     /tmp/cccDtYlh.s:982    .text._ZN7WorkerC3runEv:000000000000002c .L0 
     /tmp/cccDtYlh.s:1002   .text:0000000000000394 _ZN7WorkerD11workerBodyDEPv
     /tmp/cccDtYlh.s:1005   .text:0000000000000394 .L0 
     /tmp/cccDtYlh.s:1007   .text:0000000000000394 .L0 
     /tmp/cccDtYlh.s:1008   .text:0000000000000398 .L0 
     /tmp/cccDtYlh.s:1013   .text:00000000000003a8 .L0 
     /tmp/cccDtYlh.s:1014   .text:00000000000003a8 .L0 
     /tmp/cccDtYlh.s:1015   .text:00000000000003a8 .L0 
     /tmp/cccDtYlh.s:1016   .text:00000000000003a8 .L0 
     /tmp/cccDtYlh.s:1018   .text:00000000000003ac .L0 
     /tmp/cccDtYlh.s:1021   .text:00000000000003ac .L0 
     /tmp/cccDtYlh.s:1022   .text:00000000000003ac .L0 
     /tmp/cccDtYlh.s:1027   .text:00000000000003b4 .L0 
     /tmp/cccDtYlh.s:1028   .text:00000000000003b4 .L0 
     /tmp/cccDtYlh.s:1032   .text:00000000000003c4 .L0 
     /tmp/cccDtYlh.s:1033   .text:00000000000003c4 .L0 
     /tmp/cccDtYlh.s:1039   .text:00000000000003d8 .L0 
     /tmp/cccDtYlh.s:1040   .text:00000000000003d8 .L0 
     /tmp/cccDtYlh.s:1044   .text:00000000000003e8 .L0 
     /tmp/cccDtYlh.s:1050   .text:00000000000003f0 .L0 
     /tmp/cccDtYlh.s:1051   .text:00000000000003f0 .L0 
     /tmp/cccDtYlh.s:1054   .text:00000000000003f8 .L0 
     /tmp/cccDtYlh.s:1055   .text:00000000000003f8 .L0 
     /tmp/cccDtYlh.s:1059   .text:0000000000000408 .L0 
src/../test/Threads_CPP_API_test.h:121    .text:0000000000000408 .L0 
     /tmp/cccDtYlh.s:1065   .text:000000000000040c .L0 
     /tmp/cccDtYlh.s:1067   .text:000000000000040c .L0 
     /tmp/cccDtYlh.s:1070   .text:0000000000000414 .L0 
     /tmp/cccDtYlh.s:1071   .text:0000000000000414 .L0 
     /tmp/cccDtYlh.s:1077   .text:0000000000000424 .L0 
     /tmp/cccDtYlh.s:1078   .text:0000000000000424 .L0 
     /tmp/cccDtYlh.s:1083   .text:0000000000000434 .L0 
     /tmp/cccDtYlh.s:1084   .text:0000000000000434 .L0 
     /tmp/cccDtYlh.s:1090   .text:0000000000000448 .L0 
     /tmp/cccDtYlh.s:1091   .text:0000000000000448 .L0 
     /tmp/cccDtYlh.s:1097   .text:000000000000045c .L0 
     /tmp/cccDtYlh.s:1098   .text:000000000000045c .L0 
     /tmp/cccDtYlh.s:1102   .text:000000000000046c .L0 
     /tmp/cccDtYlh.s:1103   .text:000000000000046c .L0 
     /tmp/cccDtYlh.s:1109   .text:0000000000000480 .L0 
     /tmp/cccDtYlh.s:1110   .text:0000000000000480 .L0 
     /tmp/cccDtYlh.s:1114   .text:0000000000000490 .L0 
     /tmp/cccDtYlh.s:1120   .text:0000000000000498 .L0 
     /tmp/cccDtYlh.s:1121   .text:0000000000000498 .L0 
     /tmp/cccDtYlh.s:1124   .text:00000000000004a0 .L0 
     /tmp/cccDtYlh.s:1125   .text:00000000000004a0 .L0 
     /tmp/cccDtYlh.s:1129   .text:00000000000004b0 .L0 
     /tmp/cccDtYlh.s:1130   .text:00000000000004b0 .L0 
     /tmp/cccDtYlh.s:1133   .text:00000000000004bc .L0 
     /tmp/cccDtYlh.s:1134   .text:00000000000004bc .L0 
     /tmp/cccDtYlh.s:1137   .text:00000000000004c4 .L0 
     /tmp/cccDtYlh.s:1138   .text:00000000000004c8 .L0 
     /tmp/cccDtYlh.s:1140   .text:00000000000004cc .L0 
     /tmp/cccDtYlh.s:1141   .text:00000000000004cc .L0 
     /tmp/cccDtYlh.s:1143   .text:00000000000004d0 .L0 
     /tmp/cccDtYlh.s:1146   .text:00000000000004d4 .L0 
GAS LISTING /tmp/cccDtYlh.s 			page 45


     /tmp/cccDtYlh.s:1149   .text:00000000000004d8 .L0 
     /tmp/cccDtYlh.s:1151   .text:00000000000004dc .L0 
     /tmp/cccDtYlh.s:1158   .text._ZN7WorkerD3runEv:0000000000000000 _ZN7WorkerD3runEv
     /tmp/cccDtYlh.s:1161   .text._ZN7WorkerD3runEv:0000000000000000 .L0 
     /tmp/cccDtYlh.s:1163   .text._ZN7WorkerD3runEv:0000000000000000 .L0 
     /tmp/cccDtYlh.s:1164   .text._ZN7WorkerD3runEv:0000000000000004 .L0 
     /tmp/cccDtYlh.s:1167   .text._ZN7WorkerD3runEv:000000000000000c .L0 
     /tmp/cccDtYlh.s:1168   .text._ZN7WorkerD3runEv:000000000000000c .L0 
     /tmp/cccDtYlh.s:1170   .text._ZN7WorkerD3runEv:0000000000000010 .L0 
     /tmp/cccDtYlh.s:1172   .text._ZN7WorkerD3runEv:0000000000000010 .L0 
     /tmp/cccDtYlh.s:1173   .text._ZN7WorkerD3runEv:0000000000000010 .L0 
     /tmp/cccDtYlh.s:1177   .text._ZN7WorkerD3runEv:000000000000001c .L0 
     /tmp/cccDtYlh.s:1178   .text._ZN7WorkerD3runEv:0000000000000020 .L0 
     /tmp/cccDtYlh.s:1180   .text._ZN7WorkerD3runEv:0000000000000024 .L0 
     /tmp/cccDtYlh.s:1181   .text._ZN7WorkerD3runEv:0000000000000024 .L0 
     /tmp/cccDtYlh.s:1183   .text._ZN7WorkerD3runEv:0000000000000028 .L0 
     /tmp/cccDtYlh.s:1185   .text._ZN7WorkerD3runEv:000000000000002c .L0 
     /tmp/cccDtYlh.s:1205   .text:00000000000004dc _Z20Threads_CPP_API_testv
     /tmp/cccDtYlh.s:1208   .text:00000000000004dc .L0 
     /tmp/cccDtYlh.s:5526   .data.rel.local.DW.ref.__gxx_personality_v0:0000000000000000 DW.ref.__gxx_personality_v0
     /tmp/cccDtYlh.s:1211   .text:00000000000004dc .L0 
     /tmp/cccDtYlh.s:1212   .text:00000000000004e0 .L0 
     /tmp/cccDtYlh.s:1217   .text:00000000000004f0 .L0 
     /tmp/cccDtYlh.s:1218   .text:00000000000004f0 .L0 
     /tmp/cccDtYlh.s:1219   .text:00000000000004f0 .L0 
     /tmp/cccDtYlh.s:1220   .text:00000000000004f0 .L0 
     /tmp/cccDtYlh.s:1222   .text:00000000000004f4 .L0 
     /tmp/cccDtYlh.s:1224   .text:00000000000004f4 .L0 
     /tmp/cccDtYlh.s:1225   .text:00000000000004f4 .L0 
     /tmp/cccDtYlh.s:1226   .text:00000000000004f4 .L0 
     /tmp/cccDtYlh.s:1237   .text:0000000000000504 .L0 
     /tmp/cccDtYlh.s:1246   .text:0000000000000518 .L0 
     /tmp/cccDtYlh.s:1248   .text:000000000000051c .L0 
     /tmp/cccDtYlh.s:1249   .text:000000000000051c .L0 
     /tmp/cccDtYlh.s:1254   .text:000000000000052c .L0 
     /tmp/cccDtYlh.s:1255   .text:000000000000052c .L0 
     /tmp/cccDtYlh.s:1265   .text:000000000000053c .L0 
     /tmp/cccDtYlh.s:1274   .text:0000000000000550 .L0 
     /tmp/cccDtYlh.s:1276   .text:0000000000000554 .L0 
     /tmp/cccDtYlh.s:1277   .text:0000000000000554 .L0 
     /tmp/cccDtYlh.s:1282   .text:0000000000000564 .L0 
     /tmp/cccDtYlh.s:1283   .text:0000000000000564 .L0 
     /tmp/cccDtYlh.s:1293   .text:0000000000000574 .L0 
     /tmp/cccDtYlh.s:1302   .text:0000000000000588 .L0 
     /tmp/cccDtYlh.s:1304   .text:000000000000058c .L0 
     /tmp/cccDtYlh.s:1305   .text:000000000000058c .L0 
     /tmp/cccDtYlh.s:1310   .text:000000000000059c .L0 
     /tmp/cccDtYlh.s:1311   .text:000000000000059c .L0 
     /tmp/cccDtYlh.s:1321   .text:00000000000005ac .L0 
     /tmp/cccDtYlh.s:1330   .text:00000000000005c0 .L0 
     /tmp/cccDtYlh.s:1332   .text:00000000000005c4 .L0 
     /tmp/cccDtYlh.s:1333   .text:00000000000005c4 .L0 
     /tmp/cccDtYlh.s:1339   .text:00000000000005d4 .L0 
     /tmp/cccDtYlh.s:1343   .text:00000000000005d8 .L0 
     /tmp/cccDtYlh.s:1346   .text:00000000000005e0 .L0 
     /tmp/cccDtYlh.s:1347   .text:00000000000005e0 .L0 
     /tmp/cccDtYlh.s:1351   .text:00000000000005ec .L0 
GAS LISTING /tmp/cccDtYlh.s 			page 46


     /tmp/cccDtYlh.s:1355   .text:00000000000005f8 .L0 
     /tmp/cccDtYlh.s:1362   .text:0000000000000600 .L0 
     /tmp/cccDtYlh.s:1363   .text:0000000000000600 .L0 
     /tmp/cccDtYlh.s:1368   .text:0000000000000608 .L0 
     /tmp/cccDtYlh.s:1369   .text:0000000000000608 .L0 
     /tmp/cccDtYlh.s:1372   .text:0000000000000614 .L0 
     /tmp/cccDtYlh.s:1375   .text:0000000000000620 .L0 
     /tmp/cccDtYlh.s:1378   .text:000000000000062c .L0 
     /tmp/cccDtYlh.s:1382   .text:0000000000000638 .L0 
     /tmp/cccDtYlh.s:1388   .text:0000000000000640 .L0 
     /tmp/cccDtYlh.s:1392   .text:0000000000000644 .L0 
     /tmp/cccDtYlh.s:1395   .text:000000000000064c .L0 
     /tmp/cccDtYlh.s:1398   .text:0000000000000650 .L0 
     /tmp/cccDtYlh.s:1399   .text:0000000000000650 .L0 
     /tmp/cccDtYlh.s:1401   .text:0000000000000654 .L0 
     /tmp/cccDtYlh.s:1411   .text:0000000000000668 .L0 
     /tmp/cccDtYlh.s:1422   .text:0000000000000684 .L0 
     /tmp/cccDtYlh.s:1433   .text:00000000000006a0 .L0 
     /tmp/cccDtYlh.s:1444   .text:00000000000006bc .L0 
     /tmp/cccDtYlh.s:1454   .text:00000000000006d4 .L0 
     /tmp/cccDtYlh.s:1455   .text:00000000000006d8 .L0 
     /tmp/cccDtYlh.s:1457   .text:00000000000006dc .L0 
     /tmp/cccDtYlh.s:1458   .text:00000000000006dc .L0 
     /tmp/cccDtYlh.s:1460   .text:00000000000006e0 .L0 
     /tmp/cccDtYlh.s:1463   .text:00000000000006e4 .L0 
     /tmp/cccDtYlh.s:1465   .text:00000000000006e8 .L0 
     /tmp/cccDtYlh.s:1467   .text:00000000000006ec .L0 
     /tmp/cccDtYlh.s:1533   .text:00000000000006ec _Z8userMainPv
     /tmp/cccDtYlh.s:1537   .text:00000000000006ec .L0 
     /tmp/cccDtYlh.s:1538   .text:00000000000006ec .L0 
     /tmp/cccDtYlh.s:1539   .text:00000000000006f0 .L0 
     /tmp/cccDtYlh.s:1542   .text:00000000000006f8 .L0 
     /tmp/cccDtYlh.s:1543   .text:00000000000006f8 .L0 
     /tmp/cccDtYlh.s:1545   .text:00000000000006fc .L0 
     /tmp/cccDtYlh.s:1547   .text:00000000000006fc .L0 
     /tmp/cccDtYlh.s:1548   .text:00000000000006fc .L0 
     /tmp/cccDtYlh.s:1551   .text:0000000000000704 .L0 
     /tmp/cccDtYlh.s:1552   .text:0000000000000708 .L0 
     /tmp/cccDtYlh.s:1554   .text:000000000000070c .L0 
     /tmp/cccDtYlh.s:1555   .text:000000000000070c .L0 
     /tmp/cccDtYlh.s:1557   .text:0000000000000710 .L0 
     /tmp/cccDtYlh.s:1559   .text:0000000000000714 .L0 
     /tmp/cccDtYlh.s:1626   .bss:0000000000000003 finishedD
     /tmp/cccDtYlh.s:1622   .bss:0000000000000002 finishedC
     /tmp/cccDtYlh.s:1618   .bss:0000000000000001 finishedB
     /tmp/cccDtYlh.s:1614   .bss:0000000000000000 finishedA
     /tmp/cccDtYlh.s:1611   .bss:0000000000000000 .LANCHOR0
     /tmp/cccDtYlh.s:44     .text._ZN7WorkerAD2Ev:0000000000000034 .L0 
     /tmp/cccDtYlh.s:91     .text._ZN7WorkerAD0Ev:000000000000004c .L0 
     /tmp/cccDtYlh.s:128    .text._ZN7WorkerBD2Ev:0000000000000034 .L0 
     /tmp/cccDtYlh.s:175    .text._ZN7WorkerBD0Ev:000000000000004c .L0 
     /tmp/cccDtYlh.s:212    .text._ZN7WorkerCD2Ev:0000000000000034 .L0 
     /tmp/cccDtYlh.s:259    .text._ZN7WorkerCD0Ev:000000000000004c .L0 
     /tmp/cccDtYlh.s:296    .text._ZN7WorkerDD2Ev:0000000000000034 .L0 
     /tmp/cccDtYlh.s:343    .text._ZN7WorkerDD0Ev:000000000000004c .L0 
     /tmp/cccDtYlh.s:1634   .text:0000000000000714 .L0 
     /tmp/cccDtYlh.s:585    .text._ZN7WorkerA3runEv:000000000000002c .L0 
GAS LISTING /tmp/cccDtYlh.s 			page 47


     /tmp/cccDtYlh.s:756    .text._ZN7WorkerB3runEv:000000000000002c .L0 
     /tmp/cccDtYlh.s:985    .text._ZN7WorkerC3runEv:000000000000002c .L0 
     /tmp/cccDtYlh.s:1188   .text._ZN7WorkerD3runEv:000000000000002c .L0 
     /tmp/cccDtYlh.s:417    .rodata.str1.8:0000000000000000 .LC0
     /tmp/cccDtYlh.s:500    .text:00000000000000d0 .L0 
     /tmp/cccDtYlh.s:420    .rodata.str1.8:0000000000000008 .LC1
     /tmp/cccDtYlh.s:512    .text:00000000000000f4 .L0 
     /tmp/cccDtYlh.s:423    .rodata.str1.8:0000000000000010 .LC2
     /tmp/cccDtYlh.s:527    .text:000000000000010c .L0 
     /tmp/cccDtYlh.s:533    .text:0000000000000120 .L0 
     /tmp/cccDtYlh.s:587    .rodata.str1.8:0000000000000020 .LC3
     /tmp/cccDtYlh.s:667    .text:000000000000019c .L0 
     /tmp/cccDtYlh.s:679    .text:00000000000001c0 .L0 
     /tmp/cccDtYlh.s:590    .rodata.str1.8:0000000000000028 .LC4
     /tmp/cccDtYlh.s:694    .text:00000000000001d8 .L0 
     /tmp/cccDtYlh.s:700    .text:00000000000001ec .L0 
     /tmp/cccDtYlh.s:758    .rodata.str1.8:0000000000000038 .LC5
     /tmp/cccDtYlh.s:799    .text:0000000000000234 .L0 
     /tmp/cccDtYlh.s:811    .text:0000000000000258 .L0 
     /tmp/cccDtYlh.s:761    .rodata.str1.8:0000000000000040 .LC6
     /tmp/cccDtYlh.s:826    .text:0000000000000278 .L0 
     /tmp/cccDtYlh.s:764    .rodata.str1.8:0000000000000050 .LC7
     /tmp/cccDtYlh.s:851    .text:0000000000000298 .L0 
     /tmp/cccDtYlh.s:863    .text:00000000000002bc .L0 
     /tmp/cccDtYlh.s:767    .rodata.str1.8:0000000000000058 .LC8
     /tmp/cccDtYlh.s:875    .text:00000000000002dc .L0 
     /tmp/cccDtYlh.s:888    .text:0000000000000300 .L0 
     /tmp/cccDtYlh.s:895    .text:0000000000000314 .L0 
     /tmp/cccDtYlh.s:907    .text:0000000000000338 .L0 
     /tmp/cccDtYlh.s:922    .text:0000000000000358 .L0 
     /tmp/cccDtYlh.s:928    .text:000000000000036c .L0 
     /tmp/cccDtYlh.s:987    .rodata.str1.8:0000000000000068 .LC9
     /tmp/cccDtYlh.s:1028   .text:00000000000003b4 .L0 
     /tmp/cccDtYlh.s:1040   .text:00000000000003d8 .L0 
     /tmp/cccDtYlh.s:990    .rodata.str1.8:0000000000000070 .LC10
     /tmp/cccDtYlh.s:1055   .text:00000000000003f8 .L0 
     /tmp/cccDtYlh.s:993    .rodata.str1.8:0000000000000080 .LC11
     /tmp/cccDtYlh.s:1078   .text:0000000000000424 .L0 
     /tmp/cccDtYlh.s:1091   .text:0000000000000448 .L0 
     /tmp/cccDtYlh.s:1098   .text:000000000000045c .L0 
     /tmp/cccDtYlh.s:1110   .text:0000000000000480 .L0 
     /tmp/cccDtYlh.s:996    .rodata.str1.8:0000000000000090 .LC12
     /tmp/cccDtYlh.s:1125   .text:00000000000004a0 .L0 
     /tmp/cccDtYlh.s:1131   .text:00000000000004b4 .L0 
     /tmp/cccDtYlh.s:1240   .text:000000000000050c .L0 
     /tmp/cccDtYlh.s:1190   .rodata.str1.8:00000000000000a0 .LC13
     /tmp/cccDtYlh.s:1249   .text:000000000000051c .L0 
     /tmp/cccDtYlh.s:1268   .text:0000000000000544 .L0 
     /tmp/cccDtYlh.s:1193   .rodata.str1.8:00000000000000b8 .LC14
     /tmp/cccDtYlh.s:1277   .text:0000000000000554 .L0 
     /tmp/cccDtYlh.s:1296   .text:000000000000057c .L0 
     /tmp/cccDtYlh.s:1196   .rodata.str1.8:00000000000000d0 .LC15
     /tmp/cccDtYlh.s:1305   .text:000000000000058c .L0 
     /tmp/cccDtYlh.s:1324   .text:00000000000005b4 .L0 
     /tmp/cccDtYlh.s:1199   .rodata.str1.8:00000000000000e8 .LC16
     /tmp/cccDtYlh.s:1333   .text:00000000000005c4 .L0 
     /tmp/cccDtYlh.s:1369   .text:0000000000000608 .L0 
GAS LISTING /tmp/cccDtYlh.s 			page 48


     /tmp/cccDtYlh.s:1372   .text:0000000000000614 .L0 
     /tmp/cccDtYlh.s:1375   .text:0000000000000620 .L0 
     /tmp/cccDtYlh.s:1378   .text:000000000000062c .L0 
     /tmp/cccDtYlh.s:388    .text:0000000000000050 .L17
     /tmp/cccDtYlh.s:405    .text:0000000000000068 .L22
     /tmp/cccDtYlh.s:375    .text:0000000000000030 .L19
     /tmp/cccDtYlh.s:493    .text:00000000000000c8 .L29
     /tmp/cccDtYlh.s:485    .text:00000000000000c4 .L25
     /tmp/cccDtYlh.s:453    .text:0000000000000094 .L26
     /tmp/cccDtYlh.s:474    .text:00000000000000b0 .L27
     /tmp/cccDtYlh.s:521    .text:000000000000010c .L24
     /tmp/cccDtYlh.s:465    .text:00000000000000a0 .L28
     /tmp/cccDtYlh.s:660    .text:0000000000000194 .L39
     /tmp/cccDtYlh.s:652    .text:0000000000000190 .L35
     /tmp/cccDtYlh.s:620    .text:0000000000000160 .L36
     /tmp/cccDtYlh.s:641    .text:000000000000017c .L37
     /tmp/cccDtYlh.s:688    .text:00000000000001d8 .L34
     /tmp/cccDtYlh.s:632    .text:000000000000016c .L38
     /tmp/cccDtYlh.s:819    .text:0000000000000270 .L45
     /tmp/cccDtYlh.s:796    .text:0000000000000234 .L49
     /tmp/cccDtYlh.s:915    .text:0000000000000350 .L47
     /tmp/cccDtYlh.s:892    .text:0000000000000314 .L50
     /tmp/cccDtYlh.s:1048   .text:00000000000003f0 .L55
     /tmp/cccDtYlh.s:1025   .text:00000000000003b4 .L59
     /tmp/cccDtYlh.s:1118   .text:0000000000000498 .L57
     /tmp/cccDtYlh.s:1095   .text:000000000000045c .L60
     /tmp/cccDtYlh.s:1366   .text:0000000000000608 .L64
     /tmp/cccDtYlh.s:1340   .text:00000000000005d8 .L65
     /tmp/cccDtYlh.s:1359   .text:0000000000000600 .L66
     /tmp/cccDtYlh.s:1390   .text:0000000000000644 .L67
     /tmp/cccDtYlh.s:1452   .text:00000000000006d4 .L63
     /tmp/cccDtYlh.s:1386   .text:0000000000000640 .L69
     /tmp/cccDtYlh.s:26     .text._ZN7WorkerAD2Ev:0000000000000010 .L0 
     /tmp/cccDtYlh.s:68     .text._ZN7WorkerAD0Ev:0000000000000018 .L0 
     /tmp/cccDtYlh.s:110    .text._ZN7WorkerBD2Ev:0000000000000010 .L0 
     /tmp/cccDtYlh.s:152    .text._ZN7WorkerBD0Ev:0000000000000018 .L0 
     /tmp/cccDtYlh.s:194    .text._ZN7WorkerCD2Ev:0000000000000010 .L0 
     /tmp/cccDtYlh.s:236    .text._ZN7WorkerCD0Ev:0000000000000018 .L0 
     /tmp/cccDtYlh.s:278    .text._ZN7WorkerDD2Ev:0000000000000010 .L0 
     /tmp/cccDtYlh.s:320    .text._ZN7WorkerDD0Ev:0000000000000018 .L0 
     /tmp/cccDtYlh.s:1227   .text:00000000000004f8 .LEHB0
     /tmp/cccDtYlh.s:1206   .text:00000000000004dc .LFB33
     /tmp/cccDtYlh.s:1230   .text:0000000000000500 .LEHE0
     /tmp/cccDtYlh.s:1233   .text:0000000000000504 .LEHB1
     /tmp/cccDtYlh.s:1239   .text:000000000000050c .LEHE1
     /tmp/cccDtYlh.s:1407   .text:0000000000000664 .L75
     /tmp/cccDtYlh.s:1250   .text:0000000000000524 .LEHB2
     /tmp/cccDtYlh.s:1258   .text:0000000000000538 .LEHE2
     /tmp/cccDtYlh.s:1261   .text:000000000000053c .LEHB3
     /tmp/cccDtYlh.s:1267   .text:0000000000000544 .LEHE3
     /tmp/cccDtYlh.s:1419   .text:0000000000000680 .L76
     /tmp/cccDtYlh.s:1278   .text:000000000000055c .LEHB4
     /tmp/cccDtYlh.s:1286   .text:0000000000000570 .LEHE4
     /tmp/cccDtYlh.s:1289   .text:0000000000000574 .LEHB5
     /tmp/cccDtYlh.s:1295   .text:000000000000057c .LEHE5
     /tmp/cccDtYlh.s:1430   .text:000000000000069c .L77
     /tmp/cccDtYlh.s:1306   .text:0000000000000594 .LEHB6
GAS LISTING /tmp/cccDtYlh.s 			page 49


     /tmp/cccDtYlh.s:1314   .text:00000000000005a8 .LEHE6
     /tmp/cccDtYlh.s:1317   .text:00000000000005ac .LEHB7
     /tmp/cccDtYlh.s:1323   .text:00000000000005b4 .LEHE7
     /tmp/cccDtYlh.s:1441   .text:00000000000006b8 .L78
     /tmp/cccDtYlh.s:1334   .text:00000000000005cc .LEHB8
     /tmp/cccDtYlh.s:1365   .text:0000000000000608 .LEHE8
     /tmp/cccDtYlh.s:1415   .text:0000000000000678 .LEHB9
     /tmp/cccDtYlh.s:1418   .text:0000000000000680 .LEHE9
     /tmp/cccDtYlh.s:1426   .text:0000000000000694 .LEHB10
     /tmp/cccDtYlh.s:1429   .text:000000000000069c .LEHE10
     /tmp/cccDtYlh.s:1437   .text:00000000000006b0 .LEHB11
     /tmp/cccDtYlh.s:1440   .text:00000000000006b8 .LEHE11
     /tmp/cccDtYlh.s:1448   .text:00000000000006cc .LEHB12
     /tmp/cccDtYlh.s:1451   .text:00000000000006d4 .LEHE12
     /tmp/cccDtYlh.s:3853   .debug_abbrev:0000000000000000 .Ldebug_abbrev0
     /tmp/cccDtYlh.s:5478   .debug_str:00000000000004dc .LASF96
     /tmp/cccDtYlh.s:5412   .debug_str:00000000000002ec .LASF97
     /tmp/cccDtYlh.s:5514   .debug_str:0000000000000691 .LASF98
     /tmp/cccDtYlh.s:5266   .debug_ranges:0000000000000000 .Ldebug_ranges0
     /tmp/cccDtYlh.s:5308   .debug_line:0000000000000000 .Ldebug_line0
     /tmp/cccDtYlh.s:5426   .debug_str:0000000000000364 .LASF0
     /tmp/cccDtYlh.s:5434   .debug_str:0000000000000394 .LASF1
     /tmp/cccDtYlh.s:5416   .debug_str:000000000000030f .LASF2
     /tmp/cccDtYlh.s:5354   .debug_str:000000000000013d .LASF3
     /tmp/cccDtYlh.s:5392   .debug_str:000000000000025c .LASF4
     /tmp/cccDtYlh.s:5468   .debug_str:0000000000000493 .LASF5
     /tmp/cccDtYlh.s:5330   .debug_str:000000000000009f .LASF6
     /tmp/cccDtYlh.s:5438   .debug_str:00000000000003b6 .LASF7
     /tmp/cccDtYlh.s:5424   .debug_str:0000000000000351 .LASF8
     /tmp/cccDtYlh.s:5488   .debug_str:00000000000005d4 .LASF9
     /tmp/cccDtYlh.s:5374   .debug_str:00000000000001e5 .LASF10
     /tmp/cccDtYlh.s:5450   .debug_str:0000000000000413 .LASF11
     /tmp/cccDtYlh.s:5482   .debug_str:00000000000005b0 .LASF12
     /tmp/cccDtYlh.s:5332   .debug_str:00000000000000a6 .LASF13
     /tmp/cccDtYlh.s:5318   .debug_str:000000000000003b .LASF14
     /tmp/cccDtYlh.s:5344   .debug_str:00000000000000e3 .LASF15
     /tmp/cccDtYlh.s:5462   .debug_str:0000000000000461 .LASF16
     /tmp/cccDtYlh.s:5352   .debug_str:0000000000000127 .LASF17
     /tmp/cccDtYlh.s:5388   .debug_str:0000000000000248 .LASF18
     /tmp/cccDtYlh.s:5364   .debug_str:0000000000000188 .LASF19
     /tmp/cccDtYlh.s:5390   .debug_str:0000000000000252 .LASF20
     /tmp/cccDtYlh.s:5320   .debug_str:000000000000004b .LASF21
     /tmp/cccDtYlh.s:5394   .debug_str:0000000000000263 .LASF22
     /tmp/cccDtYlh.s:5452   .debug_str:0000000000000422 .LASF23
     /tmp/cccDtYlh.s:5420   .debug_str:000000000000032d .LASF24
     /tmp/cccDtYlh.s:5384   .debug_str:000000000000022b .LASF25
     /tmp/cccDtYlh.s:5430   .debug_str:0000000000000381 .LASF26
     /tmp/cccDtYlh.s:5322   .debug_str:0000000000000055 .LASF38
     /tmp/cccDtYlh.s:5356   .debug_str:0000000000000143 .LASF40
     /tmp/cccDtYlh.s:5324   .debug_str:0000000000000071 .LASF42
     /tmp/cccDtYlh.s:5340   .debug_str:00000000000000d1 .LASF27
     /tmp/cccDtYlh.s:5418   .debug_str:000000000000031d .LASF45
     /tmp/cccDtYlh.s:5484   .debug_str:00000000000005bf .LASF99
     /tmp/cccDtYlh.s:5372   .debug_str:00000000000001d2 .LASF28
     /tmp/cccDtYlh.s:5380   .debug_str:0000000000000216 .LASF30
     /tmp/cccDtYlh.s:5456   .debug_str:000000000000043d .LASF29
     /tmp/cccDtYlh.s:5500   .debug_str:0000000000000620 .LASF31
GAS LISTING /tmp/cccDtYlh.s 			page 50


     /tmp/cccDtYlh.s:5368   .debug_str:00000000000001a2 .LASF32
     /tmp/cccDtYlh.s:5506   .debug_str:0000000000000649 .LASF33
     /tmp/cccDtYlh.s:5496   .debug_str:0000000000000608 .LASF34
     /tmp/cccDtYlh.s:5414   .debug_str:00000000000002fd .LASF35
     /tmp/cccDtYlh.s:5316   .debug_str:0000000000000028 .LASF36
     /tmp/cccDtYlh.s:5326   .debug_str:0000000000000083 .LASF37
     /tmp/cccDtYlh.s:5360   .debug_str:000000000000015c .LASF39
     /tmp/cccDtYlh.s:5498   .debug_str:0000000000000610 .LASF41
     /tmp/cccDtYlh.s:5422   .debug_str:000000000000033f .LASF43
     /tmp/cccDtYlh.s:5338   .debug_str:00000000000000c8 .LASF44
     /tmp/cccDtYlh.s:5346   .debug_str:00000000000000ef .LASF46
     /tmp/cccDtYlh.s:5448   .debug_str:000000000000040b .LASF47
     /tmp/cccDtYlh.s:5404   .debug_str:00000000000002a3 .LASF48
     /tmp/cccDtYlh.s:5454   .debug_str:000000000000042a .LASF49
     /tmp/cccDtYlh.s:5314   .debug_str:000000000000001c .LASF50
     /tmp/cccDtYlh.s:5512   .debug_str:0000000000000675 .LASF51
     /tmp/cccDtYlh.s:5428   .debug_str:0000000000000371 .LASF52
     /tmp/cccDtYlh.s:5516   .debug_str:00000000000006ae .LASF53
     /tmp/cccDtYlh.s:5336   .debug_str:00000000000000bf .LASF54
     /tmp/cccDtYlh.s:5476   .debug_str:00000000000004cc .LASF55
     /tmp/cccDtYlh.s:5446   .debug_str:0000000000000403 .LASF56
     /tmp/cccDtYlh.s:5494   .debug_str:00000000000005f6 .LASF57
     /tmp/cccDtYlh.s:5378   .debug_str:0000000000000203 .LASF58
     /tmp/cccDtYlh.s:5312   .debug_str:0000000000000010 .LASF59
     /tmp/cccDtYlh.s:5444   .debug_str:00000000000003e7 .LASF60
     /tmp/cccDtYlh.s:5480   .debug_str:00000000000005a0 .LASF61
     /tmp/cccDtYlh.s:5406   .debug_str:00000000000002b5 .LASF62
     /tmp/cccDtYlh.s:5334   .debug_str:00000000000000b6 .LASF63
     /tmp/cccDtYlh.s:5410   .debug_str:00000000000002dc .LASF64
     /tmp/cccDtYlh.s:5458   .debug_str:000000000000044c .LASF65
     /tmp/cccDtYlh.s:5386   .debug_str:000000000000023e .LASF66
     /tmp/cccDtYlh.s:5502   .debug_str:000000000000062d .LASF67
     /tmp/cccDtYlh.s:49     .text._ZN7WorkerAD0Ev:0000000000000000 .LFB50
     /tmp/cccDtYlh.s:89     .text._ZN7WorkerAD0Ev:000000000000004c .LFE50
     /tmp/cccDtYlh.s:4654   .debug_loc:0000000000000000 .LLST1
     /tmp/cccDtYlh.s:65     .text._ZN7WorkerAD0Ev:0000000000000018 .LBB29
     /tmp/cccDtYlh.s:73     .text._ZN7WorkerAD0Ev:000000000000002c .LBE29
     /tmp/cccDtYlh.s:4672   .debug_loc:000000000000004c .LLST2
     /tmp/cccDtYlh.s:71     .text._ZN7WorkerAD0Ev:000000000000002c .LVL4
     /tmp/cccDtYlh.s:76     .text._ZN7WorkerAD0Ev:0000000000000038 .LVL5
     /tmp/cccDtYlh.s:5460   .debug_str:0000000000000451 .LASF68
     /tmp/cccDtYlh.s:11     .text._ZN7WorkerAD2Ev:0000000000000000 .LFB48
     /tmp/cccDtYlh.s:40     .text._ZN7WorkerAD2Ev:0000000000000034 .LFE48
     /tmp/cccDtYlh.s:4683   .debug_loc:0000000000000082 .LLST0
     /tmp/cccDtYlh.s:29     .text._ZN7WorkerAD2Ev:0000000000000024 .LVL1
     /tmp/cccDtYlh.s:5362   .debug_str:0000000000000178 .LASF69
     /tmp/cccDtYlh.s:133    .text._ZN7WorkerBD0Ev:0000000000000000 .LFB46
     /tmp/cccDtYlh.s:173    .text._ZN7WorkerBD0Ev:000000000000004c .LFE46
     /tmp/cccDtYlh.s:4697   .debug_loc:00000000000000bb .LLST4
     /tmp/cccDtYlh.s:149    .text._ZN7WorkerBD0Ev:0000000000000018 .LBB32
     /tmp/cccDtYlh.s:157    .text._ZN7WorkerBD0Ev:000000000000002c .LBE32
     /tmp/cccDtYlh.s:4715   .debug_loc:0000000000000107 .LLST5
     /tmp/cccDtYlh.s:155    .text._ZN7WorkerBD0Ev:000000000000002c .LVL11
     /tmp/cccDtYlh.s:160    .text._ZN7WorkerBD0Ev:0000000000000038 .LVL12
     /tmp/cccDtYlh.s:5376   .debug_str:00000000000001f3 .LASF70
     /tmp/cccDtYlh.s:96     .text._ZN7WorkerBD2Ev:0000000000000000 .LFB44
     /tmp/cccDtYlh.s:124    .text._ZN7WorkerBD2Ev:0000000000000034 .LFE44
GAS LISTING /tmp/cccDtYlh.s 			page 51


     /tmp/cccDtYlh.s:4726   .debug_loc:000000000000013d .LLST3
     /tmp/cccDtYlh.s:113    .text._ZN7WorkerBD2Ev:0000000000000024 .LVL8
     /tmp/cccDtYlh.s:5400   .debug_str:0000000000000289 .LASF71
     /tmp/cccDtYlh.s:217    .text._ZN7WorkerCD0Ev:0000000000000000 .LFB42
     /tmp/cccDtYlh.s:257    .text._ZN7WorkerCD0Ev:000000000000004c .LFE42
     /tmp/cccDtYlh.s:4740   .debug_loc:0000000000000176 .LLST7
     /tmp/cccDtYlh.s:233    .text._ZN7WorkerCD0Ev:0000000000000018 .LBB35
     /tmp/cccDtYlh.s:241    .text._ZN7WorkerCD0Ev:000000000000002c .LBE35
     /tmp/cccDtYlh.s:4758   .debug_loc:00000000000001c2 .LLST8
     /tmp/cccDtYlh.s:239    .text._ZN7WorkerCD0Ev:000000000000002c .LVL18
     /tmp/cccDtYlh.s:244    .text._ZN7WorkerCD0Ev:0000000000000038 .LVL19
     /tmp/cccDtYlh.s:5396   .debug_str:000000000000026d .LASF72
     /tmp/cccDtYlh.s:180    .text._ZN7WorkerCD2Ev:0000000000000000 .LFB40
     /tmp/cccDtYlh.s:208    .text._ZN7WorkerCD2Ev:0000000000000034 .LFE40
     /tmp/cccDtYlh.s:4769   .debug_loc:00000000000001f8 .LLST6
     /tmp/cccDtYlh.s:197    .text._ZN7WorkerCD2Ev:0000000000000024 .LVL15
     /tmp/cccDtYlh.s:5510   .debug_str:0000000000000665 .LASF73
     /tmp/cccDtYlh.s:301    .text._ZN7WorkerDD0Ev:0000000000000000 .LFB38
     /tmp/cccDtYlh.s:341    .text._ZN7WorkerDD0Ev:000000000000004c .LFE38
     /tmp/cccDtYlh.s:4783   .debug_loc:0000000000000231 .LLST10
     /tmp/cccDtYlh.s:317    .text._ZN7WorkerDD0Ev:0000000000000018 .LBB38
     /tmp/cccDtYlh.s:325    .text._ZN7WorkerDD0Ev:000000000000002c .LBE38
     /tmp/cccDtYlh.s:4801   .debug_loc:000000000000027d .LLST11
     /tmp/cccDtYlh.s:323    .text._ZN7WorkerDD0Ev:000000000000002c .LVL25
     /tmp/cccDtYlh.s:328    .text._ZN7WorkerDD0Ev:0000000000000038 .LVL26
     /tmp/cccDtYlh.s:5466   .debug_str:0000000000000483 .LASF74
     /tmp/cccDtYlh.s:264    .text._ZN7WorkerDD2Ev:0000000000000000 .LFB36
     /tmp/cccDtYlh.s:292    .text._ZN7WorkerDD2Ev:0000000000000034 .LFE36
     /tmp/cccDtYlh.s:4812   .debug_loc:00000000000002b3 .LLST9
     /tmp/cccDtYlh.s:281    .text._ZN7WorkerDD2Ev:0000000000000024 .LVL22
     /tmp/cccDtYlh.s:5358   .debug_str:0000000000000153 .LASF75
     /tmp/cccDtYlh.s:5440   .debug_str:00000000000003c9 .LASF77
     /tmp/cccDtYlh.s:1534   .text:00000000000006ec .LFB34
     /tmp/cccDtYlh.s:1560   .text:0000000000000714 .LFE34
     /tmp/cccDtYlh.s:1549   .text:0000000000000704 .LVL168
     /tmp/cccDtYlh.s:5408   .debug_str:00000000000002c7 .LASF76
     /tmp/cccDtYlh.s:5370   .debug_str:00000000000001b8 .LASF78
     /tmp/cccDtYlh.s:1468   .text:00000000000006ec .LFE33
     /tmp/cccDtYlh.s:5492   .debug_str:00000000000005ee .LASF79
     /tmp/cccDtYlh.s:1337   .text:00000000000005d4 .LBB64
     /tmp/cccDtYlh.s:1360   .text:0000000000000600 .LBE64
     /tmp/cccDtYlh.s:4826   .debug_loc:00000000000002ec .LLST40
     /tmp/cccDtYlh.s:1353   .text:00000000000005f8 .LVL149
     /tmp/cccDtYlh.s:1380   .text:0000000000000638 .LBB65
     /tmp/cccDtYlh.s:1409   .text:0000000000000668 .LBE65
     /tmp/cccDtYlh.s:5432   .debug_str:000000000000038d .LASF80
     /tmp/cccDtYlh.s:4837   .debug_loc:0000000000000322 .LLST41
     /tmp/cccDtYlh.s:5504   .debug_str:000000000000063d .LASF81
     /tmp/cccDtYlh.s:5464   .debug_str:0000000000000477 .LASF100
     /tmp/cccDtYlh.s:4844   .debug_loc:0000000000000345 .LLST42
     /tmp/cccDtYlh.s:5402   .debug_str:0000000000000299 .LASF82
     /tmp/cccDtYlh.s:1234   .text:0000000000000504 .LBB56
     /tmp/cccDtYlh.s:1244   .text:0000000000000518 .LBE56
     /tmp/cccDtYlh.s:4855   .debug_loc:000000000000037b .LLST36
     /tmp/cccDtYlh.s:1238   .text:000000000000050c .LVL130
     /tmp/cccDtYlh.s:1262   .text:000000000000053c .LBB58
     /tmp/cccDtYlh.s:1272   .text:0000000000000550 .LBE58
GAS LISTING /tmp/cccDtYlh.s 			page 52


     /tmp/cccDtYlh.s:4866   .debug_loc:00000000000003b1 .LLST37
     /tmp/cccDtYlh.s:1266   .text:0000000000000544 .LVL135
     /tmp/cccDtYlh.s:1290   .text:0000000000000574 .LBB60
     /tmp/cccDtYlh.s:1300   .text:0000000000000588 .LBE60
     /tmp/cccDtYlh.s:4877   .debug_loc:00000000000003e7 .LLST38
     /tmp/cccDtYlh.s:1294   .text:000000000000057c .LVL140
     /tmp/cccDtYlh.s:1318   .text:00000000000005ac .LBB62
     /tmp/cccDtYlh.s:1328   .text:00000000000005c0 .LBE62
     /tmp/cccDtYlh.s:4888   .debug_loc:000000000000041d .LLST39
     /tmp/cccDtYlh.s:1322   .text:00000000000005b4 .LVL145
     /tmp/cccDtYlh.s:1229   .text:0000000000000500 .LVL128
     /tmp/cccDtYlh.s:1252   .text:000000000000052c .LVL132
     /tmp/cccDtYlh.s:1257   .text:0000000000000538 .LVL133
     /tmp/cccDtYlh.s:1280   .text:0000000000000564 .LVL137
     /tmp/cccDtYlh.s:1285   .text:0000000000000570 .LVL138
     /tmp/cccDtYlh.s:1308   .text:000000000000059c .LVL142
     /tmp/cccDtYlh.s:1313   .text:00000000000005a8 .LVL143
     /tmp/cccDtYlh.s:1336   .text:00000000000005d4 .LVL147
     /tmp/cccDtYlh.s:1364   .text:0000000000000608 .LVL152
     /tmp/cccDtYlh.s:1413   .text:0000000000000674 .LVL159
     /tmp/cccDtYlh.s:1417   .text:0000000000000680 .LVL160
     /tmp/cccDtYlh.s:1424   .text:0000000000000690 .LVL161
     /tmp/cccDtYlh.s:1428   .text:000000000000069c .LVL162
     /tmp/cccDtYlh.s:1435   .text:00000000000006ac .LVL163
     /tmp/cccDtYlh.s:1439   .text:00000000000006b8 .LVL164
     /tmp/cccDtYlh.s:1446   .text:00000000000006c8 .LVL165
     /tmp/cccDtYlh.s:1450   .text:00000000000006d4 .LVL166
     /tmp/cccDtYlh.s:1003   .text:0000000000000394 .LFB32
     /tmp/cccDtYlh.s:1152   .text:00000000000004dc .LFE32
     /tmp/cccDtYlh.s:4899   .debug_loc:0000000000000453 .LLST31
     /tmp/cccDtYlh.s:4913   .debug_loc:000000000000048c .LLST32
     /tmp/cccDtYlh.s:4927   .debug_loc:00000000000004c5 .LLST33
     /tmp/cccDtYlh.s:5470   .debug_str:00000000000004a5 .LASF83
     /tmp/cccDtYlh.s:4947   .debug_loc:0000000000000522 .LLST34
     /tmp/cccDtYlh.s:1030   .text:00000000000003c4 .LVL104
     /tmp/cccDtYlh.s:1037   .text:00000000000003d8 .LVL105
     /tmp/cccDtYlh.s:1042   .text:00000000000003e8 .LVL106
     /tmp/cccDtYlh.s:1057   .text:0000000000000408 .LVL109
     /tmp/cccDtYlh.s:1068   .text:0000000000000414 .LVL110
     /tmp/cccDtYlh.s:1073   .text:0000000000000420 .LVL111
     /tmp/cccDtYlh.s:1081   .text:0000000000000434 .LVL114
     /tmp/cccDtYlh.s:1088   .text:0000000000000448 .LVL115
     /tmp/cccDtYlh.s:1093   .text:0000000000000458 .LVL116
     /tmp/cccDtYlh.s:1100   .text:000000000000046c .LVL117
     /tmp/cccDtYlh.s:1107   .text:0000000000000480 .LVL118
     /tmp/cccDtYlh.s:1112   .text:0000000000000490 .LVL119
     /tmp/cccDtYlh.s:1127   .text:00000000000004b0 .LVL122
     /tmp/cccDtYlh.s:1135   .text:00000000000004c4 .LVL123
     /tmp/cccDtYlh.s:774    .text:0000000000000214 .LFB31
     /tmp/cccDtYlh.s:949    .text:0000000000000394 .LFE31
     /tmp/cccDtYlh.s:4958   .debug_loc:0000000000000558 .LLST25
     /tmp/cccDtYlh.s:4972   .debug_loc:0000000000000591 .LLST26
     /tmp/cccDtYlh.s:4986   .debug_loc:00000000000005ca .LLST27
     /tmp/cccDtYlh.s:5006   .debug_loc:0000000000000627 .LLST28
     /tmp/cccDtYlh.s:5014   .debug_loc:000000000000064b .LLST29
     /tmp/cccDtYlh.s:801    .text:0000000000000244 .LVL73
     /tmp/cccDtYlh.s:808    .text:0000000000000258 .LVL74
GAS LISTING /tmp/cccDtYlh.s 			page 53


     /tmp/cccDtYlh.s:813    .text:0000000000000268 .LVL75
     /tmp/cccDtYlh.s:828    .text:0000000000000288 .LVL78
     /tmp/cccDtYlh.s:839    .text:0000000000000294 .LVL79
     /tmp/cccDtYlh.s:853    .text:00000000000002a8 .LVL81
     /tmp/cccDtYlh.s:860    .text:00000000000002bc .LVL82
     /tmp/cccDtYlh.s:865    .text:00000000000002cc .LVL83
     /tmp/cccDtYlh.s:870    .text:00000000000002d8 .LVL84
     /tmp/cccDtYlh.s:878    .text:00000000000002ec .LVL87
     /tmp/cccDtYlh.s:885    .text:0000000000000300 .LVL88
     /tmp/cccDtYlh.s:890    .text:0000000000000310 .LVL89
     /tmp/cccDtYlh.s:897    .text:0000000000000324 .LVL90
     /tmp/cccDtYlh.s:904    .text:0000000000000338 .LVL91
     /tmp/cccDtYlh.s:909    .text:0000000000000348 .LVL92
     /tmp/cccDtYlh.s:924    .text:0000000000000368 .LVL95
     /tmp/cccDtYlh.s:932    .text:000000000000037c .LVL96
     /tmp/cccDtYlh.s:597    .text:0000000000000140 .LFB30
     /tmp/cccDtYlh.s:720    .text:0000000000000214 .LFE30
     /tmp/cccDtYlh.s:5025   .debug_loc:0000000000000681 .LLST19
     /tmp/cccDtYlh.s:5039   .debug_loc:00000000000006ba .LLST20
     /tmp/cccDtYlh.s:615    .text:0000000000000158 .LBB48
     /tmp/cccDtYlh.s:691    .text:00000000000001d8 .LBE48
     /tmp/cccDtYlh.s:5053   .debug_loc:00000000000006f3 .LLST21
     /tmp/cccDtYlh.s:5065   .debug_loc:000000000000072a .LLST22
     /tmp/cccDtYlh.s:638    .text:0000000000000178 .LBB52
     /tmp/cccDtYlh.s:653    .text:0000000000000190 .LBE52
     /tmp/cccDtYlh.s:5077   .debug_loc:0000000000000761 .LLST23
     /tmp/cccDtYlh.s:627    .text:0000000000000168 .LVL55
     /tmp/cccDtYlh.s:669    .text:00000000000001ac .LVL61
     /tmp/cccDtYlh.s:676    .text:00000000000001c0 .LVL62
     /tmp/cccDtYlh.s:681    .text:00000000000001d0 .LVL63
     /tmp/cccDtYlh.s:696    .text:00000000000001e8 .LVL65
     /tmp/cccDtYlh.s:704    .text:00000000000001fc .LVL66
     /tmp/cccDtYlh.s:430    .text:0000000000000074 .LFB29
     /tmp/cccDtYlh.s:549    .text:0000000000000140 .LFE29
     /tmp/cccDtYlh.s:5088   .debug_loc:0000000000000797 .LLST13
     /tmp/cccDtYlh.s:5102   .debug_loc:00000000000007d0 .LLST14
     /tmp/cccDtYlh.s:448    .text:000000000000008c .LBB40
     /tmp/cccDtYlh.s:524    .text:000000000000010c .LBE40
     /tmp/cccDtYlh.s:5116   .debug_loc:0000000000000809 .LLST15
     /tmp/cccDtYlh.s:5128   .debug_loc:0000000000000840 .LLST16
     /tmp/cccDtYlh.s:471    .text:00000000000000ac .LBB44
     /tmp/cccDtYlh.s:486    .text:00000000000000c4 .LBE44
     /tmp/cccDtYlh.s:5140   .debug_loc:0000000000000877 .LLST17
     /tmp/cccDtYlh.s:460    .text:000000000000009c .LVL38
     /tmp/cccDtYlh.s:502    .text:00000000000000e0 .LVL44
     /tmp/cccDtYlh.s:509    .text:00000000000000f4 .LVL45
     /tmp/cccDtYlh.s:514    .text:0000000000000104 .LVL46
     /tmp/cccDtYlh.s:529    .text:000000000000011c .LVL48
     /tmp/cccDtYlh.s:1159   .text._ZN7WorkerD3runEv:0000000000000000 .LFB28
     /tmp/cccDtYlh.s:1186   .text._ZN7WorkerD3runEv:000000000000002c .LFE28
     /tmp/cccDtYlh.s:5151   .debug_loc:00000000000008ad .LLST35
     /tmp/cccDtYlh.s:1175   .text._ZN7WorkerD3runEv:000000000000001c .LVL127
     /tmp/cccDtYlh.s:5442   .debug_str:00000000000003d7 .LASF84
     /tmp/cccDtYlh.s:956    .text._ZN7WorkerC3runEv:0000000000000000 .LFB24
     /tmp/cccDtYlh.s:983    .text._ZN7WorkerC3runEv:000000000000002c .LFE24
     /tmp/cccDtYlh.s:5165   .debug_loc:00000000000008e6 .LLST30
     /tmp/cccDtYlh.s:972    .text._ZN7WorkerC3runEv:000000000000001c .LVL100
GAS LISTING /tmp/cccDtYlh.s 			page 54


     /tmp/cccDtYlh.s:5328   .debug_str:000000000000008f .LASF85
     /tmp/cccDtYlh.s:727    .text._ZN7WorkerB3runEv:0000000000000000 .LFB20
     /tmp/cccDtYlh.s:754    .text._ZN7WorkerB3runEv:000000000000002c .LFE20
     /tmp/cccDtYlh.s:5179   .debug_loc:000000000000091f .LLST24
     /tmp/cccDtYlh.s:743    .text._ZN7WorkerB3runEv:000000000000001c .LVL69
     /tmp/cccDtYlh.s:5474   .debug_str:00000000000004bc .LASF86
     /tmp/cccDtYlh.s:556    .text._ZN7WorkerA3runEv:0000000000000000 .LFB16
     /tmp/cccDtYlh.s:583    .text._ZN7WorkerA3runEv:000000000000002c .LFE16
     /tmp/cccDtYlh.s:5193   .debug_loc:0000000000000958 .LLST18
     /tmp/cccDtYlh.s:572    .text._ZN7WorkerA3runEv:000000000000001c .LVL51
     /tmp/cccDtYlh.s:5310   .debug_str:0000000000000000 .LASF87
     /tmp/cccDtYlh.s:5490   .debug_str:00000000000005e4 .LASF101
     /tmp/cccDtYlh.s:5486   .debug_str:00000000000005c6 .LASF102
     /tmp/cccDtYlh.s:348    .text:0000000000000000 .LFB12
     /tmp/cccDtYlh.s:413    .text:0000000000000074 .LFE12
     /tmp/cccDtYlh.s:5207   .debug_loc:0000000000000991 .LLST12
     /tmp/cccDtYlh.s:380    .text:000000000000003c .LVL30
     /tmp/cccDtYlh.s:385    .text:000000000000004c .LVL31
     /tmp/cccDtYlh.s:410    .text:0000000000000070 .LVL34
     /tmp/cccDtYlh.s:5518   .debug_str:00000000000006c0 .LASF88
     /tmp/cccDtYlh.s:5472   .debug_str:00000000000004ac .LASF89
     /tmp/cccDtYlh.s:5508   .debug_str:0000000000000652 .LASF90
     /tmp/cccDtYlh.s:5398   .debug_str:000000000000027d .LASF91
     /tmp/cccDtYlh.s:5382   .debug_str:000000000000021c .LASF103
     /tmp/cccDtYlh.s:5350   .debug_str:000000000000010f .LASF104
     /tmp/cccDtYlh.s:5436   .debug_str:00000000000003a7 .LASF92
     /tmp/cccDtYlh.s:5342   .debug_str:00000000000000da .LASF93
     /tmp/cccDtYlh.s:5366   .debug_str:000000000000018d .LASF94
     /tmp/cccDtYlh.s:5348   .debug_str:00000000000000ff .LASF95
     /tmp/cccDtYlh.s:52     .text._ZN7WorkerAD0Ev:0000000000000000 .LVL2
     /tmp/cccDtYlh.s:84     .text._ZN7WorkerAD0Ev:0000000000000044 .LVL6
     /tmp/cccDtYlh.s:64     .text._ZN7WorkerAD0Ev:0000000000000018 .LVL3
     /tmp/cccDtYlh.s:15     .text._ZN7WorkerAD2Ev:0000000000000000 .LVL0
     /tmp/cccDtYlh.s:136    .text._ZN7WorkerBD0Ev:0000000000000000 .LVL9
     /tmp/cccDtYlh.s:168    .text._ZN7WorkerBD0Ev:0000000000000044 .LVL13
     /tmp/cccDtYlh.s:148    .text._ZN7WorkerBD0Ev:0000000000000018 .LVL10
     /tmp/cccDtYlh.s:99     .text._ZN7WorkerBD2Ev:0000000000000000 .LVL7
     /tmp/cccDtYlh.s:220    .text._ZN7WorkerCD0Ev:0000000000000000 .LVL16
     /tmp/cccDtYlh.s:252    .text._ZN7WorkerCD0Ev:0000000000000044 .LVL20
     /tmp/cccDtYlh.s:232    .text._ZN7WorkerCD0Ev:0000000000000018 .LVL17
     /tmp/cccDtYlh.s:183    .text._ZN7WorkerCD2Ev:0000000000000000 .LVL14
     /tmp/cccDtYlh.s:304    .text._ZN7WorkerDD0Ev:0000000000000000 .LVL23
     /tmp/cccDtYlh.s:336    .text._ZN7WorkerDD0Ev:0000000000000044 .LVL27
     /tmp/cccDtYlh.s:316    .text._ZN7WorkerDD0Ev:0000000000000018 .LVL24
     /tmp/cccDtYlh.s:267    .text._ZN7WorkerDD2Ev:0000000000000000 .LVL21
     /tmp/cccDtYlh.s:1341   .text:00000000000005d8 .LVL148
     /tmp/cccDtYlh.s:1356   .text:00000000000005fc .LVL150
     /tmp/cccDtYlh.s:1358   .text:0000000000000600 .LVL151
     /tmp/cccDtYlh.s:1383   .text:000000000000063c .LVL153
     /tmp/cccDtYlh.s:1396   .text:0000000000000650 .LVL156
     /tmp/cccDtYlh.s:1404   .text:0000000000000660 .LVL157
     /tmp/cccDtYlh.s:1385   .text:0000000000000640 .LVL154
     /tmp/cccDtYlh.s:1406   .text:0000000000000664 .LVL158
     /tmp/cccDtYlh.s:1461   .text:00000000000006e0 .LVL167
     /tmp/cccDtYlh.s:1232   .text:0000000000000504 .LVL129
     /tmp/cccDtYlh.s:1242   .text:0000000000000518 .LVL131
     /tmp/cccDtYlh.s:1260   .text:000000000000053c .LVL134
GAS LISTING /tmp/cccDtYlh.s 			page 55


     /tmp/cccDtYlh.s:1270   .text:0000000000000550 .LVL136
     /tmp/cccDtYlh.s:1288   .text:0000000000000574 .LVL139
     /tmp/cccDtYlh.s:1298   .text:0000000000000588 .LVL141
     /tmp/cccDtYlh.s:1316   .text:00000000000005ac .LVL144
     /tmp/cccDtYlh.s:1326   .text:00000000000005c0 .LVL146
     /tmp/cccDtYlh.s:1006   .text:0000000000000394 .LVL101
     /tmp/cccDtYlh.s:1024   .text:00000000000003b4 .LVL103
     /tmp/cccDtYlh.s:1020   .text:00000000000003ac .LVL102
     /tmp/cccDtYlh.s:1045   .text:00000000000003ec .LVL107
     /tmp/cccDtYlh.s:1047   .text:00000000000003f0 .LVL108
     /tmp/cccDtYlh.s:1115   .text:0000000000000494 .LVL120
     /tmp/cccDtYlh.s:1117   .text:0000000000000498 .LVL121
     /tmp/cccDtYlh.s:1144   .text:00000000000004d0 .LVL124
     /tmp/cccDtYlh.s:1075   .text:0000000000000424 .LVL112
     /tmp/cccDtYlh.s:1079   .text:000000000000042c .LVL113
     /tmp/cccDtYlh.s:1147   .text:00000000000004d4 .LVL125
     /tmp/cccDtYlh.s:777    .text:0000000000000214 .LVL70
     /tmp/cccDtYlh.s:795    .text:0000000000000234 .LVL72
     /tmp/cccDtYlh.s:791    .text:000000000000022c .LVL71
     /tmp/cccDtYlh.s:816    .text:000000000000026c .LVL76
     /tmp/cccDtYlh.s:818    .text:0000000000000270 .LVL77
     /tmp/cccDtYlh.s:912    .text:000000000000034c .LVL93
     /tmp/cccDtYlh.s:914    .text:0000000000000350 .LVL94
     /tmp/cccDtYlh.s:941    .text:0000000000000388 .LVL97
     /tmp/cccDtYlh.s:847    .text:0000000000000298 .LVL80
     /tmp/cccDtYlh.s:872    .text:00000000000002dc .LVL85
     /tmp/cccDtYlh.s:876    .text:00000000000002e4 .LVL86
     /tmp/cccDtYlh.s:944    .text:000000000000038c .LVL98
     /tmp/cccDtYlh.s:600    .text:0000000000000140 .LVL52
     /tmp/cccDtYlh.s:619    .text:0000000000000160 .LVL54
     /tmp/cccDtYlh.s:614    .text:0000000000000158 .LVL53
     /tmp/cccDtYlh.s:715    .text:000000000000020c .LVL67
     /tmp/cccDtYlh.s:659    .text:0000000000000194 .LVL60
     /tmp/cccDtYlh.s:687    .text:00000000000001d8 .LVL64
     /tmp/cccDtYlh.s:642    .text:000000000000017c .LVL57
     /tmp/cccDtYlh.s:651    .text:0000000000000190 .LVL59
     /tmp/cccDtYlh.s:433    .text:0000000000000074 .LVL35
     /tmp/cccDtYlh.s:452    .text:0000000000000094 .LVL37
     /tmp/cccDtYlh.s:447    .text:000000000000008c .LVL36
     /tmp/cccDtYlh.s:544    .text:0000000000000138 .LVL49
     /tmp/cccDtYlh.s:492    .text:00000000000000c8 .LVL43
     /tmp/cccDtYlh.s:520    .text:000000000000010c .LVL47
     /tmp/cccDtYlh.s:475    .text:00000000000000b0 .LVL40
     /tmp/cccDtYlh.s:484    .text:00000000000000c4 .LVL42
     /tmp/cccDtYlh.s:1162   .text._ZN7WorkerD3runEv:0000000000000000 .LVL126
     /tmp/cccDtYlh.s:959    .text._ZN7WorkerC3runEv:0000000000000000 .LVL99
     /tmp/cccDtYlh.s:730    .text._ZN7WorkerB3runEv:0000000000000000 .LVL68
     /tmp/cccDtYlh.s:559    .text._ZN7WorkerA3runEv:0000000000000000 .LVL50
     /tmp/cccDtYlh.s:351    .text:0000000000000000 .LVL28
     /tmp/cccDtYlh.s:374    .text:0000000000000030 .LVL29
     /tmp/cccDtYlh.s:398    .text:000000000000005c .LVL32
     /tmp/cccDtYlh.s:404    .text:0000000000000068 .LVL33
     /tmp/cccDtYlh.s:1635   .debug_info:0000000000000000 .Ldebug_info0
     /tmp/cccDtYlh.s:5      .text:0000000000000000 .Ltext0
     /tmp/cccDtYlh.s:1629   .text:0000000000000714 .Letext0
     /tmp/cccDtYlh.s:455    .text:0000000000000094 .LBB42
     /tmp/cccDtYlh.s:488    .text:00000000000000c4 .LBE42
GAS LISTING /tmp/cccDtYlh.s 			page 56


     /tmp/cccDtYlh.s:516    .text:0000000000000104 .LBB46
     /tmp/cccDtYlh.s:522    .text:000000000000010c .LBE46
     /tmp/cccDtYlh.s:622    .text:0000000000000160 .LBB50
     /tmp/cccDtYlh.s:655    .text:0000000000000190 .LBE50
     /tmp/cccDtYlh.s:683    .text:00000000000001d0 .LBB54
     /tmp/cccDtYlh.s:689    .text:00000000000001d8 .LBE54
     /tmp/cccDtYlh.s:1471   .gcc_except_table:0000000000000000 .LLSDA33
                           .group:0000000000000000 _ZN7WorkerAD5Ev
                           .group:0000000000000000 _ZN7WorkerBD5Ev
                           .group:0000000000000000 _ZN7WorkerCD5Ev
                           .group:0000000000000000 _ZN7WorkerDD5Ev

UNDEFINED SYMBOLS
_ZN6ThreadD2Ev
_ZdlPv
_Z15thread_dispatchv
_Z11printStringPKc
_Z8printIntiii
_ZN6ThreadnwEm
_ZN6ThreadC2Ev
_ZN6Thread5startEv
_ZN6Thread8dispatchEv
_Unwind_Resume
__gxx_personality_v0
