GAS LISTING /tmp/ccfvAfd6.s 			page 1


   1              		.file	"userMain.cpp"
   2              		.option pic
   3              		.option norelax
   4              		.text
   5              	.Ltext0:
   6              		.section	.text._ZN7WorkerAD2Ev,"axG",@progbits,_ZN7WorkerAD5Ev,comdat
   7              		.align	2
   8              		.weak	_ZN7WorkerAD2Ev
  10              	_ZN7WorkerAD2Ev:
  11              	.LFB52:
  12              		.file 1 "src/../test/Threads_CPP_API_test.h"
   1:src/../test/Threads_CPP_API_test.h **** //
   2:src/../test/Threads_CPP_API_test.h **** // Created by os on 6/21/22.
   3:src/../test/Threads_CPP_API_test.h **** //
   4:src/../test/Threads_CPP_API_test.h **** 
   5:src/../test/Threads_CPP_API_test.h **** #ifndef OS_PROJEKAT_THREADS_CPP_API_TEST_H
   6:src/../test/Threads_CPP_API_test.h **** #define OS_PROJEKAT_THREADS_CPP_API_TEST_H
   7:src/../test/Threads_CPP_API_test.h **** #include "../h/syscall_cpp.h"
   8:src/../test/Threads_CPP_API_test.h **** 
   9:src/../test/Threads_CPP_API_test.h **** #include "printing.h"
  10:src/../test/Threads_CPP_API_test.h **** 
  11:src/../test/Threads_CPP_API_test.h **** bool finishedA = false;
  12:src/../test/Threads_CPP_API_test.h **** bool finishedB = false;
  13:src/../test/Threads_CPP_API_test.h **** bool finishedC = false;
  14:src/../test/Threads_CPP_API_test.h **** bool finishedD = false;
  15:src/../test/Threads_CPP_API_test.h **** 
  16:src/../test/Threads_CPP_API_test.h **** uint64 fibonacci(uint64 n) {
  17:src/../test/Threads_CPP_API_test.h ****     if (n == 0 || n == 1) { return n; }
  18:src/../test/Threads_CPP_API_test.h ****     if (n % 10 == 0) { thread_dispatch(); }
  19:src/../test/Threads_CPP_API_test.h ****     return fibonacci(n - 1) + fibonacci(n - 2);
  20:src/../test/Threads_CPP_API_test.h **** }
  21:src/../test/Threads_CPP_API_test.h **** 
  22:src/../test/Threads_CPP_API_test.h **** class WorkerA: public Thread {
  13              		.loc 1 22 7
  14              		.cfi_startproc
  15              	.LVL0:
  16 0000 130101FF 		addi	sp,sp,-16
  17              		.cfi_def_cfa_offset 16
  18 0004 23341100 		sd	ra,8(sp)
  19 0008 23308100 		sd	s0,0(sp)
  20              		.cfi_offset 1, -8
  21              		.cfi_offset 8, -16
  22 000c 13040101 		addi	s0,sp,16
  23              		.cfi_def_cfa 8, 0
  24              	.LBB28:
  25              		.loc 1 22 7 is_stmt 0
  26 0010 97070000 		lla	a5,_ZTV7WorkerA+16
  26      93870700 
  27 0018 2330F500 		sd	a5,0(a0)
  28 001c 97000000 		call	_ZN6ThreadD2Ev@plt
  28      E7800000 
  29              	.LVL1:
  30              	.LBE28:
  31 0024 83308100 		ld	ra,8(sp)
  32              		.cfi_restore 1
  33 0028 03340100 		ld	s0,0(sp)
  34              		.cfi_restore 8
GAS LISTING /tmp/ccfvAfd6.s 			page 2


  35              		.cfi_def_cfa 2, 16
  36 002c 13010101 		addi	sp,sp,16
  37              		.cfi_def_cfa_offset 0
  38 0030 67800000 		jr	ra
  39              		.cfi_endproc
  40              	.LFE52:
  42              		.weak	_ZN7WorkerAD1Ev
  43              		.set	_ZN7WorkerAD1Ev,_ZN7WorkerAD2Ev
  44              		.section	.text._ZN7WorkerAD0Ev,"axG",@progbits,_ZN7WorkerAD5Ev,comdat
  45              		.align	2
  46              		.weak	_ZN7WorkerAD0Ev
  48              	_ZN7WorkerAD0Ev:
  49              	.LFB54:
  50              		.loc 1 22 7 is_stmt 1
  51              		.cfi_startproc
  52              	.LVL2:
  53 0000 130101FE 		addi	sp,sp,-32
  54              		.cfi_def_cfa_offset 32
  55 0004 233C1100 		sd	ra,24(sp)
  56 0008 23388100 		sd	s0,16(sp)
  57 000c 23349100 		sd	s1,8(sp)
  58              		.cfi_offset 1, -8
  59              		.cfi_offset 8, -16
  60              		.cfi_offset 9, -24
  61 0010 13040102 		addi	s0,sp,32
  62              		.cfi_def_cfa 8, 0
  63 0014 93040500 		mv	s1,a0
  64              	.LVL3:
  65              	.LBB29:
  66              	.LBB30:
  67              		.loc 1 22 7 is_stmt 0
  68 0018 97070000 		lla	a5,_ZTV7WorkerA+16
  68      93870700 
  69 0020 2330F500 		sd	a5,0(a0)
  70 0024 97000000 		call	_ZN6ThreadD2Ev@plt
  70      E7800000 
  71              	.LVL4:
  72              	.LBE30:
  73              	.LBE29:
  74 002c 13850400 		mv	a0,s1
  75 0030 97000000 		call	_ZdlPv@plt
  75      E7800000 
  76              	.LVL5:
  77 0038 83308101 		ld	ra,24(sp)
  78              		.cfi_restore 1
  79 003c 03340101 		ld	s0,16(sp)
  80              		.cfi_restore 8
  81              		.cfi_def_cfa 2, 32
  82 0040 83348100 		ld	s1,8(sp)
  83              		.cfi_restore 9
  84              	.LVL6:
  85 0044 13010102 		addi	sp,sp,32
  86              		.cfi_def_cfa_offset 0
  87 0048 67800000 		jr	ra
  88              		.cfi_endproc
  89              	.LFE54:
  91              		.section	.text._ZN7WorkerBD2Ev,"axG",@progbits,_ZN7WorkerBD5Ev,comdat
GAS LISTING /tmp/ccfvAfd6.s 			page 3


  92              		.align	2
  93              		.weak	_ZN7WorkerBD2Ev
  95              	_ZN7WorkerBD2Ev:
  96              	.LFB48:
  23:src/../test/Threads_CPP_API_test.h ****     void workerBodyA(void* arg);
  24:src/../test/Threads_CPP_API_test.h **** public:
  25:src/../test/Threads_CPP_API_test.h ****     WorkerA():Thread() {}
  26:src/../test/Threads_CPP_API_test.h ****     WorkerA(void(*p)(void*), void* a): Thread(p, a){}
  27:src/../test/Threads_CPP_API_test.h ****     void run() override {
  28:src/../test/Threads_CPP_API_test.h ****         workerBodyA(nullptr);
  29:src/../test/Threads_CPP_API_test.h ****     }
  30:src/../test/Threads_CPP_API_test.h **** };
  31:src/../test/Threads_CPP_API_test.h **** 
  32:src/../test/Threads_CPP_API_test.h **** class WorkerB: public Thread {
  97              		.loc 1 32 7 is_stmt 1
  98              		.cfi_startproc
  99              	.LVL7:
 100 0000 130101FF 		addi	sp,sp,-16
 101              		.cfi_def_cfa_offset 16
 102 0004 23341100 		sd	ra,8(sp)
 103 0008 23308100 		sd	s0,0(sp)
 104              		.cfi_offset 1, -8
 105              		.cfi_offset 8, -16
 106 000c 13040101 		addi	s0,sp,16
 107              		.cfi_def_cfa 8, 0
 108              	.LBB31:
 109              		.loc 1 32 7 is_stmt 0
 110 0010 97070000 		lla	a5,_ZTV7WorkerB+16
 110      93870700 
 111 0018 2330F500 		sd	a5,0(a0)
 112 001c 97000000 		call	_ZN6ThreadD2Ev@plt
 112      E7800000 
 113              	.LVL8:
 114              	.LBE31:
 115 0024 83308100 		ld	ra,8(sp)
 116              		.cfi_restore 1
 117 0028 03340100 		ld	s0,0(sp)
 118              		.cfi_restore 8
 119              		.cfi_def_cfa 2, 16
 120 002c 13010101 		addi	sp,sp,16
 121              		.cfi_def_cfa_offset 0
 122 0030 67800000 		jr	ra
 123              		.cfi_endproc
 124              	.LFE48:
 126              		.weak	_ZN7WorkerBD1Ev
 127              		.set	_ZN7WorkerBD1Ev,_ZN7WorkerBD2Ev
 128              		.section	.text._ZN7WorkerBD0Ev,"axG",@progbits,_ZN7WorkerBD5Ev,comdat
 129              		.align	2
 130              		.weak	_ZN7WorkerBD0Ev
 132              	_ZN7WorkerBD0Ev:
 133              	.LFB50:
 134              		.loc 1 32 7 is_stmt 1
 135              		.cfi_startproc
 136              	.LVL9:
 137 0000 130101FE 		addi	sp,sp,-32
 138              		.cfi_def_cfa_offset 32
 139 0004 233C1100 		sd	ra,24(sp)
GAS LISTING /tmp/ccfvAfd6.s 			page 4


 140 0008 23388100 		sd	s0,16(sp)
 141 000c 23349100 		sd	s1,8(sp)
 142              		.cfi_offset 1, -8
 143              		.cfi_offset 8, -16
 144              		.cfi_offset 9, -24
 145 0010 13040102 		addi	s0,sp,32
 146              		.cfi_def_cfa 8, 0
 147 0014 93040500 		mv	s1,a0
 148              	.LVL10:
 149              	.LBB32:
 150              	.LBB33:
 151              		.loc 1 32 7 is_stmt 0
 152 0018 97070000 		lla	a5,_ZTV7WorkerB+16
 152      93870700 
 153 0020 2330F500 		sd	a5,0(a0)
 154 0024 97000000 		call	_ZN6ThreadD2Ev@plt
 154      E7800000 
 155              	.LVL11:
 156              	.LBE33:
 157              	.LBE32:
 158 002c 13850400 		mv	a0,s1
 159 0030 97000000 		call	_ZdlPv@plt
 159      E7800000 
 160              	.LVL12:
 161 0038 83308101 		ld	ra,24(sp)
 162              		.cfi_restore 1
 163 003c 03340101 		ld	s0,16(sp)
 164              		.cfi_restore 8
 165              		.cfi_def_cfa 2, 32
 166 0040 83348100 		ld	s1,8(sp)
 167              		.cfi_restore 9
 168              	.LVL13:
 169 0044 13010102 		addi	sp,sp,32
 170              		.cfi_def_cfa_offset 0
 171 0048 67800000 		jr	ra
 172              		.cfi_endproc
 173              	.LFE50:
 175              		.section	.text._ZN7WorkerCD2Ev,"axG",@progbits,_ZN7WorkerCD5Ev,comdat
 176              		.align	2
 177              		.weak	_ZN7WorkerCD2Ev
 179              	_ZN7WorkerCD2Ev:
 180              	.LFB44:
  33:src/../test/Threads_CPP_API_test.h ****     void workerBodyB(void* arg);
  34:src/../test/Threads_CPP_API_test.h **** public:
  35:src/../test/Threads_CPP_API_test.h ****     WorkerB():Thread() {}
  36:src/../test/Threads_CPP_API_test.h **** 
  37:src/../test/Threads_CPP_API_test.h ****     void run() override {
  38:src/../test/Threads_CPP_API_test.h ****         workerBodyB(nullptr);
  39:src/../test/Threads_CPP_API_test.h ****     }
  40:src/../test/Threads_CPP_API_test.h **** };
  41:src/../test/Threads_CPP_API_test.h **** 
  42:src/../test/Threads_CPP_API_test.h **** class WorkerC: public Thread {
 181              		.loc 1 42 7 is_stmt 1
 182              		.cfi_startproc
 183              	.LVL14:
 184 0000 130101FF 		addi	sp,sp,-16
 185              		.cfi_def_cfa_offset 16
GAS LISTING /tmp/ccfvAfd6.s 			page 5


 186 0004 23341100 		sd	ra,8(sp)
 187 0008 23308100 		sd	s0,0(sp)
 188              		.cfi_offset 1, -8
 189              		.cfi_offset 8, -16
 190 000c 13040101 		addi	s0,sp,16
 191              		.cfi_def_cfa 8, 0
 192              	.LBB34:
 193              		.loc 1 42 7 is_stmt 0
 194 0010 97070000 		lla	a5,_ZTV7WorkerC+16
 194      93870700 
 195 0018 2330F500 		sd	a5,0(a0)
 196 001c 97000000 		call	_ZN6ThreadD2Ev@plt
 196      E7800000 
 197              	.LVL15:
 198              	.LBE34:
 199 0024 83308100 		ld	ra,8(sp)
 200              		.cfi_restore 1
 201 0028 03340100 		ld	s0,0(sp)
 202              		.cfi_restore 8
 203              		.cfi_def_cfa 2, 16
 204 002c 13010101 		addi	sp,sp,16
 205              		.cfi_def_cfa_offset 0
 206 0030 67800000 		jr	ra
 207              		.cfi_endproc
 208              	.LFE44:
 210              		.weak	_ZN7WorkerCD1Ev
 211              		.set	_ZN7WorkerCD1Ev,_ZN7WorkerCD2Ev
 212              		.section	.text._ZN7WorkerCD0Ev,"axG",@progbits,_ZN7WorkerCD5Ev,comdat
 213              		.align	2
 214              		.weak	_ZN7WorkerCD0Ev
 216              	_ZN7WorkerCD0Ev:
 217              	.LFB46:
 218              		.loc 1 42 7 is_stmt 1
 219              		.cfi_startproc
 220              	.LVL16:
 221 0000 130101FE 		addi	sp,sp,-32
 222              		.cfi_def_cfa_offset 32
 223 0004 233C1100 		sd	ra,24(sp)
 224 0008 23388100 		sd	s0,16(sp)
 225 000c 23349100 		sd	s1,8(sp)
 226              		.cfi_offset 1, -8
 227              		.cfi_offset 8, -16
 228              		.cfi_offset 9, -24
 229 0010 13040102 		addi	s0,sp,32
 230              		.cfi_def_cfa 8, 0
 231 0014 93040500 		mv	s1,a0
 232              	.LVL17:
 233              	.LBB35:
 234              	.LBB36:
 235              		.loc 1 42 7 is_stmt 0
 236 0018 97070000 		lla	a5,_ZTV7WorkerC+16
 236      93870700 
 237 0020 2330F500 		sd	a5,0(a0)
 238 0024 97000000 		call	_ZN6ThreadD2Ev@plt
 238      E7800000 
 239              	.LVL18:
 240              	.LBE36:
GAS LISTING /tmp/ccfvAfd6.s 			page 6


 241              	.LBE35:
 242 002c 13850400 		mv	a0,s1
 243 0030 97000000 		call	_ZdlPv@plt
 243      E7800000 
 244              	.LVL19:
 245 0038 83308101 		ld	ra,24(sp)
 246              		.cfi_restore 1
 247 003c 03340101 		ld	s0,16(sp)
 248              		.cfi_restore 8
 249              		.cfi_def_cfa 2, 32
 250 0040 83348100 		ld	s1,8(sp)
 251              		.cfi_restore 9
 252              	.LVL20:
 253 0044 13010102 		addi	sp,sp,32
 254              		.cfi_def_cfa_offset 0
 255 0048 67800000 		jr	ra
 256              		.cfi_endproc
 257              	.LFE46:
 259              		.section	.text._ZN7WorkerDD2Ev,"axG",@progbits,_ZN7WorkerDD5Ev,comdat
 260              		.align	2
 261              		.weak	_ZN7WorkerDD2Ev
 263              	_ZN7WorkerDD2Ev:
 264              	.LFB40:
  43:src/../test/Threads_CPP_API_test.h ****     void workerBodyC(void* arg);
  44:src/../test/Threads_CPP_API_test.h **** public:
  45:src/../test/Threads_CPP_API_test.h ****     WorkerC():Thread() {}
  46:src/../test/Threads_CPP_API_test.h **** 
  47:src/../test/Threads_CPP_API_test.h ****     void run() override {
  48:src/../test/Threads_CPP_API_test.h ****         workerBodyC(nullptr);
  49:src/../test/Threads_CPP_API_test.h ****     }
  50:src/../test/Threads_CPP_API_test.h **** };
  51:src/../test/Threads_CPP_API_test.h **** 
  52:src/../test/Threads_CPP_API_test.h **** class WorkerD: public Thread {
 265              		.loc 1 52 7 is_stmt 1
 266              		.cfi_startproc
 267              	.LVL21:
 268 0000 130101FF 		addi	sp,sp,-16
 269              		.cfi_def_cfa_offset 16
 270 0004 23341100 		sd	ra,8(sp)
 271 0008 23308100 		sd	s0,0(sp)
 272              		.cfi_offset 1, -8
 273              		.cfi_offset 8, -16
 274 000c 13040101 		addi	s0,sp,16
 275              		.cfi_def_cfa 8, 0
 276              	.LBB37:
 277              		.loc 1 52 7 is_stmt 0
 278 0010 97070000 		lla	a5,_ZTV7WorkerD+16
 278      93870700 
 279 0018 2330F500 		sd	a5,0(a0)
 280 001c 97000000 		call	_ZN6ThreadD2Ev@plt
 280      E7800000 
 281              	.LVL22:
 282              	.LBE37:
 283 0024 83308100 		ld	ra,8(sp)
 284              		.cfi_restore 1
 285 0028 03340100 		ld	s0,0(sp)
 286              		.cfi_restore 8
GAS LISTING /tmp/ccfvAfd6.s 			page 7


 287              		.cfi_def_cfa 2, 16
 288 002c 13010101 		addi	sp,sp,16
 289              		.cfi_def_cfa_offset 0
 290 0030 67800000 		jr	ra
 291              		.cfi_endproc
 292              	.LFE40:
 294              		.weak	_ZN7WorkerDD1Ev
 295              		.set	_ZN7WorkerDD1Ev,_ZN7WorkerDD2Ev
 296              		.section	.text._ZN7WorkerDD0Ev,"axG",@progbits,_ZN7WorkerDD5Ev,comdat
 297              		.align	2
 298              		.weak	_ZN7WorkerDD0Ev
 300              	_ZN7WorkerDD0Ev:
 301              	.LFB42:
 302              		.loc 1 52 7 is_stmt 1
 303              		.cfi_startproc
 304              	.LVL23:
 305 0000 130101FE 		addi	sp,sp,-32
 306              		.cfi_def_cfa_offset 32
 307 0004 233C1100 		sd	ra,24(sp)
 308 0008 23388100 		sd	s0,16(sp)
 309 000c 23349100 		sd	s1,8(sp)
 310              		.cfi_offset 1, -8
 311              		.cfi_offset 8, -16
 312              		.cfi_offset 9, -24
 313 0010 13040102 		addi	s0,sp,32
 314              		.cfi_def_cfa 8, 0
 315 0014 93040500 		mv	s1,a0
 316              	.LVL24:
 317              	.LBB38:
 318              	.LBB39:
 319              		.loc 1 52 7 is_stmt 0
 320 0018 97070000 		lla	a5,_ZTV7WorkerD+16
 320      93870700 
 321 0020 2330F500 		sd	a5,0(a0)
 322 0024 97000000 		call	_ZN6ThreadD2Ev@plt
 322      E7800000 
 323              	.LVL25:
 324              	.LBE39:
 325              	.LBE38:
 326 002c 13850400 		mv	a0,s1
 327 0030 97000000 		call	_ZdlPv@plt
 327      E7800000 
 328              	.LVL26:
 329 0038 83308101 		ld	ra,24(sp)
 330              		.cfi_restore 1
 331 003c 03340101 		ld	s0,16(sp)
 332              		.cfi_restore 8
 333              		.cfi_def_cfa 2, 32
 334 0040 83348100 		ld	s1,8(sp)
 335              		.cfi_restore 9
 336              	.LVL27:
 337 0044 13010102 		addi	sp,sp,32
 338              		.cfi_def_cfa_offset 0
 339 0048 67800000 		jr	ra
 340              		.cfi_endproc
 341              	.LFE42:
 343              		.text
GAS LISTING /tmp/ccfvAfd6.s 			page 8


 344              		.align	2
 345              		.globl	_Z9fibonaccim
 347              	_Z9fibonaccim:
 348              	.LFB12:
  16:src/../test/Threads_CPP_API_test.h ****     if (n == 0 || n == 1) { return n; }
 349              		.loc 1 16 28 is_stmt 1
 350              		.cfi_startproc
 351              	.LVL28:
 352 0000 130101FE 		addi	sp,sp,-32
 353              		.cfi_def_cfa_offset 32
 354 0004 233C1100 		sd	ra,24(sp)
 355 0008 23388100 		sd	s0,16(sp)
 356 000c 23349100 		sd	s1,8(sp)
 357 0010 23302101 		sd	s2,0(sp)
 358              		.cfi_offset 1, -8
 359              		.cfi_offset 8, -16
 360              		.cfi_offset 9, -24
 361              		.cfi_offset 18, -32
 362 0014 13040102 		addi	s0,sp,32
 363              		.cfi_def_cfa 8, 0
 364 0018 93040500 		mv	s1,a0
  17:src/../test/Threads_CPP_API_test.h ****     if (n % 10 == 0) { thread_dispatch(); }
 365              		.loc 1 17 5
 366 001c 93071000 		li	a5,1
 367 0020 63F8A702 		bleu	a0,a5,.L17
  18:src/../test/Threads_CPP_API_test.h ****     return fibonacci(n - 1) + fibonacci(n - 2);
 368              		.loc 1 18 5
  18:src/../test/Threads_CPP_API_test.h ****     return fibonacci(n - 1) + fibonacci(n - 2);
 369              		.loc 1 18 11 is_stmt 0
 370 0024 9307A000 		li	a5,10
 371 0028 B377F502 		remu	a5,a0,a5
  18:src/../test/Threads_CPP_API_test.h ****     return fibonacci(n - 1) + fibonacci(n - 2);
 372              		.loc 1 18 5
 373 002c 638E0702 		beqz	a5,.L22
 374              	.LVL29:
 375              	.L19:
  19:src/../test/Threads_CPP_API_test.h **** }
 376              		.loc 1 19 5 is_stmt 1
  19:src/../test/Threads_CPP_API_test.h **** }
 377              		.loc 1 19 21 is_stmt 0
 378 0030 1385F4FF 		addi	a0,s1,-1
 379 0034 97000000 		call	_Z9fibonaccim
 379      E7800000 
 380              	.LVL30:
 381 003c 13090500 		mv	s2,a0
  19:src/../test/Threads_CPP_API_test.h **** }
 382              		.loc 1 19 40
 383 0040 1385E4FF 		addi	a0,s1,-2
 384 0044 97000000 		call	_Z9fibonaccim
 384      E7800000 
 385              	.LVL31:
  19:src/../test/Threads_CPP_API_test.h **** }
 386              		.loc 1 19 46
 387 004c 3305A900 		add	a0,s2,a0
 388              	.L17:
  20:src/../test/Threads_CPP_API_test.h **** 
 389              		.loc 1 20 1
GAS LISTING /tmp/ccfvAfd6.s 			page 9


 390 0050 83308101 		ld	ra,24(sp)
 391              		.cfi_remember_state
 392              		.cfi_restore 1
 393 0054 03340101 		ld	s0,16(sp)
 394              		.cfi_restore 8
 395              		.cfi_def_cfa 2, 32
 396 0058 83348100 		ld	s1,8(sp)
 397              		.cfi_restore 9
 398              	.LVL32:
 399 005c 03390100 		ld	s2,0(sp)
 400              		.cfi_restore 18
 401 0060 13010102 		addi	sp,sp,32
 402              		.cfi_def_cfa_offset 0
 403 0064 67800000 		jr	ra
 404              	.LVL33:
 405              	.L22:
 406              		.cfi_restore_state
  18:src/../test/Threads_CPP_API_test.h ****     return fibonacci(n - 1) + fibonacci(n - 2);
 407              		.loc 1 18 24 is_stmt 1 discriminator 1
  18:src/../test/Threads_CPP_API_test.h ****     return fibonacci(n - 1) + fibonacci(n - 2);
 408              		.loc 1 18 39 is_stmt 0 discriminator 1
 409 0068 97000000 		call	_Z15thread_dispatchv@plt
 409      E7800000 
 410              	.LVL34:
 411 0070 6FF01FFC 		j	.L19
 412              		.cfi_endproc
 413              	.LFE12:
 415              		.section	.rodata.str1.8,"aMS",@progbits,1
 416              		.align	3
 417              	.LC0:
 418 0000 413A2069 		.string	"A: i="
 418      3D00
 419 0006 0000     		.align	3
 420              	.LC1:
 421 0008 0A00     		.string	"\n"
 422 000a 00000000 		.align	3
 422      0000
 423              	.LC2:
 424 0010 41206669 		.string	"A finished!\n"
 424      6E697368 
 424      6564210A 
 424      00
 425              		.text
 426              		.align	2
 427              		.globl	_ZN7WorkerA11workerBodyAEPv
 429              	_ZN7WorkerA11workerBodyAEPv:
 430              	.LFB32:
  53:src/../test/Threads_CPP_API_test.h ****     void workerBodyD(void* arg);
  54:src/../test/Threads_CPP_API_test.h **** public:
  55:src/../test/Threads_CPP_API_test.h ****     WorkerD():Thread() {}
  56:src/../test/Threads_CPP_API_test.h **** 
  57:src/../test/Threads_CPP_API_test.h ****     void run() override {
  58:src/../test/Threads_CPP_API_test.h ****         workerBodyD(nullptr);
  59:src/../test/Threads_CPP_API_test.h ****     }
  60:src/../test/Threads_CPP_API_test.h **** };
  61:src/../test/Threads_CPP_API_test.h **** 
  62:src/../test/Threads_CPP_API_test.h **** void WorkerA::workerBodyA(void *arg) {
GAS LISTING /tmp/ccfvAfd6.s 			page 10


 431              		.loc 1 62 38 is_stmt 1
 432              		.cfi_startproc
 433              	.LVL35:
 434 0074 130101FE 		addi	sp,sp,-32
 435              		.cfi_def_cfa_offset 32
 436 0078 233C1100 		sd	ra,24(sp)
 437 007c 23388100 		sd	s0,16(sp)
 438 0080 23349100 		sd	s1,8(sp)
 439 0084 23302101 		sd	s2,0(sp)
 440              		.cfi_offset 1, -8
 441              		.cfi_offset 8, -16
 442              		.cfi_offset 9, -24
 443              		.cfi_offset 18, -32
 444 0088 13040102 		addi	s0,sp,32
 445              		.cfi_def_cfa 8, 0
  63:src/../test/Threads_CPP_API_test.h ****     for (uint64 i = 0; i < 10; i++) {
 446              		.loc 1 63 5
 447              	.LVL36:
 448              	.LBB40:
 449              		.loc 1 63 17 is_stmt 0
 450 008c 13090000 		li	s2,0
 451 0090 6F008003 		j	.L29
 452              	.LVL37:
 453              	.L26:
 454              	.LBB41:
 455              	.LBB42:
 456              	.LBB43:
  64:src/../test/Threads_CPP_API_test.h ****         printString("A: i="); printInt(i); printString("\n");
  65:src/../test/Threads_CPP_API_test.h ****         for (uint64 j = 0; j < 10000; j++) {
  66:src/../test/Threads_CPP_API_test.h ****             for (uint64 k = 0; k < 30000; k++) { /* busy wait */ }
  67:src/../test/Threads_CPP_API_test.h ****             thread_dispatch();
 457              		.loc 1 67 13 is_stmt 1 discriminator 2
 458              		.loc 1 67 28 is_stmt 0 discriminator 2
 459 0094 97000000 		call	_Z15thread_dispatchv@plt
 459      E7800000 
 460              	.LVL38:
 461              	.LBE43:
  65:src/../test/Threads_CPP_API_test.h ****             for (uint64 k = 0; k < 30000; k++) { /* busy wait */ }
 462              		.loc 1 65 9 is_stmt 1 discriminator 2
 463 009c 93841400 		addi	s1,s1,1
 464              	.LVL39:
 465              	.L28:
  65:src/../test/Threads_CPP_API_test.h ****             for (uint64 k = 0; k < 30000; k++) { /* busy wait */ }
 466              		.loc 1 65 30 discriminator 1
 467 00a0 B7270000 		li	a5,8192
 468 00a4 9387F770 		addi	a5,a5,1807
 469 00a8 63EE9700 		bgtu	s1,a5,.L25
 470              	.LBB45:
 471              	.LBB44:
  66:src/../test/Threads_CPP_API_test.h ****             thread_dispatch();
 472              		.loc 1 66 25 is_stmt 0
 473 00ac 13070000 		li	a4,0
 474              	.L27:
 475              	.LVL40:
  66:src/../test/Threads_CPP_API_test.h ****             thread_dispatch();
 476              		.loc 1 66 34 is_stmt 1 discriminator 3
 477 00b0 B7770000 		li	a5,28672
GAS LISTING /tmp/ccfvAfd6.s 			page 11


 478 00b4 9387F752 		addi	a5,a5,1327
 479 00b8 E3EEE7FC 		bgtu	a4,a5,.L26
  66:src/../test/Threads_CPP_API_test.h ****             thread_dispatch();
 480              		.loc 1 66 13 discriminator 2
 481 00bc 13071700 		addi	a4,a4,1
 482              	.LVL41:
 483 00c0 6FF01FFF 		j	.L27
 484              	.LVL42:
 485              	.L25:
 486              	.LBE44:
 487              	.LBE45:
 488              	.LBE42:
 489              	.LBE41:
  63:src/../test/Threads_CPP_API_test.h ****         printString("A: i="); printInt(i); printString("\n");
 490              		.loc 1 63 5 discriminator 2
 491 00c4 13091900 		addi	s2,s2,1
 492              	.LVL43:
 493              	.L29:
  63:src/../test/Threads_CPP_API_test.h ****         printString("A: i="); printInt(i); printString("\n");
 494              		.loc 1 63 26 discriminator 1
 495 00c8 93079000 		li	a5,9
 496 00cc 63E02705 		bgtu	s2,a5,.L24
 497              	.LBB47:
  64:src/../test/Threads_CPP_API_test.h ****         for (uint64 j = 0; j < 10000; j++) {
 498              		.loc 1 64 9
  64:src/../test/Threads_CPP_API_test.h ****         for (uint64 j = 0; j < 10000; j++) {
 499              		.loc 1 64 20 is_stmt 0
 500 00d0 17050000 		lla	a0,.LC0
 500      13050500 
 501 00d8 97000000 		call	_Z11printStringPKc@plt
 501      E7800000 
 502              	.LVL44:
  64:src/../test/Threads_CPP_API_test.h ****         for (uint64 j = 0; j < 10000; j++) {
 503              		.loc 1 64 31 is_stmt 1
  64:src/../test/Threads_CPP_API_test.h ****         for (uint64 j = 0; j < 10000; j++) {
 504              		.loc 1 64 39 is_stmt 0
 505 00e0 13060000 		li	a2,0
 506 00e4 9305A000 		li	a1,10
 507 00e8 1B050900 		sext.w	a0,s2
 508 00ec 97000000 		call	_Z8printIntiii@plt
 508      E7800000 
 509              	.LVL45:
  64:src/../test/Threads_CPP_API_test.h ****         for (uint64 j = 0; j < 10000; j++) {
 510              		.loc 1 64 44 is_stmt 1
  64:src/../test/Threads_CPP_API_test.h ****         for (uint64 j = 0; j < 10000; j++) {
 511              		.loc 1 64 55 is_stmt 0
 512 00f4 17050000 		lla	a0,.LC1
 512      13050500 
 513 00fc 97000000 		call	_Z11printStringPKc@plt
 513      E7800000 
 514              	.LVL46:
  65:src/../test/Threads_CPP_API_test.h ****             for (uint64 k = 0; k < 30000; k++) { /* busy wait */ }
 515              		.loc 1 65 9 is_stmt 1
 516              	.LBB46:
  65:src/../test/Threads_CPP_API_test.h ****             for (uint64 k = 0; k < 30000; k++) { /* busy wait */ }
 517              		.loc 1 65 21 is_stmt 0
 518 0104 93040000 		li	s1,0
GAS LISTING /tmp/ccfvAfd6.s 			page 12


 519 0108 6FF09FF9 		j	.L28
 520              	.LVL47:
 521              	.L24:
 522              	.LBE46:
 523              	.LBE47:
 524              	.LBE40:
  68:src/../test/Threads_CPP_API_test.h ****         }
  69:src/../test/Threads_CPP_API_test.h ****     }
  70:src/../test/Threads_CPP_API_test.h ****     printString("A finished!\n");
 525              		.loc 1 70 5 is_stmt 1
 526              		.loc 1 70 16 is_stmt 0
 527 010c 17050000 		lla	a0,.LC2
 527      13050500 
 528 0114 97000000 		call	_Z11printStringPKc@plt
 528      E7800000 
 529              	.LVL48:
  71:src/../test/Threads_CPP_API_test.h ****     finishedA = true;
 530              		.loc 1 71 5 is_stmt 1
 531              		.loc 1 71 15 is_stmt 0
 532 011c 93071000 		li	a5,1
 533 0120 17070000 		sb	a5,.LANCHOR0,a4
 533      2300F700 
  72:src/../test/Threads_CPP_API_test.h ****     thread_exit();
 534              		.loc 1 72 5 is_stmt 1
 535              		.loc 1 72 16 is_stmt 0
 536 0128 97000000 		call	_Z11thread_exitv@plt
 536      E7800000 
 537              	.LVL49:
  73:src/../test/Threads_CPP_API_test.h ****     thread_dispatch();
 538              		.loc 1 73 5 is_stmt 1
 539              		.loc 1 73 20 is_stmt 0
 540 0130 97000000 		call	_Z15thread_dispatchv@plt
 540      E7800000 
 541              	.LVL50:
  74:src/../test/Threads_CPP_API_test.h **** }
 542              		.loc 1 74 1
 543 0138 83308101 		ld	ra,24(sp)
 544              		.cfi_restore 1
 545 013c 03340101 		ld	s0,16(sp)
 546              		.cfi_restore 8
 547              		.cfi_def_cfa 2, 32
 548 0140 83348100 		ld	s1,8(sp)
 549              		.cfi_restore 9
 550 0144 03390100 		ld	s2,0(sp)
 551              		.cfi_restore 18
 552              	.LVL51:
 553 0148 13010102 		addi	sp,sp,32
 554              		.cfi_def_cfa_offset 0
 555 014c 67800000 		jr	ra
 556              		.cfi_endproc
 557              	.LFE32:
 559              		.section	.text._ZN7WorkerA3runEv,"axG",@progbits,_ZN7WorkerA3runEv,comdat
 560              		.align	2
 561              		.weak	_ZN7WorkerA3runEv
 563              	_ZN7WorkerA3runEv:
 564              	.LFB19:
  27:src/../test/Threads_CPP_API_test.h ****         workerBodyA(nullptr);
GAS LISTING /tmp/ccfvAfd6.s 			page 13


 565              		.loc 1 27 10 is_stmt 1
 566              		.cfi_startproc
 567              	.LVL52:
 568 0000 130101FF 		addi	sp,sp,-16
 569              		.cfi_def_cfa_offset 16
 570 0004 23341100 		sd	ra,8(sp)
 571 0008 23308100 		sd	s0,0(sp)
 572              		.cfi_offset 1, -8
 573              		.cfi_offset 8, -16
 574 000c 13040101 		addi	s0,sp,16
 575              		.cfi_def_cfa 8, 0
  28:src/../test/Threads_CPP_API_test.h ****     }
 576              		.loc 1 28 9
  28:src/../test/Threads_CPP_API_test.h ****     }
 577              		.loc 1 28 20 is_stmt 0
 578 0010 93050000 		li	a1,0
 579 0014 97000000 		call	_ZN7WorkerA11workerBodyAEPv
 579      E7800000 
 580              	.LVL53:
  29:src/../test/Threads_CPP_API_test.h **** };
 581              		.loc 1 29 5
 582 001c 83308100 		ld	ra,8(sp)
 583              		.cfi_restore 1
 584 0020 03340100 		ld	s0,0(sp)
 585              		.cfi_restore 8
 586              		.cfi_def_cfa 2, 16
 587 0024 13010101 		addi	sp,sp,16
 588              		.cfi_def_cfa_offset 0
 589 0028 67800000 		jr	ra
 590              		.cfi_endproc
 591              	.LFE19:
 593              		.section	.rodata.str1.8
 594 001d 000000   		.align	3
 595              	.LC3:
 596 0020 423A2069 		.string	"B: i="
 596      3D00
 597 0026 0000     		.align	3
 598              	.LC4:
 599 0028 42206669 		.string	"B finished!\n"
 599      6E697368 
 599      6564210A 
 599      00
 600              		.text
 601              		.align	2
 602              		.globl	_ZN7WorkerB11workerBodyBEPv
 604              	_ZN7WorkerB11workerBodyBEPv:
 605              	.LFB33:
  75:src/../test/Threads_CPP_API_test.h **** 
  76:src/../test/Threads_CPP_API_test.h **** void WorkerB::workerBodyB(void *arg) {
 606              		.loc 1 76 38 is_stmt 1
 607              		.cfi_startproc
 608              	.LVL54:
 609 0150 130101FE 		addi	sp,sp,-32
 610              		.cfi_def_cfa_offset 32
 611 0154 233C1100 		sd	ra,24(sp)
 612 0158 23388100 		sd	s0,16(sp)
 613 015c 23349100 		sd	s1,8(sp)
GAS LISTING /tmp/ccfvAfd6.s 			page 14


 614 0160 23302101 		sd	s2,0(sp)
 615              		.cfi_offset 1, -8
 616              		.cfi_offset 8, -16
 617              		.cfi_offset 9, -24
 618              		.cfi_offset 18, -32
 619 0164 13040102 		addi	s0,sp,32
 620              		.cfi_def_cfa 8, 0
  77:src/../test/Threads_CPP_API_test.h ****     for (uint64 i = 0; i < 16; i++) {
 621              		.loc 1 77 5
 622              	.LVL55:
 623              	.LBB48:
 624              		.loc 1 77 17 is_stmt 0
 625 0168 13090000 		li	s2,0
 626 016c 6F008003 		j	.L39
 627              	.LVL56:
 628              	.L36:
 629              	.LBB49:
 630              	.LBB50:
 631              	.LBB51:
  78:src/../test/Threads_CPP_API_test.h ****         printString("B: i="); printInt(i); printString("\n");
  79:src/../test/Threads_CPP_API_test.h ****         for (uint64 j = 0; j < 10000; j++) {
  80:src/../test/Threads_CPP_API_test.h ****             for (uint64 k = 0; k < 30000; k++) { /* busy wait */ }
  81:src/../test/Threads_CPP_API_test.h ****             thread_dispatch();
 632              		.loc 1 81 13 is_stmt 1 discriminator 2
 633              		.loc 1 81 28 is_stmt 0 discriminator 2
 634 0170 97000000 		call	_Z15thread_dispatchv@plt
 634      E7800000 
 635              	.LVL57:
 636              	.LBE51:
  79:src/../test/Threads_CPP_API_test.h ****             for (uint64 k = 0; k < 30000; k++) { /* busy wait */ }
 637              		.loc 1 79 9 is_stmt 1 discriminator 2
 638 0178 93841400 		addi	s1,s1,1
 639              	.LVL58:
 640              	.L38:
  79:src/../test/Threads_CPP_API_test.h ****             for (uint64 k = 0; k < 30000; k++) { /* busy wait */ }
 641              		.loc 1 79 30 discriminator 1
 642 017c B7270000 		li	a5,8192
 643 0180 9387F770 		addi	a5,a5,1807
 644 0184 63EE9700 		bgtu	s1,a5,.L35
 645              	.LBB53:
 646              	.LBB52:
  80:src/../test/Threads_CPP_API_test.h ****             thread_dispatch();
 647              		.loc 1 80 25 is_stmt 0
 648 0188 13070000 		li	a4,0
 649              	.L37:
 650              	.LVL59:
  80:src/../test/Threads_CPP_API_test.h ****             thread_dispatch();
 651              		.loc 1 80 34 is_stmt 1 discriminator 3
 652 018c B7770000 		li	a5,28672
 653 0190 9387F752 		addi	a5,a5,1327
 654 0194 E3EEE7FC 		bgtu	a4,a5,.L36
  80:src/../test/Threads_CPP_API_test.h ****             thread_dispatch();
 655              		.loc 1 80 13 discriminator 2
 656 0198 13071700 		addi	a4,a4,1
 657              	.LVL60:
 658 019c 6FF01FFF 		j	.L37
 659              	.LVL61:
GAS LISTING /tmp/ccfvAfd6.s 			page 15


 660              	.L35:
 661              	.LBE52:
 662              	.LBE53:
 663              	.LBE50:
 664              	.LBE49:
  77:src/../test/Threads_CPP_API_test.h ****         printString("B: i="); printInt(i); printString("\n");
 665              		.loc 1 77 5 discriminator 2
 666 01a0 13091900 		addi	s2,s2,1
 667              	.LVL62:
 668              	.L39:
  77:src/../test/Threads_CPP_API_test.h ****         printString("B: i="); printInt(i); printString("\n");
 669              		.loc 1 77 26 discriminator 1
 670 01a4 9307F000 		li	a5,15
 671 01a8 63E02705 		bgtu	s2,a5,.L34
 672              	.LBB55:
  78:src/../test/Threads_CPP_API_test.h ****         for (uint64 j = 0; j < 10000; j++) {
 673              		.loc 1 78 9
  78:src/../test/Threads_CPP_API_test.h ****         for (uint64 j = 0; j < 10000; j++) {
 674              		.loc 1 78 20 is_stmt 0
 675 01ac 17050000 		lla	a0,.LC3
 675      13050500 
 676 01b4 97000000 		call	_Z11printStringPKc@plt
 676      E7800000 
 677              	.LVL63:
  78:src/../test/Threads_CPP_API_test.h ****         for (uint64 j = 0; j < 10000; j++) {
 678              		.loc 1 78 31 is_stmt 1
  78:src/../test/Threads_CPP_API_test.h ****         for (uint64 j = 0; j < 10000; j++) {
 679              		.loc 1 78 39 is_stmt 0
 680 01bc 13060000 		li	a2,0
 681 01c0 9305A000 		li	a1,10
 682 01c4 1B050900 		sext.w	a0,s2
 683 01c8 97000000 		call	_Z8printIntiii@plt
 683      E7800000 
 684              	.LVL64:
  78:src/../test/Threads_CPP_API_test.h ****         for (uint64 j = 0; j < 10000; j++) {
 685              		.loc 1 78 44 is_stmt 1
  78:src/../test/Threads_CPP_API_test.h ****         for (uint64 j = 0; j < 10000; j++) {
 686              		.loc 1 78 55 is_stmt 0
 687 01d0 17050000 		lla	a0,.LC1
 687      13050500 
 688 01d8 97000000 		call	_Z11printStringPKc@plt
 688      E7800000 
 689              	.LVL65:
  79:src/../test/Threads_CPP_API_test.h ****             for (uint64 k = 0; k < 30000; k++) { /* busy wait */ }
 690              		.loc 1 79 9 is_stmt 1
 691              	.LBB54:
  79:src/../test/Threads_CPP_API_test.h ****             for (uint64 k = 0; k < 30000; k++) { /* busy wait */ }
 692              		.loc 1 79 21 is_stmt 0
 693 01e0 93040000 		li	s1,0
 694 01e4 6FF09FF9 		j	.L38
 695              	.LVL66:
 696              	.L34:
 697              	.LBE54:
 698              	.LBE55:
 699              	.LBE48:
  82:src/../test/Threads_CPP_API_test.h ****         }
  83:src/../test/Threads_CPP_API_test.h ****     }
GAS LISTING /tmp/ccfvAfd6.s 			page 16


  84:src/../test/Threads_CPP_API_test.h ****     printString("B finished!\n");
 700              		.loc 1 84 5 is_stmt 1
 701              		.loc 1 84 16 is_stmt 0
 702 01e8 17050000 		lla	a0,.LC4
 702      13050500 
 703 01f0 97000000 		call	_Z11printStringPKc@plt
 703      E7800000 
 704              	.LVL67:
  85:src/../test/Threads_CPP_API_test.h ****     finishedB = true;
 705              		.loc 1 85 5 is_stmt 1
 706              		.loc 1 85 15 is_stmt 0
 707 01f8 93071000 		li	a5,1
 708 01fc 17070000 		sb	a5,.LANCHOR0+1,a4
 708      2300F700 
  86:src/../test/Threads_CPP_API_test.h ****     thread_exit();
 709              		.loc 1 86 5 is_stmt 1
 710              		.loc 1 86 16 is_stmt 0
 711 0204 97000000 		call	_Z11thread_exitv@plt
 711      E7800000 
 712              	.LVL68:
  87:src/../test/Threads_CPP_API_test.h ****     thread_dispatch();
 713              		.loc 1 87 5 is_stmt 1
 714              		.loc 1 87 20 is_stmt 0
 715 020c 97000000 		call	_Z15thread_dispatchv@plt
 715      E7800000 
 716              	.LVL69:
  88:src/../test/Threads_CPP_API_test.h **** }
 717              		.loc 1 88 1
 718 0214 83308101 		ld	ra,24(sp)
 719              		.cfi_restore 1
 720 0218 03340101 		ld	s0,16(sp)
 721              		.cfi_restore 8
 722              		.cfi_def_cfa 2, 32
 723 021c 83348100 		ld	s1,8(sp)
 724              		.cfi_restore 9
 725 0220 03390100 		ld	s2,0(sp)
 726              		.cfi_restore 18
 727              	.LVL70:
 728 0224 13010102 		addi	sp,sp,32
 729              		.cfi_def_cfa_offset 0
 730 0228 67800000 		jr	ra
 731              		.cfi_endproc
 732              	.LFE33:
 734              		.section	.text._ZN7WorkerB3runEv,"axG",@progbits,_ZN7WorkerB3runEv,comdat
 735              		.align	2
 736              		.weak	_ZN7WorkerB3runEv
 738              	_ZN7WorkerB3runEv:
 739              	.LFB23:
  37:src/../test/Threads_CPP_API_test.h ****         workerBodyB(nullptr);
 740              		.loc 1 37 10 is_stmt 1
 741              		.cfi_startproc
 742              	.LVL71:
 743 0000 130101FF 		addi	sp,sp,-16
 744              		.cfi_def_cfa_offset 16
 745 0004 23341100 		sd	ra,8(sp)
 746 0008 23308100 		sd	s0,0(sp)
 747              		.cfi_offset 1, -8
GAS LISTING /tmp/ccfvAfd6.s 			page 17


 748              		.cfi_offset 8, -16
 749 000c 13040101 		addi	s0,sp,16
 750              		.cfi_def_cfa 8, 0
  38:src/../test/Threads_CPP_API_test.h ****     }
 751              		.loc 1 38 9
  38:src/../test/Threads_CPP_API_test.h ****     }
 752              		.loc 1 38 20 is_stmt 0
 753 0010 93050000 		li	a1,0
 754 0014 97000000 		call	_ZN7WorkerB11workerBodyBEPv
 754      E7800000 
 755              	.LVL72:
  39:src/../test/Threads_CPP_API_test.h **** };
 756              		.loc 1 39 5
 757 001c 83308100 		ld	ra,8(sp)
 758              		.cfi_restore 1
 759 0020 03340100 		ld	s0,0(sp)
 760              		.cfi_restore 8
 761              		.cfi_def_cfa 2, 16
 762 0024 13010101 		addi	sp,sp,16
 763              		.cfi_def_cfa_offset 0
 764 0028 67800000 		jr	ra
 765              		.cfi_endproc
 766              	.LFE23:
 768              		.section	.rodata.str1.8
 769 0035 000000   		.align	3
 770              	.LC5:
 771 0038 433A2069 		.string	"C: i="
 771      3D00
 772 003e 0000     		.align	3
 773              	.LC6:
 774 0040 433A2064 		.string	"C: dispatch\n"
 774      69737061 
 774      7463680A 
 774      00
 775 004d 000000   		.align	3
 776              	.LC7:
 777 0050 433A2074 		.string	"C: t1="
 777      313D00
 778 0057 00       		.align	3
 779              	.LC8:
 780 0058 433A2066 		.string	"C: fibonaci="
 780      69626F6E 
 780      6163693D 
 780      00
 781 0065 000000   		.align	3
 782              	.LC9:
 783 0068 43206669 		.string	"C finished!\n"
 783      6E697368 
 783      6564210A 
 783      00
 784              		.text
 785              		.align	2
 786              		.globl	_ZN7WorkerC11workerBodyCEPv
 788              	_ZN7WorkerC11workerBodyCEPv:
 789              	.LFB34:
  89:src/../test/Threads_CPP_API_test.h **** 
  90:src/../test/Threads_CPP_API_test.h **** void WorkerC::workerBodyC(void *arg) {
GAS LISTING /tmp/ccfvAfd6.s 			page 18


 790              		.loc 1 90 38 is_stmt 1
 791              		.cfi_startproc
 792              	.LVL73:
 793 022c 130101FE 		addi	sp,sp,-32
 794              		.cfi_def_cfa_offset 32
 795 0230 233C1100 		sd	ra,24(sp)
 796 0234 23388100 		sd	s0,16(sp)
 797 0238 23349100 		sd	s1,8(sp)
 798 023c 23302101 		sd	s2,0(sp)
 799              		.cfi_offset 1, -8
 800              		.cfi_offset 8, -16
 801              		.cfi_offset 9, -24
 802              		.cfi_offset 18, -32
 803 0240 13040102 		addi	s0,sp,32
 804              		.cfi_def_cfa 8, 0
  91:src/../test/Threads_CPP_API_test.h ****     uint8 i = 0;
 805              		.loc 1 91 5
 806              	.LVL74:
 807              		.loc 1 91 11 is_stmt 0
 808 0244 93040000 		li	s1,0
 809 0248 6F000004 		j	.L45
 810              	.LVL75:
 811              	.L49:
  92:src/../test/Threads_CPP_API_test.h ****     for (; i < 3; i++) {
  93:src/../test/Threads_CPP_API_test.h ****         printString("C: i="); printInt(i); printString("\n");
 812              		.loc 1 93 9 is_stmt 1 discriminator 1
 813              		.loc 1 93 20 is_stmt 0 discriminator 1
 814 024c 17050000 		lla	a0,.LC5
 814      13050500 
 815 0254 97000000 		call	_Z11printStringPKc@plt
 815      E7800000 
 816              	.LVL76:
 817              		.loc 1 93 31 is_stmt 1 discriminator 1
 818              		.loc 1 93 39 is_stmt 0 discriminator 1
 819 025c 13060000 		li	a2,0
 820 0260 9305A000 		li	a1,10
 821 0264 13850400 		mv	a0,s1
 822 0268 97000000 		call	_Z8printIntiii@plt
 822      E7800000 
 823              	.LVL77:
 824              		.loc 1 93 44 is_stmt 1 discriminator 1
 825              		.loc 1 93 55 is_stmt 0 discriminator 1
 826 0270 17050000 		lla	a0,.LC1
 826      13050500 
 827 0278 97000000 		call	_Z11printStringPKc@plt
 827      E7800000 
 828              	.LVL78:
  92:src/../test/Threads_CPP_API_test.h ****     for (; i < 3; i++) {
 829              		.loc 1 92 5 is_stmt 1 discriminator 1
 830 0280 9B841400 		addiw	s1,s1,1
 831              	.LVL79:
 832 0284 93F4F40F 		andi	s1,s1,0xff
 833              	.LVL80:
 834              	.L45:
  92:src/../test/Threads_CPP_API_test.h ****     for (; i < 3; i++) {
 835              		.loc 1 92 5 discriminator 2
  92:src/../test/Threads_CPP_API_test.h ****     for (; i < 3; i++) {
GAS LISTING /tmp/ccfvAfd6.s 			page 19


 836              		.loc 1 92 14 discriminator 2
 837 0288 93072000 		li	a5,2
 838 028c E3F097FC 		bleu	s1,a5,.L49
  94:src/../test/Threads_CPP_API_test.h ****     }
  95:src/../test/Threads_CPP_API_test.h **** 
  96:src/../test/Threads_CPP_API_test.h ****     printString("C: dispatch\n");
 839              		.loc 1 96 5
 840              		.loc 1 96 16 is_stmt 0
 841 0290 17050000 		lla	a0,.LC6
 841      13050500 
 842 0298 97000000 		call	_Z11printStringPKc@plt
 842      E7800000 
 843              	.LVL81:
  97:src/../test/Threads_CPP_API_test.h ****     __asm__ ("li t1, 7");
 844              		.loc 1 97 5 is_stmt 1
 845              		.loc 1 97 25 is_stmt 0
 846              	#APP
 847              	# 97 "src/../test/Threads_CPP_API_test.h" 1
  98              	    thread_dispatch();
 848              		li t1, 7
 849              	# 0 "" 2
 850              		.loc 1 98 5 is_stmt 1
 851              		.loc 1 98 20 is_stmt 0
 852              	#NO_APP
 853 02a4 97000000 		call	_Z15thread_dispatchv@plt
 853      E7800000 
 854              	.LVL82:
  99:src/../test/Threads_CPP_API_test.h **** 
 100:src/../test/Threads_CPP_API_test.h ****     uint64 t1 = 0;
 855              		.loc 1 100 5 is_stmt 1
 101:src/../test/Threads_CPP_API_test.h ****     __asm__ ("mv %[t1], t1" : [t1] "=r"(t1));
 856              		.loc 1 101 5
 857              		.loc 1 101 45 is_stmt 0
 858              	#APP
 859              	# 101 "src/../test/Threads_CPP_API_test.h" 1
 102              	
 860              		mv s2, t1
 861              	# 0 "" 2
 862              	.LVL83:
 103:src/../test/Threads_CPP_API_test.h ****     printString("C: t1="); printInt(t1); printString("\n");
 863              		.loc 1 103 5 is_stmt 1
 864              		.loc 1 103 16 is_stmt 0
 865              	#NO_APP
 866 02b0 17050000 		lla	a0,.LC7
 866      13050500 
 867 02b8 97000000 		call	_Z11printStringPKc@plt
 867      E7800000 
 868              	.LVL84:
 869              		.loc 1 103 28 is_stmt 1
 870              		.loc 1 103 36 is_stmt 0
 871 02c0 13060000 		li	a2,0
 872 02c4 9305A000 		li	a1,10
 873 02c8 1B050900 		sext.w	a0,s2
 874 02cc 97000000 		call	_Z8printIntiii@plt
 874      E7800000 
 875              	.LVL85:
 876              		.loc 1 103 42 is_stmt 1
GAS LISTING /tmp/ccfvAfd6.s 			page 20


 877              		.loc 1 103 53 is_stmt 0
 878 02d4 17050000 		lla	a0,.LC1
 878      13050500 
 879 02dc 97000000 		call	_Z11printStringPKc@plt
 879      E7800000 
 880              	.LVL86:
 104:src/../test/Threads_CPP_API_test.h **** 
 105:src/../test/Threads_CPP_API_test.h ****     uint64 result = fibonacci(12);
 881              		.loc 1 105 5 is_stmt 1
 882              		.loc 1 105 30 is_stmt 0
 883 02e4 1305C000 		li	a0,12
 884 02e8 97000000 		call	_Z9fibonaccim
 884      E7800000 
 885              	.LVL87:
 886 02f0 13090500 		mv	s2,a0
 887              	.LVL88:
 106:src/../test/Threads_CPP_API_test.h ****     printString("C: fibonaci="); printInt(result); printString("\n");
 888              		.loc 1 106 5 is_stmt 1
 889              		.loc 1 106 16 is_stmt 0
 890 02f4 17050000 		lla	a0,.LC8
 890      13050500 
 891              	.LVL89:
 892 02fc 97000000 		call	_Z11printStringPKc@plt
 892      E7800000 
 893              	.LVL90:
 894              		.loc 1 106 34 is_stmt 1
 895              		.loc 1 106 42 is_stmt 0
 896 0304 13060000 		li	a2,0
 897 0308 9305A000 		li	a1,10
 898 030c 1B050900 		sext.w	a0,s2
 899 0310 97000000 		call	_Z8printIntiii@plt
 899      E7800000 
 900              	.LVL91:
 901              		.loc 1 106 52 is_stmt 1
 902              		.loc 1 106 63 is_stmt 0
 903 0318 17050000 		lla	a0,.LC1
 903      13050500 
 904 0320 97000000 		call	_Z11printStringPKc@plt
 904      E7800000 
 905              	.LVL92:
 906 0328 6F000004 		j	.L47
 907              	.L50:
 107:src/../test/Threads_CPP_API_test.h **** 
 108:src/../test/Threads_CPP_API_test.h ****     for (; i < 6; i++) {
 109:src/../test/Threads_CPP_API_test.h ****         printString("C: i="); printInt(i); printString("\n");
 908              		.loc 1 109 9 is_stmt 1 discriminator 1
 909              		.loc 1 109 20 is_stmt 0 discriminator 1
 910 032c 17050000 		lla	a0,.LC5
 910      13050500 
 911 0334 97000000 		call	_Z11printStringPKc@plt
 911      E7800000 
 912              	.LVL93:
 913              		.loc 1 109 31 is_stmt 1 discriminator 1
 914              		.loc 1 109 39 is_stmt 0 discriminator 1
 915 033c 13060000 		li	a2,0
 916 0340 9305A000 		li	a1,10
 917 0344 13850400 		mv	a0,s1
GAS LISTING /tmp/ccfvAfd6.s 			page 21


 918 0348 97000000 		call	_Z8printIntiii@plt
 918      E7800000 
 919              	.LVL94:
 920              		.loc 1 109 44 is_stmt 1 discriminator 1
 921              		.loc 1 109 55 is_stmt 0 discriminator 1
 922 0350 17050000 		lla	a0,.LC1
 922      13050500 
 923 0358 97000000 		call	_Z11printStringPKc@plt
 923      E7800000 
 924              	.LVL95:
 108:src/../test/Threads_CPP_API_test.h ****         printString("C: i="); printInt(i); printString("\n");
 925              		.loc 1 108 5 is_stmt 1 discriminator 1
 926 0360 9B841400 		addiw	s1,s1,1
 927              	.LVL96:
 928 0364 93F4F40F 		andi	s1,s1,0xff
 929              	.LVL97:
 930              	.L47:
 108:src/../test/Threads_CPP_API_test.h ****         printString("C: i="); printInt(i); printString("\n");
 931              		.loc 1 108 5 discriminator 2
 108:src/../test/Threads_CPP_API_test.h ****         printString("C: i="); printInt(i); printString("\n");
 932              		.loc 1 108 14 discriminator 2
 933 0368 93075000 		li	a5,5
 934 036c E3F097FC 		bleu	s1,a5,.L50
 110:src/../test/Threads_CPP_API_test.h ****     }
 111:src/../test/Threads_CPP_API_test.h **** 
 112:src/../test/Threads_CPP_API_test.h ****     printString("C finished!\n");
 935              		.loc 1 112 5
 936              		.loc 1 112 16 is_stmt 0
 937 0370 17050000 		lla	a0,.LC9
 937      13050500 
 938 0378 97000000 		call	_Z11printStringPKc@plt
 938      E7800000 
 939              	.LVL98:
 113:src/../test/Threads_CPP_API_test.h ****     finishedC = true;
 940              		.loc 1 113 5 is_stmt 1
 941              		.loc 1 113 15 is_stmt 0
 942 0380 93071000 		li	a5,1
 943 0384 17070000 		sb	a5,.LANCHOR0+2,a4
 943      2300F700 
 114:src/../test/Threads_CPP_API_test.h ****     thread_exit();
 944              		.loc 1 114 5 is_stmt 1
 945              		.loc 1 114 16 is_stmt 0
 946 038c 97000000 		call	_Z11thread_exitv@plt
 946      E7800000 
 947              	.LVL99:
 115:src/../test/Threads_CPP_API_test.h ****     thread_dispatch();
 948              		.loc 1 115 5 is_stmt 1
 949              		.loc 1 115 20 is_stmt 0
 950 0394 97000000 		call	_Z15thread_dispatchv@plt
 950      E7800000 
 951              	.LVL100:
 116:src/../test/Threads_CPP_API_test.h **** }
 952              		.loc 1 116 1
 953 039c 83308101 		ld	ra,24(sp)
 954              		.cfi_restore 1
 955 03a0 03340101 		ld	s0,16(sp)
 956              		.cfi_restore 8
GAS LISTING /tmp/ccfvAfd6.s 			page 22


 957              		.cfi_def_cfa 2, 32
 958 03a4 83348100 		ld	s1,8(sp)
 959              		.cfi_restore 9
 960              	.LVL101:
 961 03a8 03390100 		ld	s2,0(sp)
 962              		.cfi_restore 18
 963              	.LVL102:
 964 03ac 13010102 		addi	sp,sp,32
 965              		.cfi_def_cfa_offset 0
 966 03b0 67800000 		jr	ra
 967              		.cfi_endproc
 968              	.LFE34:
 970              		.section	.text._ZN7WorkerC3runEv,"axG",@progbits,_ZN7WorkerC3runEv,comdat
 971              		.align	2
 972              		.weak	_ZN7WorkerC3runEv
 974              	_ZN7WorkerC3runEv:
 975              	.LFB27:
  47:src/../test/Threads_CPP_API_test.h ****         workerBodyC(nullptr);
 976              		.loc 1 47 10 is_stmt 1
 977              		.cfi_startproc
 978              	.LVL103:
 979 0000 130101FF 		addi	sp,sp,-16
 980              		.cfi_def_cfa_offset 16
 981 0004 23341100 		sd	ra,8(sp)
 982 0008 23308100 		sd	s0,0(sp)
 983              		.cfi_offset 1, -8
 984              		.cfi_offset 8, -16
 985 000c 13040101 		addi	s0,sp,16
 986              		.cfi_def_cfa 8, 0
  48:src/../test/Threads_CPP_API_test.h ****     }
 987              		.loc 1 48 9
  48:src/../test/Threads_CPP_API_test.h ****     }
 988              		.loc 1 48 20 is_stmt 0
 989 0010 93050000 		li	a1,0
 990 0014 97000000 		call	_ZN7WorkerC11workerBodyCEPv
 990      E7800000 
 991              	.LVL104:
  49:src/../test/Threads_CPP_API_test.h **** };
 992              		.loc 1 49 5
 993 001c 83308100 		ld	ra,8(sp)
 994              		.cfi_restore 1
 995 0020 03340100 		ld	s0,0(sp)
 996              		.cfi_restore 8
 997              		.cfi_def_cfa 2, 16
 998 0024 13010101 		addi	sp,sp,16
 999              		.cfi_def_cfa_offset 0
 1000 0028 67800000 		jr	ra
 1001              		.cfi_endproc
 1002              	.LFE27:
 1004              		.section	.rodata.str1.8
 1005 0075 000000   		.align	3
 1006              	.LC10:
 1007 0078 443A2069 		.string	"D: i="
 1007      3D00
 1008 007e 0000     		.align	3
 1009              	.LC11:
 1010 0080 443A2064 		.string	"D: dispatch\n"
GAS LISTING /tmp/ccfvAfd6.s 			page 23


 1010      69737061 
 1010      7463680A 
 1010      00
 1011 008d 000000   		.align	3
 1012              	.LC12:
 1013 0090 443A2066 		.string	"D: fibonaci="
 1013      69626F6E 
 1013      6163693D 
 1013      00
 1014 009d 000000   		.align	3
 1015              	.LC13:
 1016 00a0 44206669 		.string	"D finished!\n"
 1016      6E697368 
 1016      6564210A 
 1016      00
 1017              		.text
 1018              		.align	2
 1019              		.globl	_ZN7WorkerD11workerBodyDEPv
 1021              	_ZN7WorkerD11workerBodyDEPv:
 1022              	.LFB35:
 117:src/../test/Threads_CPP_API_test.h **** 
 118:src/../test/Threads_CPP_API_test.h **** void WorkerD::workerBodyD(void* arg) {
 1023              		.loc 1 118 38 is_stmt 1
 1024              		.cfi_startproc
 1025              	.LVL105:
 1026 03b4 130101FE 		addi	sp,sp,-32
 1027              		.cfi_def_cfa_offset 32
 1028 03b8 233C1100 		sd	ra,24(sp)
 1029 03bc 23388100 		sd	s0,16(sp)
 1030 03c0 23349100 		sd	s1,8(sp)
 1031 03c4 23302101 		sd	s2,0(sp)
 1032              		.cfi_offset 1, -8
 1033              		.cfi_offset 8, -16
 1034              		.cfi_offset 9, -24
 1035              		.cfi_offset 18, -32
 1036 03c8 13040102 		addi	s0,sp,32
 1037              		.cfi_def_cfa 8, 0
 119:src/../test/Threads_CPP_API_test.h ****     uint8 i = 10;
 1038              		.loc 1 119 5
 1039              	.LVL106:
 1040              		.loc 1 119 11 is_stmt 0
 1041 03cc 9304A000 		li	s1,10
 1042 03d0 6F000004 		j	.L55
 1043              	.LVL107:
 1044              	.L59:
 120:src/../test/Threads_CPP_API_test.h ****     for (; i < 13; i++) {
 121:src/../test/Threads_CPP_API_test.h ****         printString("D: i="); printInt(i); printString("\n");
 1045              		.loc 1 121 9 is_stmt 1 discriminator 1
 1046              		.loc 1 121 20 is_stmt 0 discriminator 1
 1047 03d4 17050000 		lla	a0,.LC10
 1047      13050500 
 1048 03dc 97000000 		call	_Z11printStringPKc@plt
 1048      E7800000 
 1049              	.LVL108:
 1050              		.loc 1 121 31 is_stmt 1 discriminator 1
 1051              		.loc 1 121 39 is_stmt 0 discriminator 1
 1052 03e4 13060000 		li	a2,0
GAS LISTING /tmp/ccfvAfd6.s 			page 24


 1053 03e8 9305A000 		li	a1,10
 1054 03ec 13850400 		mv	a0,s1
 1055 03f0 97000000 		call	_Z8printIntiii@plt
 1055      E7800000 
 1056              	.LVL109:
 1057              		.loc 1 121 44 is_stmt 1 discriminator 1
 1058              		.loc 1 121 55 is_stmt 0 discriminator 1
 1059 03f8 17050000 		lla	a0,.LC1
 1059      13050500 
 1060 0400 97000000 		call	_Z11printStringPKc@plt
 1060      E7800000 
 1061              	.LVL110:
 120:src/../test/Threads_CPP_API_test.h ****     for (; i < 13; i++) {
 1062              		.loc 1 120 5 is_stmt 1 discriminator 1
 1063 0408 9B841400 		addiw	s1,s1,1
 1064              	.LVL111:
 1065 040c 93F4F40F 		andi	s1,s1,0xff
 1066              	.LVL112:
 1067              	.L55:
 120:src/../test/Threads_CPP_API_test.h ****     for (; i < 13; i++) {
 1068              		.loc 1 120 5 discriminator 2
 120:src/../test/Threads_CPP_API_test.h ****     for (; i < 13; i++) {
 1069              		.loc 1 120 14 discriminator 2
 1070 0410 9307C000 		li	a5,12
 1071 0414 E3F097FC 		bleu	s1,a5,.L59
 122:src/../test/Threads_CPP_API_test.h ****     }
 123:src/../test/Threads_CPP_API_test.h **** 
 124:src/../test/Threads_CPP_API_test.h ****     printString("D: dispatch\n");
 1072              		.loc 1 124 5
 1073              		.loc 1 124 16 is_stmt 0
 1074 0418 17050000 		lla	a0,.LC11
 1074      13050500 
 1075 0420 97000000 		call	_Z11printStringPKc@plt
 1075      E7800000 
 1076              	.LVL113:
 125:src/../test/Threads_CPP_API_test.h ****     __asm__ ("li t1, 5");
 1077              		.loc 1 125 5 is_stmt 1
 1078              		.loc 1 125 25 is_stmt 0
 1079              	#APP
 1080              	# 125 "src/../test/Threads_CPP_API_test.h" 1
 126              	    thread_dispatch();
 1081              		li t1, 5
 1082              	# 0 "" 2
 1083              		.loc 1 126 5 is_stmt 1
 1084              		.loc 1 126 20 is_stmt 0
 1085              	#NO_APP
 1086 042c 97000000 		call	_Z15thread_dispatchv@plt
 1086      E7800000 
 1087              	.LVL114:
 127:src/../test/Threads_CPP_API_test.h **** 
 128:src/../test/Threads_CPP_API_test.h ****     uint64 result = fibonacci(16);
 1088              		.loc 1 128 5 is_stmt 1
 1089              		.loc 1 128 30 is_stmt 0
 1090 0434 13050001 		li	a0,16
 1091 0438 97000000 		call	_Z9fibonaccim
 1091      E7800000 
 1092              	.LVL115:
GAS LISTING /tmp/ccfvAfd6.s 			page 25


 1093 0440 13090500 		mv	s2,a0
 1094              	.LVL116:
 129:src/../test/Threads_CPP_API_test.h ****     printString("D: fibonaci="); printInt(result); printString("\n");
 1095              		.loc 1 129 5 is_stmt 1
 1096              		.loc 1 129 16 is_stmt 0
 1097 0444 17050000 		lla	a0,.LC12
 1097      13050500 
 1098              	.LVL117:
 1099 044c 97000000 		call	_Z11printStringPKc@plt
 1099      E7800000 
 1100              	.LVL118:
 1101              		.loc 1 129 34 is_stmt 1
 1102              		.loc 1 129 42 is_stmt 0
 1103 0454 13060000 		li	a2,0
 1104 0458 9305A000 		li	a1,10
 1105 045c 1B050900 		sext.w	a0,s2
 1106 0460 97000000 		call	_Z8printIntiii@plt
 1106      E7800000 
 1107              	.LVL119:
 1108              		.loc 1 129 52 is_stmt 1
 1109              		.loc 1 129 63 is_stmt 0
 1110 0468 17050000 		lla	a0,.LC1
 1110      13050500 
 1111 0470 97000000 		call	_Z11printStringPKc@plt
 1111      E7800000 
 1112              	.LVL120:
 1113 0478 6F000004 		j	.L57
 1114              	.L60:
 130:src/../test/Threads_CPP_API_test.h **** 
 131:src/../test/Threads_CPP_API_test.h ****     for (; i < 16; i++) {
 132:src/../test/Threads_CPP_API_test.h ****         printString("D: i="); printInt(i); printString("\n");
 1115              		.loc 1 132 9 is_stmt 1 discriminator 1
 1116              		.loc 1 132 20 is_stmt 0 discriminator 1
 1117 047c 17050000 		lla	a0,.LC10
 1117      13050500 
 1118 0484 97000000 		call	_Z11printStringPKc@plt
 1118      E7800000 
 1119              	.LVL121:
 1120              		.loc 1 132 31 is_stmt 1 discriminator 1
 1121              		.loc 1 132 39 is_stmt 0 discriminator 1
 1122 048c 13060000 		li	a2,0
 1123 0490 9305A000 		li	a1,10
 1124 0494 13850400 		mv	a0,s1
 1125 0498 97000000 		call	_Z8printIntiii@plt
 1125      E7800000 
 1126              	.LVL122:
 1127              		.loc 1 132 44 is_stmt 1 discriminator 1
 1128              		.loc 1 132 55 is_stmt 0 discriminator 1
 1129 04a0 17050000 		lla	a0,.LC1
 1129      13050500 
 1130 04a8 97000000 		call	_Z11printStringPKc@plt
 1130      E7800000 
 1131              	.LVL123:
 131:src/../test/Threads_CPP_API_test.h ****         printString("D: i="); printInt(i); printString("\n");
 1132              		.loc 1 131 5 is_stmt 1 discriminator 1
 1133 04b0 9B841400 		addiw	s1,s1,1
 1134              	.LVL124:
GAS LISTING /tmp/ccfvAfd6.s 			page 26


 1135 04b4 93F4F40F 		andi	s1,s1,0xff
 1136              	.LVL125:
 1137              	.L57:
 131:src/../test/Threads_CPP_API_test.h ****         printString("D: i="); printInt(i); printString("\n");
 1138              		.loc 1 131 5 discriminator 2
 131:src/../test/Threads_CPP_API_test.h ****         printString("D: i="); printInt(i); printString("\n");
 1139              		.loc 1 131 14 discriminator 2
 1140 04b8 9307F000 		li	a5,15
 1141 04bc E3F097FC 		bleu	s1,a5,.L60
 133:src/../test/Threads_CPP_API_test.h ****     }
 134:src/../test/Threads_CPP_API_test.h **** 
 135:src/../test/Threads_CPP_API_test.h ****     printString("D finished!\n");
 1142              		.loc 1 135 5
 1143              		.loc 1 135 16 is_stmt 0
 1144 04c0 17050000 		lla	a0,.LC13
 1144      13050500 
 1145 04c8 97000000 		call	_Z11printStringPKc@plt
 1145      E7800000 
 1146              	.LVL126:
 136:src/../test/Threads_CPP_API_test.h ****     finishedD = true;
 1147              		.loc 1 136 5 is_stmt 1
 1148              		.loc 1 136 15 is_stmt 0
 1149 04d0 93071000 		li	a5,1
 1150 04d4 17070000 		sb	a5,.LANCHOR0+3,a4
 1150      2300F700 
 137:src/../test/Threads_CPP_API_test.h ****     thread_exit();
 1151              		.loc 1 137 5 is_stmt 1
 1152              		.loc 1 137 16 is_stmt 0
 1153 04dc 97000000 		call	_Z11thread_exitv@plt
 1153      E7800000 
 1154              	.LVL127:
 138:src/../test/Threads_CPP_API_test.h ****     thread_dispatch();
 1155              		.loc 1 138 5 is_stmt 1
 1156              		.loc 1 138 20 is_stmt 0
 1157 04e4 97000000 		call	_Z15thread_dispatchv@plt
 1157      E7800000 
 1158              	.LVL128:
 139:src/../test/Threads_CPP_API_test.h **** }
 1159              		.loc 1 139 1
 1160 04ec 83308101 		ld	ra,24(sp)
 1161              		.cfi_restore 1
 1162 04f0 03340101 		ld	s0,16(sp)
 1163              		.cfi_restore 8
 1164              		.cfi_def_cfa 2, 32
 1165 04f4 83348100 		ld	s1,8(sp)
 1166              		.cfi_restore 9
 1167              	.LVL129:
 1168 04f8 03390100 		ld	s2,0(sp)
 1169              		.cfi_restore 18
 1170              	.LVL130:
 1171 04fc 13010102 		addi	sp,sp,32
 1172              		.cfi_def_cfa_offset 0
 1173 0500 67800000 		jr	ra
 1174              		.cfi_endproc
 1175              	.LFE35:
 1177              		.section	.text._ZN7WorkerD3runEv,"axG",@progbits,_ZN7WorkerD3runEv,comdat
 1178              		.align	2
GAS LISTING /tmp/ccfvAfd6.s 			page 27


 1179              		.weak	_ZN7WorkerD3runEv
 1181              	_ZN7WorkerD3runEv:
 1182              	.LFB31:
  57:src/../test/Threads_CPP_API_test.h ****         workerBodyD(nullptr);
 1183              		.loc 1 57 10 is_stmt 1
 1184              		.cfi_startproc
 1185              	.LVL131:
 1186 0000 130101FF 		addi	sp,sp,-16
 1187              		.cfi_def_cfa_offset 16
 1188 0004 23341100 		sd	ra,8(sp)
 1189 0008 23308100 		sd	s0,0(sp)
 1190              		.cfi_offset 1, -8
 1191              		.cfi_offset 8, -16
 1192 000c 13040101 		addi	s0,sp,16
 1193              		.cfi_def_cfa 8, 0
  58:src/../test/Threads_CPP_API_test.h ****     }
 1194              		.loc 1 58 9
  58:src/../test/Threads_CPP_API_test.h ****     }
 1195              		.loc 1 58 20 is_stmt 0
 1196 0010 93050000 		li	a1,0
 1197 0014 97000000 		call	_ZN7WorkerD11workerBodyDEPv
 1197      E7800000 
 1198              	.LVL132:
  59:src/../test/Threads_CPP_API_test.h **** };
 1199              		.loc 1 59 5
 1200 001c 83308100 		ld	ra,8(sp)
 1201              		.cfi_restore 1
 1202 0020 03340100 		ld	s0,0(sp)
 1203              		.cfi_restore 8
 1204              		.cfi_def_cfa 2, 16
 1205 0024 13010101 		addi	sp,sp,16
 1206              		.cfi_def_cfa_offset 0
 1207 0028 67800000 		jr	ra
 1208              		.cfi_endproc
 1209              	.LFE31:
 1211              		.text
 1212              		.align	2
 1213              		.globl	_Z4bodyPv
 1215              	_Z4bodyPv:
 1216              	.LFB36:
 140:src/../test/Threads_CPP_API_test.h **** void body(void *p){
 1217              		.loc 1 140 19 is_stmt 1
 1218              		.cfi_startproc
 1219              	.LVL133:
 1220 0504 130101FE 		addi	sp,sp,-32
 1221              		.cfi_def_cfa_offset 32
 1222 0508 233C1100 		sd	ra,24(sp)
 1223 050c 23388100 		sd	s0,16(sp)
 1224 0510 23349100 		sd	s1,8(sp)
 1225              		.cfi_offset 1, -8
 1226              		.cfi_offset 8, -16
 1227              		.cfi_offset 9, -24
 1228 0514 13040102 		addi	s0,sp,32
 1229              		.cfi_def_cfa 8, 0
 141:src/../test/Threads_CPP_API_test.h ****     int i = 0;
 1230              		.loc 1 141 5
 1231              	.LVL134:
GAS LISTING /tmp/ccfvAfd6.s 			page 28


 1232              		.loc 1 141 9 is_stmt 0
 1233 0518 93040000 		li	s1,0
 1234 051c 6F00C003 		j	.L65
 1235              	.LVL135:
 1236              	.L67:
 142:src/../test/Threads_CPP_API_test.h ****     for (; i < 13; i++) {
 143:src/../test/Threads_CPP_API_test.h ****         printString("D: i="); printInt(i); printString("\n");
 1237              		.loc 1 143 9 is_stmt 1 discriminator 1
 1238              		.loc 1 143 20 is_stmt 0 discriminator 1
 1239 0520 17050000 		lla	a0,.LC10
 1239      13050500 
 1240 0528 97000000 		call	_Z11printStringPKc@plt
 1240      E7800000 
 1241              	.LVL136:
 1242              		.loc 1 143 31 is_stmt 1 discriminator 1
 1243              		.loc 1 143 39 is_stmt 0 discriminator 1
 1244 0530 13060000 		li	a2,0
 1245 0534 9305A000 		li	a1,10
 1246 0538 13850400 		mv	a0,s1
 1247 053c 97000000 		call	_Z8printIntiii@plt
 1247      E7800000 
 1248              	.LVL137:
 1249              		.loc 1 143 44 is_stmt 1 discriminator 1
 1250              		.loc 1 143 55 is_stmt 0 discriminator 1
 1251 0544 17050000 		lla	a0,.LC1
 1251      13050500 
 1252 054c 97000000 		call	_Z11printStringPKc@plt
 1252      E7800000 
 1253              	.LVL138:
 142:src/../test/Threads_CPP_API_test.h ****     for (; i < 13; i++) {
 1254              		.loc 1 142 5 is_stmt 1 discriminator 1
 1255 0554 9B841400 		addiw	s1,s1,1
 1256              	.LVL139:
 1257              	.L65:
 142:src/../test/Threads_CPP_API_test.h ****     for (; i < 13; i++) {
 1258              		.loc 1 142 5 discriminator 2
 142:src/../test/Threads_CPP_API_test.h ****     for (; i < 13; i++) {
 1259              		.loc 1 142 14 discriminator 2
 1260 0558 9307C000 		li	a5,12
 1261 055c E3D297FC 		ble	s1,a5,.L67
 144:src/../test/Threads_CPP_API_test.h ****     }
 145:src/../test/Threads_CPP_API_test.h **** }
 1262              		.loc 1 145 1 is_stmt 0
 1263 0560 83308101 		ld	ra,24(sp)
 1264              		.cfi_restore 1
 1265 0564 03340101 		ld	s0,16(sp)
 1266              		.cfi_restore 8
 1267              		.cfi_def_cfa 2, 32
 1268 0568 83348100 		ld	s1,8(sp)
 1269              		.cfi_restore 9
 1270              	.LVL140:
 1271 056c 13010102 		addi	sp,sp,32
 1272              		.cfi_def_cfa_offset 0
 1273 0570 67800000 		jr	ra
 1274              		.cfi_endproc
 1275              	.LFE36:
 1277              		.section	.rodata.str1.8
GAS LISTING /tmp/ccfvAfd6.s 			page 29


 1278 00ad 000000   		.align	3
 1279              	.LC14:
 1280 00b0 54687265 		.string	"ThreadA created\n"
 1280      61644120 
 1280      63726561 
 1280      7465640A 
 1280      00
 1281 00c1 00000000 		.align	3
 1281      000000
 1282              	.LC15:
 1283 00c8 54687265 		.string	"ThreadB created\n"
 1283      61644220 
 1283      63726561 
 1283      7465640A 
 1283      00
 1284 00d9 00000000 		.align	3
 1284      000000
 1285              	.LC16:
 1286 00e0 54687265 		.string	"ThreadC created\n"
 1286      61644320 
 1286      63726561 
 1286      7465640A 
 1286      00
 1287 00f1 00000000 		.align	3
 1287      000000
 1288              	.LC17:
 1289 00f8 54687265 		.string	"ThreadD created\n"
 1289      61644420 
 1289      63726561 
 1289      7465640A 
 1289      00
 1290              		.text
 1291              		.align	2
 1292              		.globl	_Z20Threads_CPP_API_testv
 1294              	_Z20Threads_CPP_API_testv:
 1295              	.LFB37:
 146:src/../test/Threads_CPP_API_test.h **** 
 147:src/../test/Threads_CPP_API_test.h **** 
 148:src/../test/Threads_CPP_API_test.h **** void Threads_CPP_API_test() {
 1296              		.loc 1 148 29 is_stmt 1
 1297              		.cfi_startproc
 1298              		.cfi_personality 0x9b,DW.ref.__gxx_personality_v0
 1299              		.cfi_lsda 0x1b,.LLSDA37
 1300 0574 130101FC 		addi	sp,sp,-64
 1301              		.cfi_def_cfa_offset 64
 1302 0578 233C1102 		sd	ra,56(sp)
 1303 057c 23388102 		sd	s0,48(sp)
 1304 0580 23349102 		sd	s1,40(sp)
 1305 0584 23302103 		sd	s2,32(sp)
 1306              		.cfi_offset 1, -8
 1307              		.cfi_offset 8, -16
 1308              		.cfi_offset 9, -24
 1309              		.cfi_offset 18, -32
 1310 0588 13040104 		addi	s0,sp,64
 1311              		.cfi_def_cfa 8, 0
 149:src/../test/Threads_CPP_API_test.h ****     Thread* threads[4];
 1312              		.loc 1 149 5
GAS LISTING /tmp/ccfvAfd6.s 			page 30


 150:src/../test/Threads_CPP_API_test.h **** 
 151:src/../test/Threads_CPP_API_test.h ****     threads[0] = new WorkerA();
 1313              		.loc 1 151 5
 1314              		.loc 1 151 30 is_stmt 0
 1315 058c 13050001 		li	a0,16
 1316              	.LEHB0:
 1317 0590 97000000 		call	_Znwm@plt
 1317      E7800000 
 1318              	.LVL141:
 1319              	.LEHE0:
 1320 0598 93040500 		mv	s1,a0
 1321              	.LVL142:
 1322              	.LEHB1:
 1323              	.LBB56:
 1324              	.LBB57:
  25:src/../test/Threads_CPP_API_test.h ****     WorkerA(void(*p)(void*), void* a): Thread(p, a){}
 1325              		.loc 1 25 22
 1326 059c 97000000 		call	_ZN6ThreadC2Ev@plt
 1326      E7800000 
 1327              	.LVL143:
 1328              	.LEHE1:
 1329 05a4 97070000 		lla	a5,_ZTV7WorkerA+16
 1329      93870700 
 1330 05ac 23B0F400 		sd	a5,0(s1)
 1331              	.LVL144:
 1332              	.LBE57:
 1333              	.LBE56:
 1334              		.loc 1 151 16
 1335 05b0 233094FC 		sd	s1,-64(s0)
 152:src/../test/Threads_CPP_API_test.h ****     printString("ThreadA created\n");
 1336              		.loc 1 152 5 is_stmt 1
 1337              		.loc 1 152 16 is_stmt 0
 1338 05b4 17050000 		lla	a0,.LC14
 1338      13050500 
 1339              	.LEHB2:
 1340 05bc 97000000 		call	_Z11printStringPKc@plt
 1340      E7800000 
 1341              	.LVL145:
 153:src/../test/Threads_CPP_API_test.h **** 
 154:src/../test/Threads_CPP_API_test.h ****     threads[1] = new WorkerB();
 1342              		.loc 1 154 5 is_stmt 1
 1343              		.loc 1 154 30 is_stmt 0
 1344 05c4 13050001 		li	a0,16
 1345 05c8 97000000 		call	_Znwm@plt
 1345      E7800000 
 1346              	.LVL146:
 1347              	.LEHE2:
 1348 05d0 93040500 		mv	s1,a0
 1349              	.LVL147:
 1350              	.LEHB3:
 1351              	.LBB58:
 1352              	.LBB59:
  35:src/../test/Threads_CPP_API_test.h **** 
 1353              		.loc 1 35 22
 1354 05d4 97000000 		call	_ZN6ThreadC2Ev@plt
 1354      E7800000 
 1355              	.LVL148:
GAS LISTING /tmp/ccfvAfd6.s 			page 31


 1356              	.LEHE3:
 1357 05dc 97070000 		lla	a5,_ZTV7WorkerB+16
 1357      93870700 
 1358 05e4 23B0F400 		sd	a5,0(s1)
 1359              	.LVL149:
 1360              	.LBE59:
 1361              	.LBE58:
 1362              		.loc 1 154 16
 1363 05e8 233494FC 		sd	s1,-56(s0)
 155:src/../test/Threads_CPP_API_test.h ****     printString("ThreadB created\n");
 1364              		.loc 1 155 5 is_stmt 1
 1365              		.loc 1 155 16 is_stmt 0
 1366 05ec 17050000 		lla	a0,.LC15
 1366      13050500 
 1367              	.LEHB4:
 1368 05f4 97000000 		call	_Z11printStringPKc@plt
 1368      E7800000 
 1369              	.LVL150:
 156:src/../test/Threads_CPP_API_test.h **** 
 157:src/../test/Threads_CPP_API_test.h ****     threads[2] = new WorkerC();
 1370              		.loc 1 157 5 is_stmt 1
 1371              		.loc 1 157 30 is_stmt 0
 1372 05fc 13050001 		li	a0,16
 1373 0600 97000000 		call	_Znwm@plt
 1373      E7800000 
 1374              	.LVL151:
 1375              	.LEHE4:
 1376 0608 93040500 		mv	s1,a0
 1377              	.LVL152:
 1378              	.LEHB5:
 1379              	.LBB60:
 1380              	.LBB61:
  45:src/../test/Threads_CPP_API_test.h **** 
 1381              		.loc 1 45 22
 1382 060c 97000000 		call	_ZN6ThreadC2Ev@plt
 1382      E7800000 
 1383              	.LVL153:
 1384              	.LEHE5:
 1385 0614 97070000 		lla	a5,_ZTV7WorkerC+16
 1385      93870700 
 1386 061c 23B0F400 		sd	a5,0(s1)
 1387              	.LVL154:
 1388              	.LBE61:
 1389              	.LBE60:
 1390              		.loc 1 157 16
 1391 0620 233894FC 		sd	s1,-48(s0)
 158:src/../test/Threads_CPP_API_test.h ****     printString("ThreadC created\n");
 1392              		.loc 1 158 5 is_stmt 1
 1393              		.loc 1 158 16 is_stmt 0
 1394 0624 17050000 		lla	a0,.LC16
 1394      13050500 
 1395              	.LEHB6:
 1396 062c 97000000 		call	_Z11printStringPKc@plt
 1396      E7800000 
 1397              	.LVL155:
 159:src/../test/Threads_CPP_API_test.h **** 
 160:src/../test/Threads_CPP_API_test.h ****     threads[3] = new WorkerD();
GAS LISTING /tmp/ccfvAfd6.s 			page 32


 1398              		.loc 1 160 5 is_stmt 1
 1399              		.loc 1 160 30 is_stmt 0
 1400 0634 13050001 		li	a0,16
 1401 0638 97000000 		call	_Znwm@plt
 1401      E7800000 
 1402              	.LVL156:
 1403              	.LEHE6:
 1404 0640 93040500 		mv	s1,a0
 1405              	.LVL157:
 1406              	.LEHB7:
 1407              	.LBB62:
 1408              	.LBB63:
  55:src/../test/Threads_CPP_API_test.h **** 
 1409              		.loc 1 55 22
 1410 0644 97000000 		call	_ZN6ThreadC2Ev@plt
 1410      E7800000 
 1411              	.LVL158:
 1412              	.LEHE7:
 1413 064c 97070000 		lla	a5,_ZTV7WorkerD+16
 1413      93870700 
 1414 0654 23B0F400 		sd	a5,0(s1)
 1415              	.LVL159:
 1416              	.LBE63:
 1417              	.LBE62:
 1418              		.loc 1 160 16
 1419 0658 233C94FC 		sd	s1,-40(s0)
 161:src/../test/Threads_CPP_API_test.h ****     printString("ThreadD created\n");
 1420              		.loc 1 161 5 is_stmt 1
 1421              		.loc 1 161 16 is_stmt 0
 1422 065c 17050000 		lla	a0,.LC17
 1422      13050500 
 1423              	.LEHB8:
 1424 0664 97000000 		call	_Z11printStringPKc@plt
 1424      E7800000 
 1425              	.LVL160:
 1426              	.LBB64:
 162:src/../test/Threads_CPP_API_test.h **** 
 163:src/../test/Threads_CPP_API_test.h ****     for(int i=0; i<4; i++) {
 1427              		.loc 1 163 13
 1428 066c 93040000 		li	s1,0
 1429              	.L70:
 1430              	.LVL161:
 1431              		.loc 1 163 19 is_stmt 1 discriminator 1
 1432 0670 93073000 		li	a5,3
 1433 0674 63C69702 		bgt	s1,a5,.L69
 164:src/../test/Threads_CPP_API_test.h ****         threads[i]->start();
 1434              		.loc 1 164 9
 1435              		.loc 1 164 18 is_stmt 0
 1436 0678 93973400 		slli	a5,s1,3
 1437 067c 130704FE 		addi	a4,s0,-32
 1438 0680 B307F700 		add	a5,a4,a5
 1439              		.loc 1 164 26
 1440 0684 03B507FE 		ld	a0,-32(a5)
 1441 0688 97000000 		call	_ZN6Thread5startEv@plt
 1441      E7800000 
 1442              	.LVL162:
 163:src/../test/Threads_CPP_API_test.h ****         threads[i]->start();
GAS LISTING /tmp/ccfvAfd6.s 			page 33


 1443              		.loc 1 163 5 is_stmt 1
 1444 0690 9B841400 		addiw	s1,s1,1
 1445              	.LVL163:
 1446 0694 6FF0DFFD 		j	.L70
 1447              	.LVL164:
 1448              	.L71:
 1449              	.LBE64:
 165:src/../test/Threads_CPP_API_test.h ****     }
 166:src/../test/Threads_CPP_API_test.h **** 
 167:src/../test/Threads_CPP_API_test.h ****     while (!(finishedA && finishedB && finishedC && finishedD)) {
 168:src/../test/Threads_CPP_API_test.h ****         Thread::dispatch();
 1450              		.loc 1 168 9
 1451              		.loc 1 168 25 is_stmt 0
 1452 0698 97000000 		call	_ZN6Thread8dispatchEv@plt
 1452      E7800000 
 1453              	.LVL165:
 1454              	.LEHE8:
 1455              	.L69:
 167:src/../test/Threads_CPP_API_test.h ****         Thread::dispatch();
 1456              		.loc 1 167 5 is_stmt 1
 167:src/../test/Threads_CPP_API_test.h ****         Thread::dispatch();
 1457              		.loc 1 167 12
 1458 06a0 97070000 		lbu	a5,.LANCHOR0
 1458      83C70700 
 1459 06a8 E38807FE 		beqz	a5,.L71
 167:src/../test/Threads_CPP_API_test.h ****         Thread::dispatch();
 1460              		.loc 1 167 24 is_stmt 0 discriminator 1
 1461 06ac 97070000 		lbu	a5,.LANCHOR0+1
 1461      83C70700 
 1462 06b4 E38207FE 		beqz	a5,.L71
 167:src/../test/Threads_CPP_API_test.h ****         Thread::dispatch();
 1463              		.loc 1 167 37 discriminator 2
 1464 06b8 97070000 		lbu	a5,.LANCHOR0+2
 1464      83C70700 
 1465 06c0 E38C07FC 		beqz	a5,.L71
 167:src/../test/Threads_CPP_API_test.h ****         Thread::dispatch();
 1466              		.loc 1 167 12 discriminator 3
 1467 06c4 97070000 		lbu	a5,.LANCHOR0+3
 1467      83C70700 
 1468 06cc E38607FC 		beqz	a5,.L71
 1469              	.LBB65:
 169:src/../test/Threads_CPP_API_test.h ****     }
 170:src/../test/Threads_CPP_API_test.h **** 
 171:src/../test/Threads_CPP_API_test.h ****     for (auto thread: threads) { delete thread; }
 1470              		.loc 1 171 23
 1471 06d0 930404FC 		addi	s1,s0,-64
 1472              	.LVL166:
 1473 06d4 6F008000 		j	.L72
 1474              	.LVL167:
 1475              	.L74:
 1476              		.loc 1 171 5 is_stmt 1 discriminator 5
 1477 06d8 93848400 		addi	s1,s1,8
 1478              	.LVL168:
 1479              	.L72:
 1480              		.loc 1 171 23 discriminator 6
 1481 06dc 930704FE 		addi	a5,s0,-32
 1482 06e0 6386F408 		beq	s1,a5,.L68
GAS LISTING /tmp/ccfvAfd6.s 			page 34


 1483              		.loc 1 171 15 is_stmt 0 discriminator 2
 1484 06e4 03B50400 		ld	a0,0(s1)
 1485              	.LVL169:
 1486              		.loc 1 171 34 is_stmt 1 discriminator 2
 1487              		.loc 1 171 47 is_stmt 0 discriminator 2
 1488 06e8 E30805FE 		beqz	a0,.L74
 1489              		.loc 1 171 41 discriminator 3
 1490 06ec 83370500 		ld	a5,0(a0)
 1491 06f0 83B78700 		ld	a5,8(a5)
 1492 06f4 E7800700 		jalr	a5
 1493              	.LVL170:
 1494 06f8 6FF01FFE 		j	.L74
 1495              	.LVL171:
 1496              	.L80:
 1497 06fc 13090500 		mv	s2,a0
 1498              	.LBE65:
 151:src/../test/Threads_CPP_API_test.h ****     printString("ThreadA created\n");
 1499              		.loc 1 151 30
 1500 0700 13850400 		mv	a0,s1
 1501 0704 97000000 		call	_ZdlPv@plt
 1501      E7800000 
 1502              	.LVL172:
 1503 070c 13050900 		mv	a0,s2
 1504              	.LEHB9:
 1505 0710 97000000 		call	_Unwind_Resume@plt
 1505      E7800000 
 1506              	.LVL173:
 1507              	.LEHE9:
 1508              	.L81:
 1509 0718 13090500 		mv	s2,a0
 154:src/../test/Threads_CPP_API_test.h ****     printString("ThreadB created\n");
 1510              		.loc 1 154 30
 1511 071c 13850400 		mv	a0,s1
 1512 0720 97000000 		call	_ZdlPv@plt
 1512      E7800000 
 1513              	.LVL174:
 1514 0728 13050900 		mv	a0,s2
 1515              	.LEHB10:
 1516 072c 97000000 		call	_Unwind_Resume@plt
 1516      E7800000 
 1517              	.LVL175:
 1518              	.LEHE10:
 1519              	.L82:
 1520 0734 13090500 		mv	s2,a0
 157:src/../test/Threads_CPP_API_test.h ****     printString("ThreadC created\n");
 1521              		.loc 1 157 30
 1522 0738 13850400 		mv	a0,s1
 1523 073c 97000000 		call	_ZdlPv@plt
 1523      E7800000 
 1524              	.LVL176:
 1525 0744 13050900 		mv	a0,s2
 1526              	.LEHB11:
 1527 0748 97000000 		call	_Unwind_Resume@plt
 1527      E7800000 
 1528              	.LVL177:
 1529              	.LEHE11:
 1530              	.L83:
GAS LISTING /tmp/ccfvAfd6.s 			page 35


 1531 0750 13090500 		mv	s2,a0
 160:src/../test/Threads_CPP_API_test.h ****     printString("ThreadD created\n");
 1532              		.loc 1 160 30
 1533 0754 13850400 		mv	a0,s1
 1534 0758 97000000 		call	_ZdlPv@plt
 1534      E7800000 
 1535              	.LVL178:
 1536 0760 13050900 		mv	a0,s2
 1537              	.LEHB12:
 1538 0764 97000000 		call	_Unwind_Resume@plt
 1538      E7800000 
 1539              	.LVL179:
 1540              	.LEHE12:
 1541              	.L68:
 172:src/../test/Threads_CPP_API_test.h **** }
 1542              		.loc 1 172 1
 1543 076c 83308103 		ld	ra,56(sp)
 1544              		.cfi_restore 1
 1545 0770 03340103 		ld	s0,48(sp)
 1546              		.cfi_restore 8
 1547              		.cfi_def_cfa 2, 64
 1548 0774 83348102 		ld	s1,40(sp)
 1549              		.cfi_restore 9
 1550              	.LVL180:
 1551 0778 03390102 		ld	s2,32(sp)
 1552              		.cfi_restore 18
 1553 077c 13010104 		addi	sp,sp,64
 1554              		.cfi_def_cfa_offset 0
 1555 0780 67800000 		jr	ra
 1556              		.cfi_endproc
 1557              	.LFE37:
 1558              		.globl	__gxx_personality_v0
 1559              		.section	.gcc_except_table,"a",@progbits
 1560              	.LLSDA37:
 1561 0000 FF       		.byte	0xff
 1562 0001 FF       		.byte	0xff
 1563 0002 03       		.byte	0x3
 1564 0003 A901     		.byte	0xa9,0x1
 1565 0005 00000000 		.4byte	.LEHB0-.LFB37
 1566 0009 00000000 		.4byte	.LEHE0-.LEHB0
 1567 000d 00000000 		.4byte	0
 1568 0011 00       		.byte	0
 1569 0012 00000000 		.4byte	.LEHB1-.LFB37
 1570 0016 00000000 		.4byte	.LEHE1-.LEHB1
 1571 001a 00000000 		.4byte	.L80-.LFB37
 1572 001e 00       		.byte	0
 1573 001f 00000000 		.4byte	.LEHB2-.LFB37
 1574 0023 00000000 		.4byte	.LEHE2-.LEHB2
 1575 0027 00000000 		.4byte	0
 1576 002b 00       		.byte	0
 1577 002c 00000000 		.4byte	.LEHB3-.LFB37
 1578 0030 00000000 		.4byte	.LEHE3-.LEHB3
 1579 0034 00000000 		.4byte	.L81-.LFB37
 1580 0038 00       		.byte	0
 1581 0039 00000000 		.4byte	.LEHB4-.LFB37
 1582 003d 00000000 		.4byte	.LEHE4-.LEHB4
 1583 0041 00000000 		.4byte	0
GAS LISTING /tmp/ccfvAfd6.s 			page 36


 1584 0045 00       		.byte	0
 1585 0046 00000000 		.4byte	.LEHB5-.LFB37
 1586 004a 00000000 		.4byte	.LEHE5-.LEHB5
 1587 004e 00000000 		.4byte	.L82-.LFB37
 1588 0052 00       		.byte	0
 1589 0053 00000000 		.4byte	.LEHB6-.LFB37
 1590 0057 00000000 		.4byte	.LEHE6-.LEHB6
 1591 005b 00000000 		.4byte	0
 1592 005f 00       		.byte	0
 1593 0060 00000000 		.4byte	.LEHB7-.LFB37
 1594 0064 00000000 		.4byte	.LEHE7-.LEHB7
 1595 0068 00000000 		.4byte	.L83-.LFB37
 1596 006c 00       		.byte	0
 1597 006d 00000000 		.4byte	.LEHB8-.LFB37
 1598 0071 00000000 		.4byte	.LEHE8-.LEHB8
 1599 0075 00000000 		.4byte	0
 1600 0079 00       		.byte	0
 1601 007a 00000000 		.4byte	.LEHB9-.LFB37
 1602 007e 00000000 		.4byte	.LEHE9-.LEHB9
 1603 0082 00000000 		.4byte	0
 1604 0086 00       		.byte	0
 1605 0087 00000000 		.4byte	.LEHB10-.LFB37
 1606 008b 00000000 		.4byte	.LEHE10-.LEHB10
 1607 008f 00000000 		.4byte	0
 1608 0093 00       		.byte	0
 1609 0094 00000000 		.4byte	.LEHB11-.LFB37
 1610 0098 00000000 		.4byte	.LEHE11-.LEHB11
 1611 009c 00000000 		.4byte	0
 1612 00a0 00       		.byte	0
 1613 00a1 00000000 		.4byte	.LEHB12-.LFB37
 1614 00a5 00000000 		.4byte	.LEHE12-.LEHB12
 1615 00a9 00000000 		.4byte	0
 1616 00ad 00       		.byte	0
 1617              		.text
 1619              		.align	2
 1620              		.globl	_Z8userMainPv
 1622              	_Z8userMainPv:
 1623              	.LFB38:
 1624              		.file 2 "src/userMain.cpp"
   1:src/userMain.cpp **** //
   2:src/userMain.cpp **** // Created by os on 6/21/22.
   3:src/userMain.cpp **** //
   4:src/userMain.cpp **** //
   5:src/userMain.cpp **** // Created by os on 6/16/22.
   6:src/userMain.cpp **** //
   7:src/userMain.cpp **** 
   8:src/userMain.cpp **** //#include "../test/Threads_C_API_test.h" // zadatak 2, niti C API i sinhrona promena konteksta
   9:src/userMain.cpp **** #include "../test/Threads_CPP_API_test.h" // zadatak 2., niti CPP API i sinhrona promena konteksta
  10:src/userMain.cpp **** 
  11:src/userMain.cpp **** //#include "../test/ConsumerProducer_C_API_test.h" // zadatak 3., kompletan C API sa semaforima, si
  12:src/userMain.cpp **** //#include "../test/ConsumerProducer_CPP_Sync_API_test.hpp" // zadatak 3., kompletan CPP API sa sem
  13:src/userMain.cpp **** 
  14:src/userMain.cpp **** //#include "../test/ThreadSleep_C_API_test.hpp" // thread_sleep test C API
  15:src/userMain.cpp **** //#include "../test/ConsumerProducer_CPP_API_test.hpp" // zadatak 4. CPP API i asinhrona promena ko
  16:src/userMain.cpp **** 
  17:src/userMain.cpp **** void userMain(void *) {
 1625              		.loc 2 17 23 is_stmt 1
GAS LISTING /tmp/ccfvAfd6.s 			page 37


 1626              		.cfi_startproc
 1627 0784 130101FF 		addi	sp,sp,-16
 1628              		.cfi_def_cfa_offset 16
 1629 0788 23341100 		sd	ra,8(sp)
 1630 078c 23308100 		sd	s0,0(sp)
 1631              		.cfi_offset 1, -8
 1632              		.cfi_offset 8, -16
 1633 0790 13040101 		addi	s0,sp,16
 1634              		.cfi_def_cfa 8, 0
  18:src/userMain.cpp ****     //Threads_C_API_test(); // zadatak 2., niti C API i sinhrona promena konteksta
  19:src/userMain.cpp ****     Threads_CPP_API_test(); // zadatak 2., niti CPP API i sinhrona promena konteksta
 1635              		.loc 2 19 5
 1636              		.loc 2 19 25 is_stmt 0
 1637 0794 97000000 		call	_Z20Threads_CPP_API_testv
 1637      E7800000 
 1638              	.LVL181:
  20:src/userMain.cpp **** 
  21:src/userMain.cpp ****     //producerConsumer_C_API(); // zadatak 3., kompletan C API sa semaforima, sinhrona promena kont
  22:src/userMain.cpp ****     //producerConsumer_CPP_Sync_API(); // zadatak 3., kompletan CPP API sa semaforima, sinhrona pro
  23:src/userMain.cpp **** 
  24:src/userMain.cpp ****     //testSleeping(); // thread_sleep test C API
  25:src/userMain.cpp **** //    ConsumerProducerCPP::testConsumerProducer(); // zadatak 4. CPP API i asinhrona promena kontek
  26:src/userMain.cpp **** 
  27:src/userMain.cpp **** }
 1639              		.loc 2 27 1
 1640 079c 83308100 		ld	ra,8(sp)
 1641              		.cfi_restore 1
 1642 07a0 03340100 		ld	s0,0(sp)
 1643              		.cfi_restore 8
 1644              		.cfi_def_cfa 2, 16
 1645 07a4 13010101 		addi	sp,sp,16
 1646              		.cfi_def_cfa_offset 0
 1647 07a8 67800000 		jr	ra
 1648              		.cfi_endproc
 1649              	.LFE38:
 1651              		.weak	_ZTV7WorkerA
 1652              		.section	.data.rel.ro.local._ZTV7WorkerA,"awG",@progbits,_ZTV7WorkerA,comdat
 1653              		.align	3
 1656              	_ZTV7WorkerA:
 1657 0000 00000000 		.dword	0
 1657      00000000 
 1658 0008 00000000 		.dword	0
 1658      00000000 
 1659 0010 00000000 		.dword	_ZN7WorkerAD1Ev
 1659      00000000 
 1660 0018 00000000 		.dword	_ZN7WorkerAD0Ev
 1660      00000000 
 1661 0020 00000000 		.dword	_ZN7WorkerA3runEv
 1661      00000000 
 1662              		.weak	_ZTV7WorkerB
 1663              		.section	.data.rel.ro.local._ZTV7WorkerB,"awG",@progbits,_ZTV7WorkerB,comdat
 1664              		.align	3
 1667              	_ZTV7WorkerB:
 1668 0000 00000000 		.dword	0
 1668      00000000 
 1669 0008 00000000 		.dword	0
 1669      00000000 
GAS LISTING /tmp/ccfvAfd6.s 			page 38


 1670 0010 00000000 		.dword	_ZN7WorkerBD1Ev
 1670      00000000 
 1671 0018 00000000 		.dword	_ZN7WorkerBD0Ev
 1671      00000000 
 1672 0020 00000000 		.dword	_ZN7WorkerB3runEv
 1672      00000000 
 1673              		.weak	_ZTV7WorkerC
 1674              		.section	.data.rel.ro.local._ZTV7WorkerC,"awG",@progbits,_ZTV7WorkerC,comdat
 1675              		.align	3
 1678              	_ZTV7WorkerC:
 1679 0000 00000000 		.dword	0
 1679      00000000 
 1680 0008 00000000 		.dword	0
 1680      00000000 
 1681 0010 00000000 		.dword	_ZN7WorkerCD1Ev
 1681      00000000 
 1682 0018 00000000 		.dword	_ZN7WorkerCD0Ev
 1682      00000000 
 1683 0020 00000000 		.dword	_ZN7WorkerC3runEv
 1683      00000000 
 1684              		.weak	_ZTV7WorkerD
 1685              		.section	.data.rel.ro.local._ZTV7WorkerD,"awG",@progbits,_ZTV7WorkerD,comdat
 1686              		.align	3
 1689              	_ZTV7WorkerD:
 1690 0000 00000000 		.dword	0
 1690      00000000 
 1691 0008 00000000 		.dword	0
 1691      00000000 
 1692 0010 00000000 		.dword	_ZN7WorkerDD1Ev
 1692      00000000 
 1693 0018 00000000 		.dword	_ZN7WorkerDD0Ev
 1693      00000000 
 1694 0020 00000000 		.dword	_ZN7WorkerD3runEv
 1694      00000000 
 1695              		.globl	finishedD
 1696              		.globl	finishedC
 1697              		.globl	finishedB
 1698              		.globl	finishedA
 1699              		.bss
 1700              		.set	.LANCHOR0,. + 0
 1703              	finishedA:
 1704 0000 00       		.zero	1
 1707              	finishedB:
 1708 0001 00       		.zero	1
 1711              	finishedC:
 1712 0002 00       		.zero	1
 1715              	finishedD:
 1716 0003 00       		.zero	1
 1717              		.text
 1718              	.Letext0:
 1719              		.file 3 "src/../test/../h/../h/../lib/hw.h"
 1720              		.file 4 "src/../test/../h/syscall_cpp.h"
 1721              		.file 5 "src/../test/printing.h"
 1722              		.file 6 "src/../test/../h/../h/syscall_c.h"
 5769              		.align	3
 5772              	DW.ref.__gxx_personality_v0:
 5773 0000 00000000 		.dword	__gxx_personality_v0
GAS LISTING /tmp/ccfvAfd6.s 			page 39


 5773      00000000 
 5774              		.ident	"GCC: (Ubuntu 9.4.0-1ubuntu1~20.04) 9.4.0"
 5775              		.section	.note.GNU-stack,"",@progbits
GAS LISTING /tmp/ccfvAfd6.s 			page 40


DEFINED SYMBOLS
                            *ABS*:0000000000000000 userMain.cpp
     /tmp/ccfvAfd6.s:10     .text._ZN7WorkerAD2Ev:0000000000000000 _ZN7WorkerAD2Ev
     /tmp/ccfvAfd6.s:14     .text._ZN7WorkerAD2Ev:0000000000000000 .L0 
     /tmp/ccfvAfd6.s:16     .text._ZN7WorkerAD2Ev:0000000000000000 .L0 
     /tmp/ccfvAfd6.s:17     .text._ZN7WorkerAD2Ev:0000000000000004 .L0 
     /tmp/ccfvAfd6.s:20     .text._ZN7WorkerAD2Ev:000000000000000c .L0 
     /tmp/ccfvAfd6.s:21     .text._ZN7WorkerAD2Ev:000000000000000c .L0 
     /tmp/ccfvAfd6.s:23     .text._ZN7WorkerAD2Ev:0000000000000010 .L0 
     /tmp/ccfvAfd6.s:1656   .data.rel.ro.local._ZTV7WorkerA:0000000000000000 _ZTV7WorkerA
     /tmp/ccfvAfd6.s:26     .text._ZN7WorkerAD2Ev:0000000000000010 .L0 
     /tmp/ccfvAfd6.s:32     .text._ZN7WorkerAD2Ev:0000000000000028 .L0 
     /tmp/ccfvAfd6.s:34     .text._ZN7WorkerAD2Ev:000000000000002c .L0 
     /tmp/ccfvAfd6.s:35     .text._ZN7WorkerAD2Ev:000000000000002c .L0 
     /tmp/ccfvAfd6.s:37     .text._ZN7WorkerAD2Ev:0000000000000030 .L0 
     /tmp/ccfvAfd6.s:39     .text._ZN7WorkerAD2Ev:0000000000000034 .L0 
     /tmp/ccfvAfd6.s:10     .text._ZN7WorkerAD2Ev:0000000000000000 _ZN7WorkerAD1Ev
     /tmp/ccfvAfd6.s:48     .text._ZN7WorkerAD0Ev:0000000000000000 _ZN7WorkerAD0Ev
     /tmp/ccfvAfd6.s:51     .text._ZN7WorkerAD0Ev:0000000000000000 .L0 
     /tmp/ccfvAfd6.s:53     .text._ZN7WorkerAD0Ev:0000000000000000 .L0 
     /tmp/ccfvAfd6.s:54     .text._ZN7WorkerAD0Ev:0000000000000004 .L0 
     /tmp/ccfvAfd6.s:58     .text._ZN7WorkerAD0Ev:0000000000000010 .L0 
     /tmp/ccfvAfd6.s:59     .text._ZN7WorkerAD0Ev:0000000000000010 .L0 
     /tmp/ccfvAfd6.s:60     .text._ZN7WorkerAD0Ev:0000000000000010 .L0 
     /tmp/ccfvAfd6.s:62     .text._ZN7WorkerAD0Ev:0000000000000014 .L0 
     /tmp/ccfvAfd6.s:68     .text._ZN7WorkerAD0Ev:0000000000000018 .L0 
     /tmp/ccfvAfd6.s:78     .text._ZN7WorkerAD0Ev:000000000000003c .L0 
     /tmp/ccfvAfd6.s:80     .text._ZN7WorkerAD0Ev:0000000000000040 .L0 
     /tmp/ccfvAfd6.s:81     .text._ZN7WorkerAD0Ev:0000000000000040 .L0 
     /tmp/ccfvAfd6.s:83     .text._ZN7WorkerAD0Ev:0000000000000044 .L0 
     /tmp/ccfvAfd6.s:86     .text._ZN7WorkerAD0Ev:0000000000000048 .L0 
     /tmp/ccfvAfd6.s:88     .text._ZN7WorkerAD0Ev:000000000000004c .L0 
     /tmp/ccfvAfd6.s:95     .text._ZN7WorkerBD2Ev:0000000000000000 _ZN7WorkerBD2Ev
     /tmp/ccfvAfd6.s:98     .text._ZN7WorkerBD2Ev:0000000000000000 .L0 
     /tmp/ccfvAfd6.s:100    .text._ZN7WorkerBD2Ev:0000000000000000 .L0 
     /tmp/ccfvAfd6.s:101    .text._ZN7WorkerBD2Ev:0000000000000004 .L0 
     /tmp/ccfvAfd6.s:104    .text._ZN7WorkerBD2Ev:000000000000000c .L0 
     /tmp/ccfvAfd6.s:105    .text._ZN7WorkerBD2Ev:000000000000000c .L0 
     /tmp/ccfvAfd6.s:107    .text._ZN7WorkerBD2Ev:0000000000000010 .L0 
     /tmp/ccfvAfd6.s:1667   .data.rel.ro.local._ZTV7WorkerB:0000000000000000 _ZTV7WorkerB
     /tmp/ccfvAfd6.s:110    .text._ZN7WorkerBD2Ev:0000000000000010 .L0 
     /tmp/ccfvAfd6.s:116    .text._ZN7WorkerBD2Ev:0000000000000028 .L0 
     /tmp/ccfvAfd6.s:118    .text._ZN7WorkerBD2Ev:000000000000002c .L0 
     /tmp/ccfvAfd6.s:119    .text._ZN7WorkerBD2Ev:000000000000002c .L0 
     /tmp/ccfvAfd6.s:121    .text._ZN7WorkerBD2Ev:0000000000000030 .L0 
     /tmp/ccfvAfd6.s:123    .text._ZN7WorkerBD2Ev:0000000000000034 .L0 
     /tmp/ccfvAfd6.s:95     .text._ZN7WorkerBD2Ev:0000000000000000 _ZN7WorkerBD1Ev
     /tmp/ccfvAfd6.s:132    .text._ZN7WorkerBD0Ev:0000000000000000 _ZN7WorkerBD0Ev
     /tmp/ccfvAfd6.s:135    .text._ZN7WorkerBD0Ev:0000000000000000 .L0 
     /tmp/ccfvAfd6.s:137    .text._ZN7WorkerBD0Ev:0000000000000000 .L0 
     /tmp/ccfvAfd6.s:138    .text._ZN7WorkerBD0Ev:0000000000000004 .L0 
     /tmp/ccfvAfd6.s:142    .text._ZN7WorkerBD0Ev:0000000000000010 .L0 
     /tmp/ccfvAfd6.s:143    .text._ZN7WorkerBD0Ev:0000000000000010 .L0 
     /tmp/ccfvAfd6.s:144    .text._ZN7WorkerBD0Ev:0000000000000010 .L0 
     /tmp/ccfvAfd6.s:146    .text._ZN7WorkerBD0Ev:0000000000000014 .L0 
     /tmp/ccfvAfd6.s:152    .text._ZN7WorkerBD0Ev:0000000000000018 .L0 
     /tmp/ccfvAfd6.s:162    .text._ZN7WorkerBD0Ev:000000000000003c .L0 
GAS LISTING /tmp/ccfvAfd6.s 			page 41


     /tmp/ccfvAfd6.s:164    .text._ZN7WorkerBD0Ev:0000000000000040 .L0 
     /tmp/ccfvAfd6.s:165    .text._ZN7WorkerBD0Ev:0000000000000040 .L0 
     /tmp/ccfvAfd6.s:167    .text._ZN7WorkerBD0Ev:0000000000000044 .L0 
     /tmp/ccfvAfd6.s:170    .text._ZN7WorkerBD0Ev:0000000000000048 .L0 
     /tmp/ccfvAfd6.s:172    .text._ZN7WorkerBD0Ev:000000000000004c .L0 
     /tmp/ccfvAfd6.s:179    .text._ZN7WorkerCD2Ev:0000000000000000 _ZN7WorkerCD2Ev
     /tmp/ccfvAfd6.s:182    .text._ZN7WorkerCD2Ev:0000000000000000 .L0 
     /tmp/ccfvAfd6.s:184    .text._ZN7WorkerCD2Ev:0000000000000000 .L0 
     /tmp/ccfvAfd6.s:185    .text._ZN7WorkerCD2Ev:0000000000000004 .L0 
     /tmp/ccfvAfd6.s:188    .text._ZN7WorkerCD2Ev:000000000000000c .L0 
     /tmp/ccfvAfd6.s:189    .text._ZN7WorkerCD2Ev:000000000000000c .L0 
     /tmp/ccfvAfd6.s:191    .text._ZN7WorkerCD2Ev:0000000000000010 .L0 
     /tmp/ccfvAfd6.s:1678   .data.rel.ro.local._ZTV7WorkerC:0000000000000000 _ZTV7WorkerC
     /tmp/ccfvAfd6.s:194    .text._ZN7WorkerCD2Ev:0000000000000010 .L0 
     /tmp/ccfvAfd6.s:200    .text._ZN7WorkerCD2Ev:0000000000000028 .L0 
     /tmp/ccfvAfd6.s:202    .text._ZN7WorkerCD2Ev:000000000000002c .L0 
     /tmp/ccfvAfd6.s:203    .text._ZN7WorkerCD2Ev:000000000000002c .L0 
     /tmp/ccfvAfd6.s:205    .text._ZN7WorkerCD2Ev:0000000000000030 .L0 
     /tmp/ccfvAfd6.s:207    .text._ZN7WorkerCD2Ev:0000000000000034 .L0 
     /tmp/ccfvAfd6.s:179    .text._ZN7WorkerCD2Ev:0000000000000000 _ZN7WorkerCD1Ev
     /tmp/ccfvAfd6.s:216    .text._ZN7WorkerCD0Ev:0000000000000000 _ZN7WorkerCD0Ev
     /tmp/ccfvAfd6.s:219    .text._ZN7WorkerCD0Ev:0000000000000000 .L0 
     /tmp/ccfvAfd6.s:221    .text._ZN7WorkerCD0Ev:0000000000000000 .L0 
     /tmp/ccfvAfd6.s:222    .text._ZN7WorkerCD0Ev:0000000000000004 .L0 
     /tmp/ccfvAfd6.s:226    .text._ZN7WorkerCD0Ev:0000000000000010 .L0 
     /tmp/ccfvAfd6.s:227    .text._ZN7WorkerCD0Ev:0000000000000010 .L0 
     /tmp/ccfvAfd6.s:228    .text._ZN7WorkerCD0Ev:0000000000000010 .L0 
     /tmp/ccfvAfd6.s:230    .text._ZN7WorkerCD0Ev:0000000000000014 .L0 
     /tmp/ccfvAfd6.s:236    .text._ZN7WorkerCD0Ev:0000000000000018 .L0 
     /tmp/ccfvAfd6.s:246    .text._ZN7WorkerCD0Ev:000000000000003c .L0 
     /tmp/ccfvAfd6.s:248    .text._ZN7WorkerCD0Ev:0000000000000040 .L0 
     /tmp/ccfvAfd6.s:249    .text._ZN7WorkerCD0Ev:0000000000000040 .L0 
     /tmp/ccfvAfd6.s:251    .text._ZN7WorkerCD0Ev:0000000000000044 .L0 
     /tmp/ccfvAfd6.s:254    .text._ZN7WorkerCD0Ev:0000000000000048 .L0 
     /tmp/ccfvAfd6.s:256    .text._ZN7WorkerCD0Ev:000000000000004c .L0 
     /tmp/ccfvAfd6.s:263    .text._ZN7WorkerDD2Ev:0000000000000000 _ZN7WorkerDD2Ev
     /tmp/ccfvAfd6.s:266    .text._ZN7WorkerDD2Ev:0000000000000000 .L0 
     /tmp/ccfvAfd6.s:268    .text._ZN7WorkerDD2Ev:0000000000000000 .L0 
     /tmp/ccfvAfd6.s:269    .text._ZN7WorkerDD2Ev:0000000000000004 .L0 
     /tmp/ccfvAfd6.s:272    .text._ZN7WorkerDD2Ev:000000000000000c .L0 
     /tmp/ccfvAfd6.s:273    .text._ZN7WorkerDD2Ev:000000000000000c .L0 
     /tmp/ccfvAfd6.s:275    .text._ZN7WorkerDD2Ev:0000000000000010 .L0 
     /tmp/ccfvAfd6.s:1689   .data.rel.ro.local._ZTV7WorkerD:0000000000000000 _ZTV7WorkerD
     /tmp/ccfvAfd6.s:278    .text._ZN7WorkerDD2Ev:0000000000000010 .L0 
     /tmp/ccfvAfd6.s:284    .text._ZN7WorkerDD2Ev:0000000000000028 .L0 
     /tmp/ccfvAfd6.s:286    .text._ZN7WorkerDD2Ev:000000000000002c .L0 
     /tmp/ccfvAfd6.s:287    .text._ZN7WorkerDD2Ev:000000000000002c .L0 
     /tmp/ccfvAfd6.s:289    .text._ZN7WorkerDD2Ev:0000000000000030 .L0 
     /tmp/ccfvAfd6.s:291    .text._ZN7WorkerDD2Ev:0000000000000034 .L0 
     /tmp/ccfvAfd6.s:263    .text._ZN7WorkerDD2Ev:0000000000000000 _ZN7WorkerDD1Ev
     /tmp/ccfvAfd6.s:300    .text._ZN7WorkerDD0Ev:0000000000000000 _ZN7WorkerDD0Ev
     /tmp/ccfvAfd6.s:303    .text._ZN7WorkerDD0Ev:0000000000000000 .L0 
     /tmp/ccfvAfd6.s:305    .text._ZN7WorkerDD0Ev:0000000000000000 .L0 
     /tmp/ccfvAfd6.s:306    .text._ZN7WorkerDD0Ev:0000000000000004 .L0 
     /tmp/ccfvAfd6.s:310    .text._ZN7WorkerDD0Ev:0000000000000010 .L0 
     /tmp/ccfvAfd6.s:311    .text._ZN7WorkerDD0Ev:0000000000000010 .L0 
     /tmp/ccfvAfd6.s:312    .text._ZN7WorkerDD0Ev:0000000000000010 .L0 
GAS LISTING /tmp/ccfvAfd6.s 			page 42


     /tmp/ccfvAfd6.s:314    .text._ZN7WorkerDD0Ev:0000000000000014 .L0 
     /tmp/ccfvAfd6.s:320    .text._ZN7WorkerDD0Ev:0000000000000018 .L0 
     /tmp/ccfvAfd6.s:330    .text._ZN7WorkerDD0Ev:000000000000003c .L0 
     /tmp/ccfvAfd6.s:332    .text._ZN7WorkerDD0Ev:0000000000000040 .L0 
     /tmp/ccfvAfd6.s:333    .text._ZN7WorkerDD0Ev:0000000000000040 .L0 
     /tmp/ccfvAfd6.s:335    .text._ZN7WorkerDD0Ev:0000000000000044 .L0 
     /tmp/ccfvAfd6.s:338    .text._ZN7WorkerDD0Ev:0000000000000048 .L0 
     /tmp/ccfvAfd6.s:340    .text._ZN7WorkerDD0Ev:000000000000004c .L0 
     /tmp/ccfvAfd6.s:347    .text:0000000000000000 _Z9fibonaccim
     /tmp/ccfvAfd6.s:350    .text:0000000000000000 .L0 
     /tmp/ccfvAfd6.s:352    .text:0000000000000000 .L0 
     /tmp/ccfvAfd6.s:353    .text:0000000000000004 .L0 
     /tmp/ccfvAfd6.s:358    .text:0000000000000014 .L0 
     /tmp/ccfvAfd6.s:359    .text:0000000000000014 .L0 
     /tmp/ccfvAfd6.s:360    .text:0000000000000014 .L0 
     /tmp/ccfvAfd6.s:361    .text:0000000000000014 .L0 
     /tmp/ccfvAfd6.s:363    .text:0000000000000018 .L0 
     /tmp/ccfvAfd6.s:366    .text:000000000000001c .L0 
     /tmp/ccfvAfd6.s:369    .text:0000000000000024 .L0 
     /tmp/ccfvAfd6.s:370    .text:0000000000000024 .L0 
     /tmp/ccfvAfd6.s:373    .text:000000000000002c .L0 
     /tmp/ccfvAfd6.s:377    .text:0000000000000030 .L0 
     /tmp/ccfvAfd6.s:378    .text:0000000000000030 .L0 
     /tmp/ccfvAfd6.s:383    .text:0000000000000040 .L0 
     /tmp/ccfvAfd6.s:387    .text:000000000000004c .L0 
     /tmp/ccfvAfd6.s:390    .text:0000000000000050 .L0 
     /tmp/ccfvAfd6.s:391    .text:0000000000000054 .L0 
     /tmp/ccfvAfd6.s:392    .text:0000000000000054 .L0 
     /tmp/ccfvAfd6.s:394    .text:0000000000000058 .L0 
     /tmp/ccfvAfd6.s:395    .text:0000000000000058 .L0 
     /tmp/ccfvAfd6.s:397    .text:000000000000005c .L0 
     /tmp/ccfvAfd6.s:400    .text:0000000000000060 .L0 
     /tmp/ccfvAfd6.s:402    .text:0000000000000064 .L0 
     /tmp/ccfvAfd6.s:406    .text:0000000000000068 .L0 
     /tmp/ccfvAfd6.s:408    .text:0000000000000068 .L0 
     /tmp/ccfvAfd6.s:409    .text:0000000000000068 .L0 
     /tmp/ccfvAfd6.s:412    .text:0000000000000074 .L0 
     /tmp/ccfvAfd6.s:429    .text:0000000000000074 _ZN7WorkerA11workerBodyAEPv
     /tmp/ccfvAfd6.s:432    .text:0000000000000074 .L0 
     /tmp/ccfvAfd6.s:434    .text:0000000000000074 .L0 
     /tmp/ccfvAfd6.s:435    .text:0000000000000078 .L0 
     /tmp/ccfvAfd6.s:440    .text:0000000000000088 .L0 
     /tmp/ccfvAfd6.s:441    .text:0000000000000088 .L0 
     /tmp/ccfvAfd6.s:442    .text:0000000000000088 .L0 
     /tmp/ccfvAfd6.s:443    .text:0000000000000088 .L0 
     /tmp/ccfvAfd6.s:445    .text:000000000000008c .L0 
     /tmp/ccfvAfd6.s:449    .text:000000000000008c .L0 
     /tmp/ccfvAfd6.s:450    .text:000000000000008c .L0 
     /tmp/ccfvAfd6.s:458    .text:0000000000000094 .L0 
     /tmp/ccfvAfd6.s:459    .text:0000000000000094 .L0 
     /tmp/ccfvAfd6.s:463    .text:000000000000009c .L0 
     /tmp/ccfvAfd6.s:467    .text:00000000000000a0 .L0 
     /tmp/ccfvAfd6.s:473    .text:00000000000000ac .L0 
     /tmp/ccfvAfd6.s:477    .text:00000000000000b0 .L0 
     /tmp/ccfvAfd6.s:481    .text:00000000000000bc .L0 
     /tmp/ccfvAfd6.s:491    .text:00000000000000c4 .L0 
     /tmp/ccfvAfd6.s:495    .text:00000000000000c8 .L0 
GAS LISTING /tmp/ccfvAfd6.s 			page 43


     /tmp/ccfvAfd6.s:499    .text:00000000000000d0 .L0 
     /tmp/ccfvAfd6.s:500    .text:00000000000000d0 .L0 
     /tmp/ccfvAfd6.s:504    .text:00000000000000e0 .L0 
     /tmp/ccfvAfd6.s:505    .text:00000000000000e0 .L0 
     /tmp/ccfvAfd6.s:511    .text:00000000000000f4 .L0 
     /tmp/ccfvAfd6.s:512    .text:00000000000000f4 .L0 
     /tmp/ccfvAfd6.s:517    .text:0000000000000104 .L0 
     /tmp/ccfvAfd6.s:518    .text:0000000000000104 .L0 
     /tmp/ccfvAfd6.s:526    .text:000000000000010c .L0 
     /tmp/ccfvAfd6.s:527    .text:000000000000010c .L0 
     /tmp/ccfvAfd6.s:531    .text:000000000000011c .L0 
     /tmp/ccfvAfd6.s:532    .text:000000000000011c .L0 
     /tmp/ccfvAfd6.s:535    .text:0000000000000128 .L0 
     /tmp/ccfvAfd6.s:536    .text:0000000000000128 .L0 
     /tmp/ccfvAfd6.s:539    .text:0000000000000130 .L0 
     /tmp/ccfvAfd6.s:540    .text:0000000000000130 .L0 
     /tmp/ccfvAfd6.s:543    .text:0000000000000138 .L0 
     /tmp/ccfvAfd6.s:544    .text:000000000000013c .L0 
     /tmp/ccfvAfd6.s:546    .text:0000000000000140 .L0 
     /tmp/ccfvAfd6.s:547    .text:0000000000000140 .L0 
     /tmp/ccfvAfd6.s:549    .text:0000000000000144 .L0 
     /tmp/ccfvAfd6.s:551    .text:0000000000000148 .L0 
     /tmp/ccfvAfd6.s:554    .text:000000000000014c .L0 
     /tmp/ccfvAfd6.s:556    .text:0000000000000150 .L0 
     /tmp/ccfvAfd6.s:563    .text._ZN7WorkerA3runEv:0000000000000000 _ZN7WorkerA3runEv
     /tmp/ccfvAfd6.s:566    .text._ZN7WorkerA3runEv:0000000000000000 .L0 
     /tmp/ccfvAfd6.s:568    .text._ZN7WorkerA3runEv:0000000000000000 .L0 
     /tmp/ccfvAfd6.s:569    .text._ZN7WorkerA3runEv:0000000000000004 .L0 
     /tmp/ccfvAfd6.s:572    .text._ZN7WorkerA3runEv:000000000000000c .L0 
     /tmp/ccfvAfd6.s:573    .text._ZN7WorkerA3runEv:000000000000000c .L0 
     /tmp/ccfvAfd6.s:575    .text._ZN7WorkerA3runEv:0000000000000010 .L0 
     /tmp/ccfvAfd6.s:577    .text._ZN7WorkerA3runEv:0000000000000010 .L0 
     /tmp/ccfvAfd6.s:578    .text._ZN7WorkerA3runEv:0000000000000010 .L0 
     /tmp/ccfvAfd6.s:582    .text._ZN7WorkerA3runEv:000000000000001c .L0 
     /tmp/ccfvAfd6.s:583    .text._ZN7WorkerA3runEv:0000000000000020 .L0 
     /tmp/ccfvAfd6.s:585    .text._ZN7WorkerA3runEv:0000000000000024 .L0 
     /tmp/ccfvAfd6.s:586    .text._ZN7WorkerA3runEv:0000000000000024 .L0 
     /tmp/ccfvAfd6.s:588    .text._ZN7WorkerA3runEv:0000000000000028 .L0 
     /tmp/ccfvAfd6.s:590    .text._ZN7WorkerA3runEv:000000000000002c .L0 
     /tmp/ccfvAfd6.s:604    .text:0000000000000150 _ZN7WorkerB11workerBodyBEPv
     /tmp/ccfvAfd6.s:607    .text:0000000000000150 .L0 
     /tmp/ccfvAfd6.s:609    .text:0000000000000150 .L0 
     /tmp/ccfvAfd6.s:610    .text:0000000000000154 .L0 
     /tmp/ccfvAfd6.s:615    .text:0000000000000164 .L0 
     /tmp/ccfvAfd6.s:616    .text:0000000000000164 .L0 
     /tmp/ccfvAfd6.s:617    .text:0000000000000164 .L0 
     /tmp/ccfvAfd6.s:618    .text:0000000000000164 .L0 
     /tmp/ccfvAfd6.s:620    .text:0000000000000168 .L0 
     /tmp/ccfvAfd6.s:624    .text:0000000000000168 .L0 
     /tmp/ccfvAfd6.s:625    .text:0000000000000168 .L0 
     /tmp/ccfvAfd6.s:633    .text:0000000000000170 .L0 
     /tmp/ccfvAfd6.s:634    .text:0000000000000170 .L0 
     /tmp/ccfvAfd6.s:638    .text:0000000000000178 .L0 
     /tmp/ccfvAfd6.s:642    .text:000000000000017c .L0 
     /tmp/ccfvAfd6.s:648    .text:0000000000000188 .L0 
     /tmp/ccfvAfd6.s:652    .text:000000000000018c .L0 
     /tmp/ccfvAfd6.s:656    .text:0000000000000198 .L0 
GAS LISTING /tmp/ccfvAfd6.s 			page 44


     /tmp/ccfvAfd6.s:666    .text:00000000000001a0 .L0 
     /tmp/ccfvAfd6.s:670    .text:00000000000001a4 .L0 
     /tmp/ccfvAfd6.s:674    .text:00000000000001ac .L0 
     /tmp/ccfvAfd6.s:675    .text:00000000000001ac .L0 
     /tmp/ccfvAfd6.s:679    .text:00000000000001bc .L0 
     /tmp/ccfvAfd6.s:680    .text:00000000000001bc .L0 
     /tmp/ccfvAfd6.s:686    .text:00000000000001d0 .L0 
     /tmp/ccfvAfd6.s:687    .text:00000000000001d0 .L0 
     /tmp/ccfvAfd6.s:692    .text:00000000000001e0 .L0 
     /tmp/ccfvAfd6.s:693    .text:00000000000001e0 .L0 
     /tmp/ccfvAfd6.s:701    .text:00000000000001e8 .L0 
     /tmp/ccfvAfd6.s:702    .text:00000000000001e8 .L0 
     /tmp/ccfvAfd6.s:706    .text:00000000000001f8 .L0 
     /tmp/ccfvAfd6.s:707    .text:00000000000001f8 .L0 
     /tmp/ccfvAfd6.s:710    .text:0000000000000204 .L0 
     /tmp/ccfvAfd6.s:711    .text:0000000000000204 .L0 
     /tmp/ccfvAfd6.s:714    .text:000000000000020c .L0 
     /tmp/ccfvAfd6.s:715    .text:000000000000020c .L0 
     /tmp/ccfvAfd6.s:718    .text:0000000000000214 .L0 
     /tmp/ccfvAfd6.s:719    .text:0000000000000218 .L0 
     /tmp/ccfvAfd6.s:721    .text:000000000000021c .L0 
     /tmp/ccfvAfd6.s:722    .text:000000000000021c .L0 
     /tmp/ccfvAfd6.s:724    .text:0000000000000220 .L0 
     /tmp/ccfvAfd6.s:726    .text:0000000000000224 .L0 
     /tmp/ccfvAfd6.s:729    .text:0000000000000228 .L0 
     /tmp/ccfvAfd6.s:731    .text:000000000000022c .L0 
     /tmp/ccfvAfd6.s:738    .text._ZN7WorkerB3runEv:0000000000000000 _ZN7WorkerB3runEv
     /tmp/ccfvAfd6.s:741    .text._ZN7WorkerB3runEv:0000000000000000 .L0 
     /tmp/ccfvAfd6.s:743    .text._ZN7WorkerB3runEv:0000000000000000 .L0 
     /tmp/ccfvAfd6.s:744    .text._ZN7WorkerB3runEv:0000000000000004 .L0 
     /tmp/ccfvAfd6.s:747    .text._ZN7WorkerB3runEv:000000000000000c .L0 
     /tmp/ccfvAfd6.s:748    .text._ZN7WorkerB3runEv:000000000000000c .L0 
     /tmp/ccfvAfd6.s:750    .text._ZN7WorkerB3runEv:0000000000000010 .L0 
     /tmp/ccfvAfd6.s:752    .text._ZN7WorkerB3runEv:0000000000000010 .L0 
     /tmp/ccfvAfd6.s:753    .text._ZN7WorkerB3runEv:0000000000000010 .L0 
     /tmp/ccfvAfd6.s:757    .text._ZN7WorkerB3runEv:000000000000001c .L0 
     /tmp/ccfvAfd6.s:758    .text._ZN7WorkerB3runEv:0000000000000020 .L0 
     /tmp/ccfvAfd6.s:760    .text._ZN7WorkerB3runEv:0000000000000024 .L0 
     /tmp/ccfvAfd6.s:761    .text._ZN7WorkerB3runEv:0000000000000024 .L0 
     /tmp/ccfvAfd6.s:763    .text._ZN7WorkerB3runEv:0000000000000028 .L0 
     /tmp/ccfvAfd6.s:765    .text._ZN7WorkerB3runEv:000000000000002c .L0 
     /tmp/ccfvAfd6.s:788    .text:000000000000022c _ZN7WorkerC11workerBodyCEPv
     /tmp/ccfvAfd6.s:791    .text:000000000000022c .L0 
     /tmp/ccfvAfd6.s:793    .text:000000000000022c .L0 
     /tmp/ccfvAfd6.s:794    .text:0000000000000230 .L0 
     /tmp/ccfvAfd6.s:799    .text:0000000000000240 .L0 
     /tmp/ccfvAfd6.s:800    .text:0000000000000240 .L0 
     /tmp/ccfvAfd6.s:801    .text:0000000000000240 .L0 
     /tmp/ccfvAfd6.s:802    .text:0000000000000240 .L0 
     /tmp/ccfvAfd6.s:804    .text:0000000000000244 .L0 
     /tmp/ccfvAfd6.s:807    .text:0000000000000244 .L0 
     /tmp/ccfvAfd6.s:808    .text:0000000000000244 .L0 
     /tmp/ccfvAfd6.s:813    .text:000000000000024c .L0 
     /tmp/ccfvAfd6.s:814    .text:000000000000024c .L0 
     /tmp/ccfvAfd6.s:818    .text:000000000000025c .L0 
     /tmp/ccfvAfd6.s:819    .text:000000000000025c .L0 
     /tmp/ccfvAfd6.s:825    .text:0000000000000270 .L0 
GAS LISTING /tmp/ccfvAfd6.s 			page 45


     /tmp/ccfvAfd6.s:826    .text:0000000000000270 .L0 
     /tmp/ccfvAfd6.s:830    .text:0000000000000280 .L0 
     /tmp/ccfvAfd6.s:836    .text:0000000000000288 .L0 
     /tmp/ccfvAfd6.s:837    .text:0000000000000288 .L0 
     /tmp/ccfvAfd6.s:840    .text:0000000000000290 .L0 
     /tmp/ccfvAfd6.s:841    .text:0000000000000290 .L0 
     /tmp/ccfvAfd6.s:845    .text:00000000000002a0 .L0 
src/../test/Threads_CPP_API_test.h:97     .text:00000000000002a0 .L0 
     /tmp/ccfvAfd6.s:851    .text:00000000000002a4 .L0 
     /tmp/ccfvAfd6.s:853    .text:00000000000002a4 .L0 
     /tmp/ccfvAfd6.s:856    .text:00000000000002ac .L0 
     /tmp/ccfvAfd6.s:857    .text:00000000000002ac .L0 
src/../test/Threads_CPP_API_test.h:101    .text:00000000000002ac .L0 
     /tmp/ccfvAfd6.s:864    .text:00000000000002b0 .L0 
     /tmp/ccfvAfd6.s:866    .text:00000000000002b0 .L0 
     /tmp/ccfvAfd6.s:870    .text:00000000000002c0 .L0 
     /tmp/ccfvAfd6.s:871    .text:00000000000002c0 .L0 
     /tmp/ccfvAfd6.s:877    .text:00000000000002d4 .L0 
     /tmp/ccfvAfd6.s:878    .text:00000000000002d4 .L0 
     /tmp/ccfvAfd6.s:882    .text:00000000000002e4 .L0 
     /tmp/ccfvAfd6.s:883    .text:00000000000002e4 .L0 
     /tmp/ccfvAfd6.s:889    .text:00000000000002f4 .L0 
     /tmp/ccfvAfd6.s:890    .text:00000000000002f4 .L0 
     /tmp/ccfvAfd6.s:895    .text:0000000000000304 .L0 
     /tmp/ccfvAfd6.s:896    .text:0000000000000304 .L0 
     /tmp/ccfvAfd6.s:902    .text:0000000000000318 .L0 
     /tmp/ccfvAfd6.s:903    .text:0000000000000318 .L0 
     /tmp/ccfvAfd6.s:909    .text:000000000000032c .L0 
     /tmp/ccfvAfd6.s:910    .text:000000000000032c .L0 
     /tmp/ccfvAfd6.s:914    .text:000000000000033c .L0 
     /tmp/ccfvAfd6.s:915    .text:000000000000033c .L0 
     /tmp/ccfvAfd6.s:921    .text:0000000000000350 .L0 
     /tmp/ccfvAfd6.s:922    .text:0000000000000350 .L0 
     /tmp/ccfvAfd6.s:926    .text:0000000000000360 .L0 
     /tmp/ccfvAfd6.s:932    .text:0000000000000368 .L0 
     /tmp/ccfvAfd6.s:933    .text:0000000000000368 .L0 
     /tmp/ccfvAfd6.s:936    .text:0000000000000370 .L0 
     /tmp/ccfvAfd6.s:937    .text:0000000000000370 .L0 
     /tmp/ccfvAfd6.s:941    .text:0000000000000380 .L0 
     /tmp/ccfvAfd6.s:942    .text:0000000000000380 .L0 
     /tmp/ccfvAfd6.s:945    .text:000000000000038c .L0 
     /tmp/ccfvAfd6.s:946    .text:000000000000038c .L0 
     /tmp/ccfvAfd6.s:949    .text:0000000000000394 .L0 
     /tmp/ccfvAfd6.s:950    .text:0000000000000394 .L0 
     /tmp/ccfvAfd6.s:953    .text:000000000000039c .L0 
     /tmp/ccfvAfd6.s:954    .text:00000000000003a0 .L0 
     /tmp/ccfvAfd6.s:956    .text:00000000000003a4 .L0 
     /tmp/ccfvAfd6.s:957    .text:00000000000003a4 .L0 
     /tmp/ccfvAfd6.s:959    .text:00000000000003a8 .L0 
     /tmp/ccfvAfd6.s:962    .text:00000000000003ac .L0 
     /tmp/ccfvAfd6.s:965    .text:00000000000003b0 .L0 
     /tmp/ccfvAfd6.s:967    .text:00000000000003b4 .L0 
     /tmp/ccfvAfd6.s:974    .text._ZN7WorkerC3runEv:0000000000000000 _ZN7WorkerC3runEv
     /tmp/ccfvAfd6.s:977    .text._ZN7WorkerC3runEv:0000000000000000 .L0 
     /tmp/ccfvAfd6.s:979    .text._ZN7WorkerC3runEv:0000000000000000 .L0 
     /tmp/ccfvAfd6.s:980    .text._ZN7WorkerC3runEv:0000000000000004 .L0 
     /tmp/ccfvAfd6.s:983    .text._ZN7WorkerC3runEv:000000000000000c .L0 
GAS LISTING /tmp/ccfvAfd6.s 			page 46


     /tmp/ccfvAfd6.s:984    .text._ZN7WorkerC3runEv:000000000000000c .L0 
     /tmp/ccfvAfd6.s:986    .text._ZN7WorkerC3runEv:0000000000000010 .L0 
     /tmp/ccfvAfd6.s:988    .text._ZN7WorkerC3runEv:0000000000000010 .L0 
     /tmp/ccfvAfd6.s:989    .text._ZN7WorkerC3runEv:0000000000000010 .L0 
     /tmp/ccfvAfd6.s:993    .text._ZN7WorkerC3runEv:000000000000001c .L0 
     /tmp/ccfvAfd6.s:994    .text._ZN7WorkerC3runEv:0000000000000020 .L0 
     /tmp/ccfvAfd6.s:996    .text._ZN7WorkerC3runEv:0000000000000024 .L0 
     /tmp/ccfvAfd6.s:997    .text._ZN7WorkerC3runEv:0000000000000024 .L0 
     /tmp/ccfvAfd6.s:999    .text._ZN7WorkerC3runEv:0000000000000028 .L0 
     /tmp/ccfvAfd6.s:1001   .text._ZN7WorkerC3runEv:000000000000002c .L0 
     /tmp/ccfvAfd6.s:1021   .text:00000000000003b4 _ZN7WorkerD11workerBodyDEPv
     /tmp/ccfvAfd6.s:1024   .text:00000000000003b4 .L0 
     /tmp/ccfvAfd6.s:1026   .text:00000000000003b4 .L0 
     /tmp/ccfvAfd6.s:1027   .text:00000000000003b8 .L0 
     /tmp/ccfvAfd6.s:1032   .text:00000000000003c8 .L0 
     /tmp/ccfvAfd6.s:1033   .text:00000000000003c8 .L0 
     /tmp/ccfvAfd6.s:1034   .text:00000000000003c8 .L0 
     /tmp/ccfvAfd6.s:1035   .text:00000000000003c8 .L0 
     /tmp/ccfvAfd6.s:1037   .text:00000000000003cc .L0 
     /tmp/ccfvAfd6.s:1040   .text:00000000000003cc .L0 
     /tmp/ccfvAfd6.s:1041   .text:00000000000003cc .L0 
     /tmp/ccfvAfd6.s:1046   .text:00000000000003d4 .L0 
     /tmp/ccfvAfd6.s:1047   .text:00000000000003d4 .L0 
     /tmp/ccfvAfd6.s:1051   .text:00000000000003e4 .L0 
     /tmp/ccfvAfd6.s:1052   .text:00000000000003e4 .L0 
     /tmp/ccfvAfd6.s:1058   .text:00000000000003f8 .L0 
     /tmp/ccfvAfd6.s:1059   .text:00000000000003f8 .L0 
     /tmp/ccfvAfd6.s:1063   .text:0000000000000408 .L0 
     /tmp/ccfvAfd6.s:1069   .text:0000000000000410 .L0 
     /tmp/ccfvAfd6.s:1070   .text:0000000000000410 .L0 
     /tmp/ccfvAfd6.s:1073   .text:0000000000000418 .L0 
     /tmp/ccfvAfd6.s:1074   .text:0000000000000418 .L0 
     /tmp/ccfvAfd6.s:1078   .text:0000000000000428 .L0 
src/../test/Threads_CPP_API_test.h:125    .text:0000000000000428 .L0 
     /tmp/ccfvAfd6.s:1084   .text:000000000000042c .L0 
     /tmp/ccfvAfd6.s:1086   .text:000000000000042c .L0 
     /tmp/ccfvAfd6.s:1089   .text:0000000000000434 .L0 
     /tmp/ccfvAfd6.s:1090   .text:0000000000000434 .L0 
     /tmp/ccfvAfd6.s:1096   .text:0000000000000444 .L0 
     /tmp/ccfvAfd6.s:1097   .text:0000000000000444 .L0 
     /tmp/ccfvAfd6.s:1102   .text:0000000000000454 .L0 
     /tmp/ccfvAfd6.s:1103   .text:0000000000000454 .L0 
     /tmp/ccfvAfd6.s:1109   .text:0000000000000468 .L0 
     /tmp/ccfvAfd6.s:1110   .text:0000000000000468 .L0 
     /tmp/ccfvAfd6.s:1116   .text:000000000000047c .L0 
     /tmp/ccfvAfd6.s:1117   .text:000000000000047c .L0 
     /tmp/ccfvAfd6.s:1121   .text:000000000000048c .L0 
     /tmp/ccfvAfd6.s:1122   .text:000000000000048c .L0 
     /tmp/ccfvAfd6.s:1128   .text:00000000000004a0 .L0 
     /tmp/ccfvAfd6.s:1129   .text:00000000000004a0 .L0 
     /tmp/ccfvAfd6.s:1133   .text:00000000000004b0 .L0 
     /tmp/ccfvAfd6.s:1139   .text:00000000000004b8 .L0 
     /tmp/ccfvAfd6.s:1140   .text:00000000000004b8 .L0 
     /tmp/ccfvAfd6.s:1143   .text:00000000000004c0 .L0 
     /tmp/ccfvAfd6.s:1144   .text:00000000000004c0 .L0 
     /tmp/ccfvAfd6.s:1148   .text:00000000000004d0 .L0 
     /tmp/ccfvAfd6.s:1149   .text:00000000000004d0 .L0 
GAS LISTING /tmp/ccfvAfd6.s 			page 47


     /tmp/ccfvAfd6.s:1152   .text:00000000000004dc .L0 
     /tmp/ccfvAfd6.s:1153   .text:00000000000004dc .L0 
     /tmp/ccfvAfd6.s:1156   .text:00000000000004e4 .L0 
     /tmp/ccfvAfd6.s:1157   .text:00000000000004e4 .L0 
     /tmp/ccfvAfd6.s:1160   .text:00000000000004ec .L0 
     /tmp/ccfvAfd6.s:1161   .text:00000000000004f0 .L0 
     /tmp/ccfvAfd6.s:1163   .text:00000000000004f4 .L0 
     /tmp/ccfvAfd6.s:1164   .text:00000000000004f4 .L0 
     /tmp/ccfvAfd6.s:1166   .text:00000000000004f8 .L0 
     /tmp/ccfvAfd6.s:1169   .text:00000000000004fc .L0 
     /tmp/ccfvAfd6.s:1172   .text:0000000000000500 .L0 
     /tmp/ccfvAfd6.s:1174   .text:0000000000000504 .L0 
     /tmp/ccfvAfd6.s:1181   .text._ZN7WorkerD3runEv:0000000000000000 _ZN7WorkerD3runEv
     /tmp/ccfvAfd6.s:1184   .text._ZN7WorkerD3runEv:0000000000000000 .L0 
     /tmp/ccfvAfd6.s:1186   .text._ZN7WorkerD3runEv:0000000000000000 .L0 
     /tmp/ccfvAfd6.s:1187   .text._ZN7WorkerD3runEv:0000000000000004 .L0 
     /tmp/ccfvAfd6.s:1190   .text._ZN7WorkerD3runEv:000000000000000c .L0 
     /tmp/ccfvAfd6.s:1191   .text._ZN7WorkerD3runEv:000000000000000c .L0 
     /tmp/ccfvAfd6.s:1193   .text._ZN7WorkerD3runEv:0000000000000010 .L0 
     /tmp/ccfvAfd6.s:1195   .text._ZN7WorkerD3runEv:0000000000000010 .L0 
     /tmp/ccfvAfd6.s:1196   .text._ZN7WorkerD3runEv:0000000000000010 .L0 
     /tmp/ccfvAfd6.s:1200   .text._ZN7WorkerD3runEv:000000000000001c .L0 
     /tmp/ccfvAfd6.s:1201   .text._ZN7WorkerD3runEv:0000000000000020 .L0 
     /tmp/ccfvAfd6.s:1203   .text._ZN7WorkerD3runEv:0000000000000024 .L0 
     /tmp/ccfvAfd6.s:1204   .text._ZN7WorkerD3runEv:0000000000000024 .L0 
     /tmp/ccfvAfd6.s:1206   .text._ZN7WorkerD3runEv:0000000000000028 .L0 
     /tmp/ccfvAfd6.s:1208   .text._ZN7WorkerD3runEv:000000000000002c .L0 
     /tmp/ccfvAfd6.s:1215   .text:0000000000000504 _Z4bodyPv
     /tmp/ccfvAfd6.s:1218   .text:0000000000000504 .L0 
     /tmp/ccfvAfd6.s:1220   .text:0000000000000504 .L0 
     /tmp/ccfvAfd6.s:1221   .text:0000000000000508 .L0 
     /tmp/ccfvAfd6.s:1225   .text:0000000000000514 .L0 
     /tmp/ccfvAfd6.s:1226   .text:0000000000000514 .L0 
     /tmp/ccfvAfd6.s:1227   .text:0000000000000514 .L0 
     /tmp/ccfvAfd6.s:1229   .text:0000000000000518 .L0 
     /tmp/ccfvAfd6.s:1232   .text:0000000000000518 .L0 
     /tmp/ccfvAfd6.s:1233   .text:0000000000000518 .L0 
     /tmp/ccfvAfd6.s:1238   .text:0000000000000520 .L0 
     /tmp/ccfvAfd6.s:1239   .text:0000000000000520 .L0 
     /tmp/ccfvAfd6.s:1243   .text:0000000000000530 .L0 
     /tmp/ccfvAfd6.s:1244   .text:0000000000000530 .L0 
     /tmp/ccfvAfd6.s:1250   .text:0000000000000544 .L0 
     /tmp/ccfvAfd6.s:1251   .text:0000000000000544 .L0 
     /tmp/ccfvAfd6.s:1255   .text:0000000000000554 .L0 
     /tmp/ccfvAfd6.s:1259   .text:0000000000000558 .L0 
     /tmp/ccfvAfd6.s:1260   .text:0000000000000558 .L0 
     /tmp/ccfvAfd6.s:1263   .text:0000000000000560 .L0 
     /tmp/ccfvAfd6.s:1264   .text:0000000000000564 .L0 
     /tmp/ccfvAfd6.s:1266   .text:0000000000000568 .L0 
     /tmp/ccfvAfd6.s:1267   .text:0000000000000568 .L0 
     /tmp/ccfvAfd6.s:1269   .text:000000000000056c .L0 
     /tmp/ccfvAfd6.s:1272   .text:0000000000000570 .L0 
     /tmp/ccfvAfd6.s:1274   .text:0000000000000574 .L0 
     /tmp/ccfvAfd6.s:1294   .text:0000000000000574 _Z20Threads_CPP_API_testv
     /tmp/ccfvAfd6.s:1297   .text:0000000000000574 .L0 
     /tmp/ccfvAfd6.s:5772   .data.rel.local.DW.ref.__gxx_personality_v0:0000000000000000 DW.ref.__gxx_personality_v0
     /tmp/ccfvAfd6.s:1300   .text:0000000000000574 .L0 
GAS LISTING /tmp/ccfvAfd6.s 			page 48


     /tmp/ccfvAfd6.s:1301   .text:0000000000000578 .L0 
     /tmp/ccfvAfd6.s:1306   .text:0000000000000588 .L0 
     /tmp/ccfvAfd6.s:1307   .text:0000000000000588 .L0 
     /tmp/ccfvAfd6.s:1308   .text:0000000000000588 .L0 
     /tmp/ccfvAfd6.s:1309   .text:0000000000000588 .L0 
     /tmp/ccfvAfd6.s:1311   .text:000000000000058c .L0 
     /tmp/ccfvAfd6.s:1313   .text:000000000000058c .L0 
     /tmp/ccfvAfd6.s:1314   .text:000000000000058c .L0 
     /tmp/ccfvAfd6.s:1315   .text:000000000000058c .L0 
     /tmp/ccfvAfd6.s:1326   .text:000000000000059c .L0 
     /tmp/ccfvAfd6.s:1335   .text:00000000000005b0 .L0 
     /tmp/ccfvAfd6.s:1337   .text:00000000000005b4 .L0 
     /tmp/ccfvAfd6.s:1338   .text:00000000000005b4 .L0 
     /tmp/ccfvAfd6.s:1343   .text:00000000000005c4 .L0 
     /tmp/ccfvAfd6.s:1344   .text:00000000000005c4 .L0 
     /tmp/ccfvAfd6.s:1354   .text:00000000000005d4 .L0 
     /tmp/ccfvAfd6.s:1363   .text:00000000000005e8 .L0 
     /tmp/ccfvAfd6.s:1365   .text:00000000000005ec .L0 
     /tmp/ccfvAfd6.s:1366   .text:00000000000005ec .L0 
     /tmp/ccfvAfd6.s:1371   .text:00000000000005fc .L0 
     /tmp/ccfvAfd6.s:1372   .text:00000000000005fc .L0 
     /tmp/ccfvAfd6.s:1382   .text:000000000000060c .L0 
     /tmp/ccfvAfd6.s:1391   .text:0000000000000620 .L0 
     /tmp/ccfvAfd6.s:1393   .text:0000000000000624 .L0 
     /tmp/ccfvAfd6.s:1394   .text:0000000000000624 .L0 
     /tmp/ccfvAfd6.s:1399   .text:0000000000000634 .L0 
     /tmp/ccfvAfd6.s:1400   .text:0000000000000634 .L0 
     /tmp/ccfvAfd6.s:1410   .text:0000000000000644 .L0 
     /tmp/ccfvAfd6.s:1419   .text:0000000000000658 .L0 
     /tmp/ccfvAfd6.s:1421   .text:000000000000065c .L0 
     /tmp/ccfvAfd6.s:1422   .text:000000000000065c .L0 
     /tmp/ccfvAfd6.s:1428   .text:000000000000066c .L0 
     /tmp/ccfvAfd6.s:1432   .text:0000000000000670 .L0 
     /tmp/ccfvAfd6.s:1435   .text:0000000000000678 .L0 
     /tmp/ccfvAfd6.s:1436   .text:0000000000000678 .L0 
     /tmp/ccfvAfd6.s:1440   .text:0000000000000684 .L0 
     /tmp/ccfvAfd6.s:1444   .text:0000000000000690 .L0 
     /tmp/ccfvAfd6.s:1451   .text:0000000000000698 .L0 
     /tmp/ccfvAfd6.s:1452   .text:0000000000000698 .L0 
     /tmp/ccfvAfd6.s:1457   .text:00000000000006a0 .L0 
     /tmp/ccfvAfd6.s:1458   .text:00000000000006a0 .L0 
     /tmp/ccfvAfd6.s:1461   .text:00000000000006ac .L0 
     /tmp/ccfvAfd6.s:1464   .text:00000000000006b8 .L0 
     /tmp/ccfvAfd6.s:1467   .text:00000000000006c4 .L0 
     /tmp/ccfvAfd6.s:1471   .text:00000000000006d0 .L0 
     /tmp/ccfvAfd6.s:1477   .text:00000000000006d8 .L0 
     /tmp/ccfvAfd6.s:1481   .text:00000000000006dc .L0 
     /tmp/ccfvAfd6.s:1484   .text:00000000000006e4 .L0 
     /tmp/ccfvAfd6.s:1487   .text:00000000000006e8 .L0 
     /tmp/ccfvAfd6.s:1488   .text:00000000000006e8 .L0 
     /tmp/ccfvAfd6.s:1490   .text:00000000000006ec .L0 
     /tmp/ccfvAfd6.s:1500   .text:0000000000000700 .L0 
     /tmp/ccfvAfd6.s:1511   .text:000000000000071c .L0 
     /tmp/ccfvAfd6.s:1522   .text:0000000000000738 .L0 
     /tmp/ccfvAfd6.s:1533   .text:0000000000000754 .L0 
     /tmp/ccfvAfd6.s:1543   .text:000000000000076c .L0 
     /tmp/ccfvAfd6.s:1544   .text:0000000000000770 .L0 
GAS LISTING /tmp/ccfvAfd6.s 			page 49


     /tmp/ccfvAfd6.s:1546   .text:0000000000000774 .L0 
     /tmp/ccfvAfd6.s:1547   .text:0000000000000774 .L0 
     /tmp/ccfvAfd6.s:1549   .text:0000000000000778 .L0 
     /tmp/ccfvAfd6.s:1552   .text:000000000000077c .L0 
     /tmp/ccfvAfd6.s:1554   .text:0000000000000780 .L0 
     /tmp/ccfvAfd6.s:1556   .text:0000000000000784 .L0 
     /tmp/ccfvAfd6.s:1622   .text:0000000000000784 _Z8userMainPv
     /tmp/ccfvAfd6.s:1626   .text:0000000000000784 .L0 
     /tmp/ccfvAfd6.s:1627   .text:0000000000000784 .L0 
     /tmp/ccfvAfd6.s:1628   .text:0000000000000788 .L0 
     /tmp/ccfvAfd6.s:1631   .text:0000000000000790 .L0 
     /tmp/ccfvAfd6.s:1632   .text:0000000000000790 .L0 
     /tmp/ccfvAfd6.s:1634   .text:0000000000000794 .L0 
     /tmp/ccfvAfd6.s:1636   .text:0000000000000794 .L0 
     /tmp/ccfvAfd6.s:1637   .text:0000000000000794 .L0 
     /tmp/ccfvAfd6.s:1640   .text:000000000000079c .L0 
     /tmp/ccfvAfd6.s:1641   .text:00000000000007a0 .L0 
     /tmp/ccfvAfd6.s:1643   .text:00000000000007a4 .L0 
     /tmp/ccfvAfd6.s:1644   .text:00000000000007a4 .L0 
     /tmp/ccfvAfd6.s:1646   .text:00000000000007a8 .L0 
     /tmp/ccfvAfd6.s:1648   .text:00000000000007ac .L0 
     /tmp/ccfvAfd6.s:1715   .bss:0000000000000003 finishedD
     /tmp/ccfvAfd6.s:1711   .bss:0000000000000002 finishedC
     /tmp/ccfvAfd6.s:1707   .bss:0000000000000001 finishedB
     /tmp/ccfvAfd6.s:1703   .bss:0000000000000000 finishedA
     /tmp/ccfvAfd6.s:1700   .bss:0000000000000000 .LANCHOR0
     /tmp/ccfvAfd6.s:44     .text._ZN7WorkerAD2Ev:0000000000000034 .L0 
     /tmp/ccfvAfd6.s:91     .text._ZN7WorkerAD0Ev:000000000000004c .L0 
     /tmp/ccfvAfd6.s:128    .text._ZN7WorkerBD2Ev:0000000000000034 .L0 
     /tmp/ccfvAfd6.s:175    .text._ZN7WorkerBD0Ev:000000000000004c .L0 
     /tmp/ccfvAfd6.s:212    .text._ZN7WorkerCD2Ev:0000000000000034 .L0 
     /tmp/ccfvAfd6.s:259    .text._ZN7WorkerCD0Ev:000000000000004c .L0 
     /tmp/ccfvAfd6.s:296    .text._ZN7WorkerDD2Ev:0000000000000034 .L0 
     /tmp/ccfvAfd6.s:343    .text._ZN7WorkerDD0Ev:000000000000004c .L0 
     /tmp/ccfvAfd6.s:1723   .text:00000000000007ac .L0 
     /tmp/ccfvAfd6.s:593    .text._ZN7WorkerA3runEv:000000000000002c .L0 
     /tmp/ccfvAfd6.s:768    .text._ZN7WorkerB3runEv:000000000000002c .L0 
     /tmp/ccfvAfd6.s:1004   .text._ZN7WorkerC3runEv:000000000000002c .L0 
     /tmp/ccfvAfd6.s:1211   .text._ZN7WorkerD3runEv:000000000000002c .L0 
     /tmp/ccfvAfd6.s:417    .rodata.str1.8:0000000000000000 .LC0
     /tmp/ccfvAfd6.s:500    .text:00000000000000d0 .L0 
     /tmp/ccfvAfd6.s:420    .rodata.str1.8:0000000000000008 .LC1
     /tmp/ccfvAfd6.s:512    .text:00000000000000f4 .L0 
     /tmp/ccfvAfd6.s:423    .rodata.str1.8:0000000000000010 .LC2
     /tmp/ccfvAfd6.s:527    .text:000000000000010c .L0 
     /tmp/ccfvAfd6.s:533    .text:0000000000000120 .L0 
     /tmp/ccfvAfd6.s:595    .rodata.str1.8:0000000000000020 .LC3
     /tmp/ccfvAfd6.s:675    .text:00000000000001ac .L0 
     /tmp/ccfvAfd6.s:687    .text:00000000000001d0 .L0 
     /tmp/ccfvAfd6.s:598    .rodata.str1.8:0000000000000028 .LC4
     /tmp/ccfvAfd6.s:702    .text:00000000000001e8 .L0 
     /tmp/ccfvAfd6.s:708    .text:00000000000001fc .L0 
     /tmp/ccfvAfd6.s:770    .rodata.str1.8:0000000000000038 .LC5
     /tmp/ccfvAfd6.s:814    .text:000000000000024c .L0 
     /tmp/ccfvAfd6.s:826    .text:0000000000000270 .L0 
     /tmp/ccfvAfd6.s:773    .rodata.str1.8:0000000000000040 .LC6
     /tmp/ccfvAfd6.s:841    .text:0000000000000290 .L0 
GAS LISTING /tmp/ccfvAfd6.s 			page 50


     /tmp/ccfvAfd6.s:776    .rodata.str1.8:0000000000000050 .LC7
     /tmp/ccfvAfd6.s:866    .text:00000000000002b0 .L0 
     /tmp/ccfvAfd6.s:878    .text:00000000000002d4 .L0 
     /tmp/ccfvAfd6.s:779    .rodata.str1.8:0000000000000058 .LC8
     /tmp/ccfvAfd6.s:890    .text:00000000000002f4 .L0 
     /tmp/ccfvAfd6.s:903    .text:0000000000000318 .L0 
     /tmp/ccfvAfd6.s:910    .text:000000000000032c .L0 
     /tmp/ccfvAfd6.s:922    .text:0000000000000350 .L0 
     /tmp/ccfvAfd6.s:782    .rodata.str1.8:0000000000000068 .LC9
     /tmp/ccfvAfd6.s:937    .text:0000000000000370 .L0 
     /tmp/ccfvAfd6.s:943    .text:0000000000000384 .L0 
     /tmp/ccfvAfd6.s:1006   .rodata.str1.8:0000000000000078 .LC10
     /tmp/ccfvAfd6.s:1047   .text:00000000000003d4 .L0 
     /tmp/ccfvAfd6.s:1059   .text:00000000000003f8 .L0 
     /tmp/ccfvAfd6.s:1009   .rodata.str1.8:0000000000000080 .LC11
     /tmp/ccfvAfd6.s:1074   .text:0000000000000418 .L0 
     /tmp/ccfvAfd6.s:1012   .rodata.str1.8:0000000000000090 .LC12
     /tmp/ccfvAfd6.s:1097   .text:0000000000000444 .L0 
     /tmp/ccfvAfd6.s:1110   .text:0000000000000468 .L0 
     /tmp/ccfvAfd6.s:1117   .text:000000000000047c .L0 
     /tmp/ccfvAfd6.s:1129   .text:00000000000004a0 .L0 
     /tmp/ccfvAfd6.s:1015   .rodata.str1.8:00000000000000a0 .LC13
     /tmp/ccfvAfd6.s:1144   .text:00000000000004c0 .L0 
     /tmp/ccfvAfd6.s:1150   .text:00000000000004d4 .L0 
     /tmp/ccfvAfd6.s:1239   .text:0000000000000520 .L0 
     /tmp/ccfvAfd6.s:1251   .text:0000000000000544 .L0 
     /tmp/ccfvAfd6.s:1329   .text:00000000000005a4 .L0 
     /tmp/ccfvAfd6.s:1279   .rodata.str1.8:00000000000000b0 .LC14
     /tmp/ccfvAfd6.s:1338   .text:00000000000005b4 .L0 
     /tmp/ccfvAfd6.s:1357   .text:00000000000005dc .L0 
     /tmp/ccfvAfd6.s:1282   .rodata.str1.8:00000000000000c8 .LC15
     /tmp/ccfvAfd6.s:1366   .text:00000000000005ec .L0 
     /tmp/ccfvAfd6.s:1385   .text:0000000000000614 .L0 
     /tmp/ccfvAfd6.s:1285   .rodata.str1.8:00000000000000e0 .LC16
     /tmp/ccfvAfd6.s:1394   .text:0000000000000624 .L0 
     /tmp/ccfvAfd6.s:1413   .text:000000000000064c .L0 
     /tmp/ccfvAfd6.s:1288   .rodata.str1.8:00000000000000f8 .LC17
     /tmp/ccfvAfd6.s:1422   .text:000000000000065c .L0 
     /tmp/ccfvAfd6.s:1458   .text:00000000000006a0 .L0 
     /tmp/ccfvAfd6.s:1461   .text:00000000000006ac .L0 
     /tmp/ccfvAfd6.s:1464   .text:00000000000006b8 .L0 
     /tmp/ccfvAfd6.s:1467   .text:00000000000006c4 .L0 
     /tmp/ccfvAfd6.s:388    .text:0000000000000050 .L17
     /tmp/ccfvAfd6.s:405    .text:0000000000000068 .L22
     /tmp/ccfvAfd6.s:375    .text:0000000000000030 .L19
     /tmp/ccfvAfd6.s:493    .text:00000000000000c8 .L29
     /tmp/ccfvAfd6.s:485    .text:00000000000000c4 .L25
     /tmp/ccfvAfd6.s:453    .text:0000000000000094 .L26
     /tmp/ccfvAfd6.s:474    .text:00000000000000b0 .L27
     /tmp/ccfvAfd6.s:521    .text:000000000000010c .L24
     /tmp/ccfvAfd6.s:465    .text:00000000000000a0 .L28
     /tmp/ccfvAfd6.s:668    .text:00000000000001a4 .L39
     /tmp/ccfvAfd6.s:660    .text:00000000000001a0 .L35
     /tmp/ccfvAfd6.s:628    .text:0000000000000170 .L36
     /tmp/ccfvAfd6.s:649    .text:000000000000018c .L37
     /tmp/ccfvAfd6.s:696    .text:00000000000001e8 .L34
     /tmp/ccfvAfd6.s:640    .text:000000000000017c .L38
GAS LISTING /tmp/ccfvAfd6.s 			page 51


     /tmp/ccfvAfd6.s:834    .text:0000000000000288 .L45
     /tmp/ccfvAfd6.s:811    .text:000000000000024c .L49
     /tmp/ccfvAfd6.s:930    .text:0000000000000368 .L47
     /tmp/ccfvAfd6.s:907    .text:000000000000032c .L50
     /tmp/ccfvAfd6.s:1067   .text:0000000000000410 .L55
     /tmp/ccfvAfd6.s:1044   .text:00000000000003d4 .L59
     /tmp/ccfvAfd6.s:1137   .text:00000000000004b8 .L57
     /tmp/ccfvAfd6.s:1114   .text:000000000000047c .L60
     /tmp/ccfvAfd6.s:1257   .text:0000000000000558 .L65
     /tmp/ccfvAfd6.s:1236   .text:0000000000000520 .L67
     /tmp/ccfvAfd6.s:1455   .text:00000000000006a0 .L69
     /tmp/ccfvAfd6.s:1429   .text:0000000000000670 .L70
     /tmp/ccfvAfd6.s:1448   .text:0000000000000698 .L71
     /tmp/ccfvAfd6.s:1479   .text:00000000000006dc .L72
     /tmp/ccfvAfd6.s:1541   .text:000000000000076c .L68
     /tmp/ccfvAfd6.s:1475   .text:00000000000006d8 .L74
     /tmp/ccfvAfd6.s:26     .text._ZN7WorkerAD2Ev:0000000000000010 .L0 
     /tmp/ccfvAfd6.s:68     .text._ZN7WorkerAD0Ev:0000000000000018 .L0 
     /tmp/ccfvAfd6.s:110    .text._ZN7WorkerBD2Ev:0000000000000010 .L0 
     /tmp/ccfvAfd6.s:152    .text._ZN7WorkerBD0Ev:0000000000000018 .L0 
     /tmp/ccfvAfd6.s:194    .text._ZN7WorkerCD2Ev:0000000000000010 .L0 
     /tmp/ccfvAfd6.s:236    .text._ZN7WorkerCD0Ev:0000000000000018 .L0 
     /tmp/ccfvAfd6.s:278    .text._ZN7WorkerDD2Ev:0000000000000010 .L0 
     /tmp/ccfvAfd6.s:320    .text._ZN7WorkerDD0Ev:0000000000000018 .L0 
     /tmp/ccfvAfd6.s:1316   .text:0000000000000590 .LEHB0
     /tmp/ccfvAfd6.s:1295   .text:0000000000000574 .LFB37
     /tmp/ccfvAfd6.s:1319   .text:0000000000000598 .LEHE0
     /tmp/ccfvAfd6.s:1322   .text:000000000000059c .LEHB1
     /tmp/ccfvAfd6.s:1328   .text:00000000000005a4 .LEHE1
     /tmp/ccfvAfd6.s:1496   .text:00000000000006fc .L80
     /tmp/ccfvAfd6.s:1339   .text:00000000000005bc .LEHB2
     /tmp/ccfvAfd6.s:1347   .text:00000000000005d0 .LEHE2
     /tmp/ccfvAfd6.s:1350   .text:00000000000005d4 .LEHB3
     /tmp/ccfvAfd6.s:1356   .text:00000000000005dc .LEHE3
     /tmp/ccfvAfd6.s:1508   .text:0000000000000718 .L81
     /tmp/ccfvAfd6.s:1367   .text:00000000000005f4 .LEHB4
     /tmp/ccfvAfd6.s:1375   .text:0000000000000608 .LEHE4
     /tmp/ccfvAfd6.s:1378   .text:000000000000060c .LEHB5
     /tmp/ccfvAfd6.s:1384   .text:0000000000000614 .LEHE5
     /tmp/ccfvAfd6.s:1519   .text:0000000000000734 .L82
     /tmp/ccfvAfd6.s:1395   .text:000000000000062c .LEHB6
     /tmp/ccfvAfd6.s:1403   .text:0000000000000640 .LEHE6
     /tmp/ccfvAfd6.s:1406   .text:0000000000000644 .LEHB7
     /tmp/ccfvAfd6.s:1412   .text:000000000000064c .LEHE7
     /tmp/ccfvAfd6.s:1530   .text:0000000000000750 .L83
     /tmp/ccfvAfd6.s:1423   .text:0000000000000664 .LEHB8
     /tmp/ccfvAfd6.s:1454   .text:00000000000006a0 .LEHE8
     /tmp/ccfvAfd6.s:1504   .text:0000000000000710 .LEHB9
     /tmp/ccfvAfd6.s:1507   .text:0000000000000718 .LEHE9
     /tmp/ccfvAfd6.s:1515   .text:000000000000072c .LEHB10
     /tmp/ccfvAfd6.s:1518   .text:0000000000000734 .LEHE10
     /tmp/ccfvAfd6.s:1526   .text:0000000000000748 .LEHB11
     /tmp/ccfvAfd6.s:1529   .text:0000000000000750 .LEHE11
     /tmp/ccfvAfd6.s:1537   .text:0000000000000764 .LEHB12
     /tmp/ccfvAfd6.s:1540   .text:000000000000076c .LEHE12
     /tmp/ccfvAfd6.s:4056   .debug_abbrev:0000000000000000 .Ldebug_abbrev0
     /tmp/ccfvAfd6.s:5722   .debug_str:000000000000050b .LASF101
GAS LISTING /tmp/ccfvAfd6.s 			page 52


     /tmp/ccfvAfd6.s:5654   .debug_str:0000000000000309 .LASF102
     /tmp/ccfvAfd6.s:5760   .debug_str:00000000000006cc .LASF103
     /tmp/ccfvAfd6.s:5502   .debug_ranges:0000000000000000 .Ldebug_ranges0
     /tmp/ccfvAfd6.s:5544   .debug_line:0000000000000000 .Ldebug_line0
     /tmp/ccfvAfd6.s:5668   .debug_str:0000000000000381 .LASF0
     /tmp/ccfvAfd6.s:5678   .debug_str:00000000000003c1 .LASF1
     /tmp/ccfvAfd6.s:5658   .debug_str:000000000000032c .LASF2
     /tmp/ccfvAfd6.s:5590   .debug_str:0000000000000137 .LASF3
     /tmp/ccfvAfd6.s:5630   .debug_str:000000000000026e .LASF4
     /tmp/ccfvAfd6.s:5712   .debug_str:00000000000004c2 .LASF5
     /tmp/ccfvAfd6.s:5566   .debug_str:000000000000009f .LASF6
     /tmp/ccfvAfd6.s:5684   .debug_str:00000000000003f4 .LASF7
     /tmp/ccfvAfd6.s:5666   .debug_str:000000000000036e .LASF8
     /tmp/ccfvAfd6.s:5732   .debug_str:0000000000000603 .LASF9
     /tmp/ccfvAfd6.s:5612   .debug_str:00000000000001f7 .LASF10
     /tmp/ccfvAfd6.s:5696   .debug_str:0000000000000451 .LASF11
     /tmp/ccfvAfd6.s:5726   .debug_str:00000000000005df .LASF12
     /tmp/ccfvAfd6.s:5568   .debug_str:00000000000000a6 .LASF13
     /tmp/ccfvAfd6.s:5554   .debug_str:000000000000003b .LASF14
     /tmp/ccfvAfd6.s:5580   .debug_str:00000000000000e3 .LASF15
     /tmp/ccfvAfd6.s:5706   .debug_str:0000000000000490 .LASF16
     /tmp/ccfvAfd6.s:5588   .debug_str:0000000000000121 .LASF17
     /tmp/ccfvAfd6.s:5626   .debug_str:000000000000025a .LASF18
     /tmp/ccfvAfd6.s:5602   .debug_str:000000000000019a .LASF19
     /tmp/ccfvAfd6.s:5628   .debug_str:0000000000000264 .LASF20
     /tmp/ccfvAfd6.s:5556   .debug_str:000000000000004b .LASF21
     /tmp/ccfvAfd6.s:5632   .debug_str:0000000000000275 .LASF22
     /tmp/ccfvAfd6.s:5698   .debug_str:0000000000000460 .LASF23
     /tmp/ccfvAfd6.s:5662   .debug_str:000000000000034a .LASF24
     /tmp/ccfvAfd6.s:5622   .debug_str:000000000000023d .LASF25
     /tmp/ccfvAfd6.s:5672   .debug_str:000000000000039e .LASF26
     /tmp/ccfvAfd6.s:5558   .debug_str:0000000000000055 .LASF36
     /tmp/ccfvAfd6.s:5592   .debug_str:000000000000013d .LASF38
     /tmp/ccfvAfd6.s:5560   .debug_str:0000000000000071 .LASF40
     /tmp/ccfvAfd6.s:5576   .debug_str:00000000000000d1 .LASF27
     /tmp/ccfvAfd6.s:5660   .debug_str:000000000000033a .LASF43
     /tmp/ccfvAfd6.s:5728   .debug_str:00000000000005ee .LASF104
     /tmp/ccfvAfd6.s:5610   .debug_str:00000000000001e4 .LASF28
     /tmp/ccfvAfd6.s:5618   .debug_str:0000000000000228 .LASF30
     /tmp/ccfvAfd6.s:5606   .debug_str:00000000000001b4 .LASF29
     /tmp/ccfvAfd6.s:5750   .debug_str:0000000000000678 .LASF31
     /tmp/ccfvAfd6.s:5740   .debug_str:0000000000000637 .LASF32
     /tmp/ccfvAfd6.s:5656   .debug_str:000000000000031a .LASF33
     /tmp/ccfvAfd6.s:5552   .debug_str:0000000000000028 .LASF34
     /tmp/ccfvAfd6.s:5562   .debug_str:0000000000000083 .LASF35
     /tmp/ccfvAfd6.s:5598   .debug_str:000000000000016e .LASF37
     /tmp/ccfvAfd6.s:5742   .debug_str:000000000000063f .LASF39
     /tmp/ccfvAfd6.s:5664   .debug_str:000000000000035c .LASF41
     /tmp/ccfvAfd6.s:5574   .debug_str:00000000000000c8 .LASF42
     /tmp/ccfvAfd6.s:5582   .debug_str:00000000000000ef .LASF44
     /tmp/ccfvAfd6.s:5694   .debug_str:0000000000000449 .LASF45
     /tmp/ccfvAfd6.s:5644   .debug_str:00000000000002ba .LASF46
     /tmp/ccfvAfd6.s:5700   .debug_str:0000000000000468 .LASF47
     /tmp/ccfvAfd6.s:5550   .debug_str:000000000000001c .LASF48
     /tmp/ccfvAfd6.s:5756   .debug_str:00000000000006a4 .LASF49
     /tmp/ccfvAfd6.s:5670   .debug_str:000000000000038e .LASF50
     /tmp/ccfvAfd6.s:5762   .debug_str:00000000000006e9 .LASF51
GAS LISTING /tmp/ccfvAfd6.s 			page 53


     /tmp/ccfvAfd6.s:5572   .debug_str:00000000000000bf .LASF52
     /tmp/ccfvAfd6.s:5720   .debug_str:00000000000004fb .LASF53
     /tmp/ccfvAfd6.s:5692   .debug_str:0000000000000441 .LASF54
     /tmp/ccfvAfd6.s:5738   .debug_str:0000000000000625 .LASF55
     /tmp/ccfvAfd6.s:5616   .debug_str:0000000000000215 .LASF56
     /tmp/ccfvAfd6.s:5548   .debug_str:0000000000000010 .LASF57
     /tmp/ccfvAfd6.s:5690   .debug_str:0000000000000425 .LASF58
     /tmp/ccfvAfd6.s:5724   .debug_str:00000000000005cf .LASF59
     /tmp/ccfvAfd6.s:5594   .debug_str:000000000000014d .LASF60
     /tmp/ccfvAfd6.s:5646   .debug_str:00000000000002cc .LASF61
     /tmp/ccfvAfd6.s:5570   .debug_str:00000000000000b6 .LASF62
     /tmp/ccfvAfd6.s:5652   .debug_str:00000000000002f9 .LASF63
     /tmp/ccfvAfd6.s:5702   .debug_str:000000000000047b .LASF64
     /tmp/ccfvAfd6.s:5624   .debug_str:0000000000000250 .LASF65
     /tmp/ccfvAfd6.s:5746   .debug_str:000000000000065c .LASF66
     /tmp/ccfvAfd6.s:49     .text._ZN7WorkerAD0Ev:0000000000000000 .LFB54
     /tmp/ccfvAfd6.s:89     .text._ZN7WorkerAD0Ev:000000000000004c .LFE54
     /tmp/ccfvAfd6.s:4864   .debug_loc:0000000000000000 .LLST1
     /tmp/ccfvAfd6.s:65     .text._ZN7WorkerAD0Ev:0000000000000018 .LBB29
     /tmp/ccfvAfd6.s:73     .text._ZN7WorkerAD0Ev:000000000000002c .LBE29
     /tmp/ccfvAfd6.s:4882   .debug_loc:000000000000004c .LLST2
     /tmp/ccfvAfd6.s:71     .text._ZN7WorkerAD0Ev:000000000000002c .LVL4
     /tmp/ccfvAfd6.s:76     .text._ZN7WorkerAD0Ev:0000000000000038 .LVL5
     /tmp/ccfvAfd6.s:5704   .debug_str:0000000000000480 .LASF67
     /tmp/ccfvAfd6.s:11     .text._ZN7WorkerAD2Ev:0000000000000000 .LFB52
     /tmp/ccfvAfd6.s:40     .text._ZN7WorkerAD2Ev:0000000000000034 .LFE52
     /tmp/ccfvAfd6.s:4893   .debug_loc:0000000000000082 .LLST0
     /tmp/ccfvAfd6.s:29     .text._ZN7WorkerAD2Ev:0000000000000024 .LVL1
     /tmp/ccfvAfd6.s:5600   .debug_str:000000000000018a .LASF68
     /tmp/ccfvAfd6.s:133    .text._ZN7WorkerBD0Ev:0000000000000000 .LFB50
     /tmp/ccfvAfd6.s:173    .text._ZN7WorkerBD0Ev:000000000000004c .LFE50
     /tmp/ccfvAfd6.s:4907   .debug_loc:00000000000000bb .LLST4
     /tmp/ccfvAfd6.s:149    .text._ZN7WorkerBD0Ev:0000000000000018 .LBB32
     /tmp/ccfvAfd6.s:157    .text._ZN7WorkerBD0Ev:000000000000002c .LBE32
     /tmp/ccfvAfd6.s:4925   .debug_loc:0000000000000107 .LLST5
     /tmp/ccfvAfd6.s:155    .text._ZN7WorkerBD0Ev:000000000000002c .LVL11
     /tmp/ccfvAfd6.s:160    .text._ZN7WorkerBD0Ev:0000000000000038 .LVL12
     /tmp/ccfvAfd6.s:5614   .debug_str:0000000000000205 .LASF69
     /tmp/ccfvAfd6.s:96     .text._ZN7WorkerBD2Ev:0000000000000000 .LFB48
     /tmp/ccfvAfd6.s:124    .text._ZN7WorkerBD2Ev:0000000000000034 .LFE48
     /tmp/ccfvAfd6.s:4936   .debug_loc:000000000000013d .LLST3
     /tmp/ccfvAfd6.s:113    .text._ZN7WorkerBD2Ev:0000000000000024 .LVL8
     /tmp/ccfvAfd6.s:5640   .debug_str:00000000000002a0 .LASF70
     /tmp/ccfvAfd6.s:217    .text._ZN7WorkerCD0Ev:0000000000000000 .LFB46
     /tmp/ccfvAfd6.s:257    .text._ZN7WorkerCD0Ev:000000000000004c .LFE46
     /tmp/ccfvAfd6.s:4950   .debug_loc:0000000000000176 .LLST7
     /tmp/ccfvAfd6.s:233    .text._ZN7WorkerCD0Ev:0000000000000018 .LBB35
     /tmp/ccfvAfd6.s:241    .text._ZN7WorkerCD0Ev:000000000000002c .LBE35
     /tmp/ccfvAfd6.s:4968   .debug_loc:00000000000001c2 .LLST8
     /tmp/ccfvAfd6.s:239    .text._ZN7WorkerCD0Ev:000000000000002c .LVL18
     /tmp/ccfvAfd6.s:244    .text._ZN7WorkerCD0Ev:0000000000000038 .LVL19
     /tmp/ccfvAfd6.s:5634   .debug_str:000000000000027f .LASF71
     /tmp/ccfvAfd6.s:180    .text._ZN7WorkerCD2Ev:0000000000000000 .LFB44
     /tmp/ccfvAfd6.s:208    .text._ZN7WorkerCD2Ev:0000000000000034 .LFE44
     /tmp/ccfvAfd6.s:4979   .debug_loc:00000000000001f8 .LLST6
     /tmp/ccfvAfd6.s:197    .text._ZN7WorkerCD2Ev:0000000000000024 .LVL15
     /tmp/ccfvAfd6.s:5754   .debug_str:0000000000000694 .LASF72
GAS LISTING /tmp/ccfvAfd6.s 			page 54


     /tmp/ccfvAfd6.s:301    .text._ZN7WorkerDD0Ev:0000000000000000 .LFB42
     /tmp/ccfvAfd6.s:341    .text._ZN7WorkerDD0Ev:000000000000004c .LFE42
     /tmp/ccfvAfd6.s:4993   .debug_loc:0000000000000231 .LLST10
     /tmp/ccfvAfd6.s:317    .text._ZN7WorkerDD0Ev:0000000000000018 .LBB38
     /tmp/ccfvAfd6.s:325    .text._ZN7WorkerDD0Ev:000000000000002c .LBE38
     /tmp/ccfvAfd6.s:5011   .debug_loc:000000000000027d .LLST11
     /tmp/ccfvAfd6.s:323    .text._ZN7WorkerDD0Ev:000000000000002c .LVL25
     /tmp/ccfvAfd6.s:328    .text._ZN7WorkerDD0Ev:0000000000000038 .LVL26
     /tmp/ccfvAfd6.s:5710   .debug_str:00000000000004b2 .LASF73
     /tmp/ccfvAfd6.s:264    .text._ZN7WorkerDD2Ev:0000000000000000 .LFB40
     /tmp/ccfvAfd6.s:292    .text._ZN7WorkerDD2Ev:0000000000000034 .LFE40
     /tmp/ccfvAfd6.s:5022   .debug_loc:00000000000002b3 .LLST9
     /tmp/ccfvAfd6.s:281    .text._ZN7WorkerDD2Ev:0000000000000024 .LVL22
     /tmp/ccfvAfd6.s:5596   .debug_str:0000000000000165 .LASF74
     /tmp/ccfvAfd6.s:5686   .debug_str:0000000000000407 .LASF76
     /tmp/ccfvAfd6.s:1623   .text:0000000000000784 .LFB38
     /tmp/ccfvAfd6.s:1649   .text:00000000000007ac .LFE38
     /tmp/ccfvAfd6.s:1638   .text:000000000000079c .LVL181
     /tmp/ccfvAfd6.s:5650   .debug_str:00000000000002e4 .LASF75
     /tmp/ccfvAfd6.s:5608   .debug_str:00000000000001ca .LASF77
     /tmp/ccfvAfd6.s:1557   .text:0000000000000784 .LFE37
     /tmp/ccfvAfd6.s:5736   .debug_str:000000000000061d .LASF78
     /tmp/ccfvAfd6.s:1426   .text:000000000000066c .LBB64
     /tmp/ccfvAfd6.s:1449   .text:0000000000000698 .LBE64
     /tmp/ccfvAfd6.s:5036   .debug_loc:00000000000002ec .LLST42
     /tmp/ccfvAfd6.s:1442   .text:0000000000000690 .LVL162
     /tmp/ccfvAfd6.s:1469   .text:00000000000006d0 .LBB65
     /tmp/ccfvAfd6.s:1498   .text:0000000000000700 .LBE65
     /tmp/ccfvAfd6.s:5676   .debug_str:00000000000003ba .LASF79
     /tmp/ccfvAfd6.s:5047   .debug_loc:0000000000000322 .LLST43
     /tmp/ccfvAfd6.s:5748   .debug_str:000000000000066c .LASF80
     /tmp/ccfvAfd6.s:5708   .debug_str:00000000000004a6 .LASF105
     /tmp/ccfvAfd6.s:5054   .debug_loc:0000000000000345 .LLST44
     /tmp/ccfvAfd6.s:5642   .debug_str:00000000000002b0 .LASF81
     /tmp/ccfvAfd6.s:1323   .text:000000000000059c .LBB56
     /tmp/ccfvAfd6.s:1333   .text:00000000000005b0 .LBE56
     /tmp/ccfvAfd6.s:5065   .debug_loc:000000000000037b .LLST38
     /tmp/ccfvAfd6.s:1327   .text:00000000000005a4 .LVL143
     /tmp/ccfvAfd6.s:1351   .text:00000000000005d4 .LBB58
     /tmp/ccfvAfd6.s:1361   .text:00000000000005e8 .LBE58
     /tmp/ccfvAfd6.s:5076   .debug_loc:00000000000003b1 .LLST39
     /tmp/ccfvAfd6.s:1355   .text:00000000000005dc .LVL148
     /tmp/ccfvAfd6.s:1379   .text:000000000000060c .LBB60
     /tmp/ccfvAfd6.s:1389   .text:0000000000000620 .LBE60
     /tmp/ccfvAfd6.s:5087   .debug_loc:00000000000003e7 .LLST40
     /tmp/ccfvAfd6.s:1383   .text:0000000000000614 .LVL153
     /tmp/ccfvAfd6.s:1407   .text:0000000000000644 .LBB62
     /tmp/ccfvAfd6.s:1417   .text:0000000000000658 .LBE62
     /tmp/ccfvAfd6.s:5098   .debug_loc:000000000000041d .LLST41
     /tmp/ccfvAfd6.s:1411   .text:000000000000064c .LVL158
     /tmp/ccfvAfd6.s:1318   .text:0000000000000598 .LVL141
     /tmp/ccfvAfd6.s:1341   .text:00000000000005c4 .LVL145
     /tmp/ccfvAfd6.s:1346   .text:00000000000005d0 .LVL146
     /tmp/ccfvAfd6.s:1369   .text:00000000000005fc .LVL150
     /tmp/ccfvAfd6.s:1374   .text:0000000000000608 .LVL151
     /tmp/ccfvAfd6.s:1397   .text:0000000000000634 .LVL155
     /tmp/ccfvAfd6.s:1402   .text:0000000000000640 .LVL156
GAS LISTING /tmp/ccfvAfd6.s 			page 55


     /tmp/ccfvAfd6.s:1425   .text:000000000000066c .LVL160
     /tmp/ccfvAfd6.s:1453   .text:00000000000006a0 .LVL165
     /tmp/ccfvAfd6.s:1502   .text:000000000000070c .LVL172
     /tmp/ccfvAfd6.s:1506   .text:0000000000000718 .LVL173
     /tmp/ccfvAfd6.s:1513   .text:0000000000000728 .LVL174
     /tmp/ccfvAfd6.s:1517   .text:0000000000000734 .LVL175
     /tmp/ccfvAfd6.s:1524   .text:0000000000000744 .LVL176
     /tmp/ccfvAfd6.s:1528   .text:0000000000000750 .LVL177
     /tmp/ccfvAfd6.s:1535   .text:0000000000000760 .LVL178
     /tmp/ccfvAfd6.s:1539   .text:000000000000076c .LVL179
     /tmp/ccfvAfd6.s:5636   .debug_str:000000000000028f .LASF82
     /tmp/ccfvAfd6.s:5584   .debug_str:00000000000000ff .LASF83
     /tmp/ccfvAfd6.s:1216   .text:0000000000000504 .LFB36
     /tmp/ccfvAfd6.s:1275   .text:0000000000000574 .LFE36
     /tmp/ccfvAfd6.s:5109   .debug_loc:0000000000000453 .LLST36
     /tmp/ccfvAfd6.s:5123   .debug_loc:000000000000048c .LLST37
     /tmp/ccfvAfd6.s:1241   .text:0000000000000530 .LVL136
     /tmp/ccfvAfd6.s:1248   .text:0000000000000544 .LVL137
     /tmp/ccfvAfd6.s:1253   .text:0000000000000554 .LVL138
     /tmp/ccfvAfd6.s:1022   .text:00000000000003b4 .LFB35
     /tmp/ccfvAfd6.s:1175   .text:0000000000000504 .LFE35
     /tmp/ccfvAfd6.s:5135   .debug_loc:00000000000004c3 .LLST31
     /tmp/ccfvAfd6.s:5149   .debug_loc:00000000000004fc .LLST32
     /tmp/ccfvAfd6.s:5163   .debug_loc:0000000000000535 .LLST33
     /tmp/ccfvAfd6.s:5714   .debug_str:00000000000004d4 .LASF84
     /tmp/ccfvAfd6.s:5183   .debug_loc:0000000000000592 .LLST34
     /tmp/ccfvAfd6.s:1049   .text:00000000000003e4 .LVL108
     /tmp/ccfvAfd6.s:1056   .text:00000000000003f8 .LVL109
     /tmp/ccfvAfd6.s:1061   .text:0000000000000408 .LVL110
     /tmp/ccfvAfd6.s:1076   .text:0000000000000428 .LVL113
     /tmp/ccfvAfd6.s:1087   .text:0000000000000434 .LVL114
     /tmp/ccfvAfd6.s:1092   .text:0000000000000440 .LVL115
     /tmp/ccfvAfd6.s:1100   .text:0000000000000454 .LVL118
     /tmp/ccfvAfd6.s:1107   .text:0000000000000468 .LVL119
     /tmp/ccfvAfd6.s:1112   .text:0000000000000478 .LVL120
     /tmp/ccfvAfd6.s:1119   .text:000000000000048c .LVL121
     /tmp/ccfvAfd6.s:1126   .text:00000000000004a0 .LVL122
     /tmp/ccfvAfd6.s:1131   .text:00000000000004b0 .LVL123
     /tmp/ccfvAfd6.s:1146   .text:00000000000004d0 .LVL126
     /tmp/ccfvAfd6.s:1154   .text:00000000000004e4 .LVL127
     /tmp/ccfvAfd6.s:1158   .text:00000000000004ec .LVL128
     /tmp/ccfvAfd6.s:789    .text:000000000000022c .LFB34
     /tmp/ccfvAfd6.s:968    .text:00000000000003b4 .LFE34
     /tmp/ccfvAfd6.s:5194   .debug_loc:00000000000005c8 .LLST25
     /tmp/ccfvAfd6.s:5208   .debug_loc:0000000000000601 .LLST26
     /tmp/ccfvAfd6.s:5222   .debug_loc:000000000000063a .LLST27
     /tmp/ccfvAfd6.s:5242   .debug_loc:0000000000000697 .LLST28
     /tmp/ccfvAfd6.s:5250   .debug_loc:00000000000006bb .LLST29
     /tmp/ccfvAfd6.s:816    .text:000000000000025c .LVL76
     /tmp/ccfvAfd6.s:823    .text:0000000000000270 .LVL77
     /tmp/ccfvAfd6.s:828    .text:0000000000000280 .LVL78
     /tmp/ccfvAfd6.s:843    .text:00000000000002a0 .LVL81
     /tmp/ccfvAfd6.s:854    .text:00000000000002ac .LVL82
     /tmp/ccfvAfd6.s:868    .text:00000000000002c0 .LVL84
     /tmp/ccfvAfd6.s:875    .text:00000000000002d4 .LVL85
     /tmp/ccfvAfd6.s:880    .text:00000000000002e4 .LVL86
     /tmp/ccfvAfd6.s:885    .text:00000000000002f0 .LVL87
GAS LISTING /tmp/ccfvAfd6.s 			page 56


     /tmp/ccfvAfd6.s:893    .text:0000000000000304 .LVL90
     /tmp/ccfvAfd6.s:900    .text:0000000000000318 .LVL91
     /tmp/ccfvAfd6.s:905    .text:0000000000000328 .LVL92
     /tmp/ccfvAfd6.s:912    .text:000000000000033c .LVL93
     /tmp/ccfvAfd6.s:919    .text:0000000000000350 .LVL94
     /tmp/ccfvAfd6.s:924    .text:0000000000000360 .LVL95
     /tmp/ccfvAfd6.s:939    .text:0000000000000380 .LVL98
     /tmp/ccfvAfd6.s:947    .text:0000000000000394 .LVL99
     /tmp/ccfvAfd6.s:951    .text:000000000000039c .LVL100
     /tmp/ccfvAfd6.s:605    .text:0000000000000150 .LFB33
     /tmp/ccfvAfd6.s:732    .text:000000000000022c .LFE33
     /tmp/ccfvAfd6.s:5261   .debug_loc:00000000000006f1 .LLST19
     /tmp/ccfvAfd6.s:5275   .debug_loc:000000000000072a .LLST20
     /tmp/ccfvAfd6.s:623    .text:0000000000000168 .LBB48
     /tmp/ccfvAfd6.s:699    .text:00000000000001e8 .LBE48
     /tmp/ccfvAfd6.s:5289   .debug_loc:0000000000000763 .LLST21
     /tmp/ccfvAfd6.s:5301   .debug_loc:000000000000079a .LLST22
     /tmp/ccfvAfd6.s:646    .text:0000000000000188 .LBB52
     /tmp/ccfvAfd6.s:661    .text:00000000000001a0 .LBE52
     /tmp/ccfvAfd6.s:5313   .debug_loc:00000000000007d1 .LLST23
     /tmp/ccfvAfd6.s:635    .text:0000000000000178 .LVL57
     /tmp/ccfvAfd6.s:677    .text:00000000000001bc .LVL63
     /tmp/ccfvAfd6.s:684    .text:00000000000001d0 .LVL64
     /tmp/ccfvAfd6.s:689    .text:00000000000001e0 .LVL65
     /tmp/ccfvAfd6.s:704    .text:00000000000001f8 .LVL67
     /tmp/ccfvAfd6.s:712    .text:000000000000020c .LVL68
     /tmp/ccfvAfd6.s:716    .text:0000000000000214 .LVL69
     /tmp/ccfvAfd6.s:430    .text:0000000000000074 .LFB32
     /tmp/ccfvAfd6.s:557    .text:0000000000000150 .LFE32
     /tmp/ccfvAfd6.s:5324   .debug_loc:0000000000000807 .LLST13
     /tmp/ccfvAfd6.s:5338   .debug_loc:0000000000000840 .LLST14
     /tmp/ccfvAfd6.s:448    .text:000000000000008c .LBB40
     /tmp/ccfvAfd6.s:524    .text:000000000000010c .LBE40
     /tmp/ccfvAfd6.s:5352   .debug_loc:0000000000000879 .LLST15
     /tmp/ccfvAfd6.s:5364   .debug_loc:00000000000008b0 .LLST16
     /tmp/ccfvAfd6.s:471    .text:00000000000000ac .LBB44
     /tmp/ccfvAfd6.s:486    .text:00000000000000c4 .LBE44
     /tmp/ccfvAfd6.s:5376   .debug_loc:00000000000008e7 .LLST17
     /tmp/ccfvAfd6.s:460    .text:000000000000009c .LVL38
     /tmp/ccfvAfd6.s:502    .text:00000000000000e0 .LVL44
     /tmp/ccfvAfd6.s:509    .text:00000000000000f4 .LVL45
     /tmp/ccfvAfd6.s:514    .text:0000000000000104 .LVL46
     /tmp/ccfvAfd6.s:529    .text:000000000000011c .LVL48
     /tmp/ccfvAfd6.s:537    .text:0000000000000130 .LVL49
     /tmp/ccfvAfd6.s:541    .text:0000000000000138 .LVL50
     /tmp/ccfvAfd6.s:1182   .text._ZN7WorkerD3runEv:0000000000000000 .LFB31
     /tmp/ccfvAfd6.s:1209   .text._ZN7WorkerD3runEv:000000000000002c .LFE31
     /tmp/ccfvAfd6.s:5387   .debug_loc:000000000000091d .LLST35
     /tmp/ccfvAfd6.s:1198   .text._ZN7WorkerD3runEv:000000000000001c .LVL132
     /tmp/ccfvAfd6.s:5688   .debug_str:0000000000000415 .LASF85
     /tmp/ccfvAfd6.s:975    .text._ZN7WorkerC3runEv:0000000000000000 .LFB27
     /tmp/ccfvAfd6.s:1002   .text._ZN7WorkerC3runEv:000000000000002c .LFE27
     /tmp/ccfvAfd6.s:5401   .debug_loc:0000000000000956 .LLST30
     /tmp/ccfvAfd6.s:991    .text._ZN7WorkerC3runEv:000000000000001c .LVL104
     /tmp/ccfvAfd6.s:5564   .debug_str:000000000000008f .LASF86
     /tmp/ccfvAfd6.s:739    .text._ZN7WorkerB3runEv:0000000000000000 .LFB23
     /tmp/ccfvAfd6.s:766    .text._ZN7WorkerB3runEv:000000000000002c .LFE23
GAS LISTING /tmp/ccfvAfd6.s 			page 57


     /tmp/ccfvAfd6.s:5415   .debug_loc:000000000000098f .LLST24
     /tmp/ccfvAfd6.s:755    .text._ZN7WorkerB3runEv:000000000000001c .LVL72
     /tmp/ccfvAfd6.s:5718   .debug_str:00000000000004eb .LASF87
     /tmp/ccfvAfd6.s:564    .text._ZN7WorkerA3runEv:0000000000000000 .LFB19
     /tmp/ccfvAfd6.s:591    .text._ZN7WorkerA3runEv:000000000000002c .LFE19
     /tmp/ccfvAfd6.s:5429   .debug_loc:00000000000009c8 .LLST18
     /tmp/ccfvAfd6.s:580    .text._ZN7WorkerA3runEv:000000000000001c .LVL53
     /tmp/ccfvAfd6.s:5546   .debug_str:0000000000000000 .LASF88
     /tmp/ccfvAfd6.s:5734   .debug_str:0000000000000613 .LASF106
     /tmp/ccfvAfd6.s:5730   .debug_str:00000000000005f5 .LASF107
     /tmp/ccfvAfd6.s:348    .text:0000000000000000 .LFB12
     /tmp/ccfvAfd6.s:413    .text:0000000000000074 .LFE12
     /tmp/ccfvAfd6.s:5443   .debug_loc:0000000000000a01 .LLST12
     /tmp/ccfvAfd6.s:380    .text:000000000000003c .LVL30
     /tmp/ccfvAfd6.s:385    .text:000000000000004c .LVL31
     /tmp/ccfvAfd6.s:410    .text:0000000000000070 .LVL34
     /tmp/ccfvAfd6.s:5764   .debug_str:00000000000006fb .LASF89
     /tmp/ccfvAfd6.s:5716   .debug_str:00000000000004db .LASF90
     /tmp/ccfvAfd6.s:5648   .debug_str:00000000000002de .LASF91
     /tmp/ccfvAfd6.s:5744   .debug_str:000000000000064f .LASF92
     /tmp/ccfvAfd6.s:5752   .debug_str:0000000000000681 .LASF93
     /tmp/ccfvAfd6.s:5638   .debug_str:0000000000000294 .LASF94
     /tmp/ccfvAfd6.s:5620   .debug_str:000000000000022e .LASF108
     /tmp/ccfvAfd6.s:5586   .debug_str:0000000000000109 .LASF109
     /tmp/ccfvAfd6.s:5680   .debug_str:00000000000003d4 .LASF95
     /tmp/ccfvAfd6.s:5578   .debug_str:00000000000000da .LASF96
     /tmp/ccfvAfd6.s:5604   .debug_str:000000000000019f .LASF97
     /tmp/ccfvAfd6.s:5674   .debug_str:00000000000003aa .LASF98
     /tmp/ccfvAfd6.s:5682   .debug_str:00000000000003e3 .LASF99
     /tmp/ccfvAfd6.s:5758   .debug_str:00000000000006c0 .LASF100
     /tmp/ccfvAfd6.s:52     .text._ZN7WorkerAD0Ev:0000000000000000 .LVL2
     /tmp/ccfvAfd6.s:84     .text._ZN7WorkerAD0Ev:0000000000000044 .LVL6
     /tmp/ccfvAfd6.s:64     .text._ZN7WorkerAD0Ev:0000000000000018 .LVL3
     /tmp/ccfvAfd6.s:15     .text._ZN7WorkerAD2Ev:0000000000000000 .LVL0
     /tmp/ccfvAfd6.s:136    .text._ZN7WorkerBD0Ev:0000000000000000 .LVL9
     /tmp/ccfvAfd6.s:168    .text._ZN7WorkerBD0Ev:0000000000000044 .LVL13
     /tmp/ccfvAfd6.s:148    .text._ZN7WorkerBD0Ev:0000000000000018 .LVL10
     /tmp/ccfvAfd6.s:99     .text._ZN7WorkerBD2Ev:0000000000000000 .LVL7
     /tmp/ccfvAfd6.s:220    .text._ZN7WorkerCD0Ev:0000000000000000 .LVL16
     /tmp/ccfvAfd6.s:252    .text._ZN7WorkerCD0Ev:0000000000000044 .LVL20
     /tmp/ccfvAfd6.s:232    .text._ZN7WorkerCD0Ev:0000000000000018 .LVL17
     /tmp/ccfvAfd6.s:183    .text._ZN7WorkerCD2Ev:0000000000000000 .LVL14
     /tmp/ccfvAfd6.s:304    .text._ZN7WorkerDD0Ev:0000000000000000 .LVL23
     /tmp/ccfvAfd6.s:336    .text._ZN7WorkerDD0Ev:0000000000000044 .LVL27
     /tmp/ccfvAfd6.s:316    .text._ZN7WorkerDD0Ev:0000000000000018 .LVL24
     /tmp/ccfvAfd6.s:267    .text._ZN7WorkerDD2Ev:0000000000000000 .LVL21
     /tmp/ccfvAfd6.s:1430   .text:0000000000000670 .LVL161
     /tmp/ccfvAfd6.s:1445   .text:0000000000000694 .LVL163
     /tmp/ccfvAfd6.s:1447   .text:0000000000000698 .LVL164
     /tmp/ccfvAfd6.s:1472   .text:00000000000006d4 .LVL166
     /tmp/ccfvAfd6.s:1485   .text:00000000000006e8 .LVL169
     /tmp/ccfvAfd6.s:1493   .text:00000000000006f8 .LVL170
     /tmp/ccfvAfd6.s:1474   .text:00000000000006d8 .LVL167
     /tmp/ccfvAfd6.s:1495   .text:00000000000006fc .LVL171
     /tmp/ccfvAfd6.s:1550   .text:0000000000000778 .LVL180
     /tmp/ccfvAfd6.s:1321   .text:000000000000059c .LVL142
     /tmp/ccfvAfd6.s:1331   .text:00000000000005b0 .LVL144
GAS LISTING /tmp/ccfvAfd6.s 			page 58


     /tmp/ccfvAfd6.s:1349   .text:00000000000005d4 .LVL147
     /tmp/ccfvAfd6.s:1359   .text:00000000000005e8 .LVL149
     /tmp/ccfvAfd6.s:1377   .text:000000000000060c .LVL152
     /tmp/ccfvAfd6.s:1387   .text:0000000000000620 .LVL154
     /tmp/ccfvAfd6.s:1405   .text:0000000000000644 .LVL157
     /tmp/ccfvAfd6.s:1415   .text:0000000000000658 .LVL159
     /tmp/ccfvAfd6.s:1219   .text:0000000000000504 .LVL133
     /tmp/ccfvAfd6.s:1235   .text:0000000000000520 .LVL135
     /tmp/ccfvAfd6.s:1231   .text:0000000000000518 .LVL134
     /tmp/ccfvAfd6.s:1270   .text:000000000000056c .LVL140
     /tmp/ccfvAfd6.s:1025   .text:00000000000003b4 .LVL105
     /tmp/ccfvAfd6.s:1043   .text:00000000000003d4 .LVL107
     /tmp/ccfvAfd6.s:1039   .text:00000000000003cc .LVL106
     /tmp/ccfvAfd6.s:1064   .text:000000000000040c .LVL111
     /tmp/ccfvAfd6.s:1066   .text:0000000000000410 .LVL112
     /tmp/ccfvAfd6.s:1134   .text:00000000000004b4 .LVL124
     /tmp/ccfvAfd6.s:1136   .text:00000000000004b8 .LVL125
     /tmp/ccfvAfd6.s:1167   .text:00000000000004f8 .LVL129
     /tmp/ccfvAfd6.s:1094   .text:0000000000000444 .LVL116
     /tmp/ccfvAfd6.s:1098   .text:000000000000044c .LVL117
     /tmp/ccfvAfd6.s:1170   .text:00000000000004fc .LVL130
     /tmp/ccfvAfd6.s:792    .text:000000000000022c .LVL73
     /tmp/ccfvAfd6.s:810    .text:000000000000024c .LVL75
     /tmp/ccfvAfd6.s:806    .text:0000000000000244 .LVL74
     /tmp/ccfvAfd6.s:831    .text:0000000000000284 .LVL79
     /tmp/ccfvAfd6.s:833    .text:0000000000000288 .LVL80
     /tmp/ccfvAfd6.s:927    .text:0000000000000364 .LVL96
     /tmp/ccfvAfd6.s:929    .text:0000000000000368 .LVL97
     /tmp/ccfvAfd6.s:960    .text:00000000000003a8 .LVL101
     /tmp/ccfvAfd6.s:862    .text:00000000000002b0 .LVL83
     /tmp/ccfvAfd6.s:887    .text:00000000000002f4 .LVL88
     /tmp/ccfvAfd6.s:891    .text:00000000000002fc .LVL89
     /tmp/ccfvAfd6.s:963    .text:00000000000003ac .LVL102
     /tmp/ccfvAfd6.s:608    .text:0000000000000150 .LVL54
     /tmp/ccfvAfd6.s:627    .text:0000000000000170 .LVL56
     /tmp/ccfvAfd6.s:622    .text:0000000000000168 .LVL55
     /tmp/ccfvAfd6.s:727    .text:0000000000000224 .LVL70
     /tmp/ccfvAfd6.s:667    .text:00000000000001a4 .LVL62
     /tmp/ccfvAfd6.s:695    .text:00000000000001e8 .LVL66
     /tmp/ccfvAfd6.s:650    .text:000000000000018c .LVL59
     /tmp/ccfvAfd6.s:659    .text:00000000000001a0 .LVL61
     /tmp/ccfvAfd6.s:433    .text:0000000000000074 .LVL35
     /tmp/ccfvAfd6.s:452    .text:0000000000000094 .LVL37
     /tmp/ccfvAfd6.s:447    .text:000000000000008c .LVL36
     /tmp/ccfvAfd6.s:552    .text:0000000000000148 .LVL51
     /tmp/ccfvAfd6.s:492    .text:00000000000000c8 .LVL43
     /tmp/ccfvAfd6.s:520    .text:000000000000010c .LVL47
     /tmp/ccfvAfd6.s:475    .text:00000000000000b0 .LVL40
     /tmp/ccfvAfd6.s:484    .text:00000000000000c4 .LVL42
     /tmp/ccfvAfd6.s:1185   .text._ZN7WorkerD3runEv:0000000000000000 .LVL131
     /tmp/ccfvAfd6.s:978    .text._ZN7WorkerC3runEv:0000000000000000 .LVL103
     /tmp/ccfvAfd6.s:742    .text._ZN7WorkerB3runEv:0000000000000000 .LVL71
     /tmp/ccfvAfd6.s:567    .text._ZN7WorkerA3runEv:0000000000000000 .LVL52
     /tmp/ccfvAfd6.s:351    .text:0000000000000000 .LVL28
     /tmp/ccfvAfd6.s:374    .text:0000000000000030 .LVL29
     /tmp/ccfvAfd6.s:398    .text:000000000000005c .LVL32
     /tmp/ccfvAfd6.s:404    .text:0000000000000068 .LVL33
GAS LISTING /tmp/ccfvAfd6.s 			page 59


     /tmp/ccfvAfd6.s:1724   .debug_info:0000000000000000 .Ldebug_info0
     /tmp/ccfvAfd6.s:5      .text:0000000000000000 .Ltext0
     /tmp/ccfvAfd6.s:1718   .text:00000000000007ac .Letext0
     /tmp/ccfvAfd6.s:455    .text:0000000000000094 .LBB42
     /tmp/ccfvAfd6.s:488    .text:00000000000000c4 .LBE42
     /tmp/ccfvAfd6.s:516    .text:0000000000000104 .LBB46
     /tmp/ccfvAfd6.s:522    .text:000000000000010c .LBE46
     /tmp/ccfvAfd6.s:630    .text:0000000000000170 .LBB50
     /tmp/ccfvAfd6.s:663    .text:00000000000001a0 .LBE50
     /tmp/ccfvAfd6.s:691    .text:00000000000001e0 .LBB54
     /tmp/ccfvAfd6.s:697    .text:00000000000001e8 .LBE54
     /tmp/ccfvAfd6.s:1560   .gcc_except_table:0000000000000000 .LLSDA37
                           .group:0000000000000000 _ZN7WorkerAD5Ev
                           .group:0000000000000000 _ZN7WorkerBD5Ev
                           .group:0000000000000000 _ZN7WorkerCD5Ev
                           .group:0000000000000000 _ZN7WorkerDD5Ev

UNDEFINED SYMBOLS
_ZN6ThreadD2Ev
_ZdlPv
_Z15thread_dispatchv
_Z11printStringPKc
_Z8printIntiii
_Z11thread_exitv
_Znwm
_ZN6ThreadC2Ev
_ZN6Thread5startEv
_ZN6Thread8dispatchEv
_Unwind_Resume
__gxx_personality_v0
